Archive member included because of file (symbol)

libkernel.a(prc_support.o)    Os_Lcfg.o (interrupt)
libkernel.a(target_config.o)  start.o (target_hardware_initialize)
libkernel.a(target_hw_counter.o)
                              Os_Lcfg.o (init_hwcounter_MAIN_HW_COUNTER)
libkernel.a(prc_config.o)     libkernel.a(target_config.o) (prc_hardware_initialize)
libkernel.a(vic.o)            libkernel.a(prc_config.o) (vic_initialize)
libkernel.a(avalon_timer.o)   lwip_test.o (target_timer_initialize)
libkernel.a(counter_manage.o)
                              Os_Lcfg.o (notify_hardware_counter)
libkernel.a(counter.o)        Os_Lcfg.o (counter_initialize)
libkernel.a(alarm.o)          Os_Lcfg.o (alarm_initialize)
libkernel.a(osctl_manage.o)   lwip_test.o (StartOS)
libkernel.a(osctl.o)          libkernel.a(counter_manage.o) (internal_call_errorhook)
libkernel.a(task_manage.o)    lwip_test.o (GetTaskID)
libkernel.a(interrupt_manage.o)
                              serial.o (SuspendAllInterrupts)
libkernel.a(interrupt.o)      Os_Lcfg.o (interrupt_initialize)
libkernel.a(task.o)           libkernel.a(prc_support.o) (p_schedtsk)
c:/altera/13.1/nios2eds/bin/gnu/h-i686-mingw32/bin/../lib/gcc/nios2-elf/4.7.3/../../../../../H-i686-mingw32/nios2-elf/lib\libc.a(lib_a-atexit.o)
                              alt_main.o (atexit)
c:/altera/13.1/nios2eds/bin/gnu/h-i686-mingw32/bin/../lib/gcc/nios2-elf/4.7.3/../../../../../H-i686-mingw32/nios2-elf/lib\libc.a(lib_a-exit.o)
                              alt_main.o (exit)
c:/altera/13.1/nios2eds/bin/gnu/h-i686-mingw32/bin/../lib/gcc/nios2-elf/4.7.3/../../../../../H-i686-mingw32/nios2-elf/lib\libc.a(lib_a-impure.o)
                              c:/altera/13.1/nios2eds/bin/gnu/h-i686-mingw32/bin/../lib/gcc/nios2-elf/4.7.3/../../../../../H-i686-mingw32/nios2-elf/lib\libc.a(lib_a-exit.o) (_global_impure_ptr)
c:/altera/13.1/nios2eds/bin/gnu/h-i686-mingw32/bin/../lib/gcc/nios2-elf/4.7.3/../../../../../H-i686-mingw32/nios2-elf/lib\libc.a(lib_a-int_errno.o)
                              altera_avalon_sgdma.o (errno)
c:/altera/13.1/nios2eds/bin/gnu/h-i686-mingw32/bin/../lib/gcc/nios2-elf/4.7.3/../../../../../H-i686-mingw32/nios2-elf/lib\libc.a(lib_a-malloc.o)
                              altera_avalon_tse.o (malloc)
c:/altera/13.1/nios2eds/bin/gnu/h-i686-mingw32/bin/../lib/gcc/nios2-elf/4.7.3/../../../../../H-i686-mingw32/nios2-elf/lib\libc.a(lib_a-mallocr.o)
                              c:/altera/13.1/nios2eds/bin/gnu/h-i686-mingw32/bin/../lib/gcc/nios2-elf/4.7.3/../../../../../H-i686-mingw32/nios2-elf/lib\libc.a(lib_a-malloc.o) (_malloc_r)
c:/altera/13.1/nios2eds/bin/gnu/h-i686-mingw32/bin/../lib/gcc/nios2-elf/4.7.3/../../../../../H-i686-mingw32/nios2-elf/lib\libc.a(lib_a-memcmp.o)
                              alt_find_dev.o (memcmp)
c:/altera/13.1/nios2eds/bin/gnu/h-i686-mingw32/bin/../lib/gcc/nios2-elf/4.7.3/../../../../../H-i686-mingw32/nios2-elf/lib\libc.a(lib_a-memcpy.o)
                              altera_avalon_tse.o (memcpy)
c:/altera/13.1/nios2eds/bin/gnu/h-i686-mingw32/bin/../lib/gcc/nios2-elf/4.7.3/../../../../../H-i686-mingw32/nios2-elf/lib\libc.a(lib_a-memset.o)
                              altera_avalon_tse.o (memset)
c:/altera/13.1/nios2eds/bin/gnu/h-i686-mingw32/bin/../lib/gcc/nios2-elf/4.7.3/../../../../../H-i686-mingw32/nios2-elf/lib\libc.a(lib_a-printf.o)
                              mem.o (printf)
c:/altera/13.1/nios2eds/bin/gnu/h-i686-mingw32/bin/../lib/gcc/nios2-elf/4.7.3/../../../../../H-i686-mingw32/nios2-elf/lib\libc.a(lib_a-puts.o)
                              httpd.o (puts)
c:/altera/13.1/nios2eds/bin/gnu/h-i686-mingw32/bin/../lib/gcc/nios2-elf/4.7.3/../../../../../H-i686-mingw32/nios2-elf/lib\libc.a(lib_a-sbrkr.o)
                              c:/altera/13.1/nios2eds/bin/gnu/h-i686-mingw32/bin/../lib/gcc/nios2-elf/4.7.3/../../../../../H-i686-mingw32/nios2-elf/lib\libc.a(lib_a-mallocr.o) (_sbrk_r)
c:/altera/13.1/nios2eds/bin/gnu/h-i686-mingw32/bin/../lib/gcc/nios2-elf/4.7.3/../../../../../H-i686-mingw32/nios2-elf/lib\libc.a(lib_a-strcmp.o)
                              fs.o (strcmp)
c:/altera/13.1/nios2eds/bin/gnu/h-i686-mingw32/bin/../lib/gcc/nios2-elf/4.7.3/../../../../../H-i686-mingw32/nios2-elf/lib\libc.a(lib_a-strcpy.o)
                              altera_avalon_tse.o (strcpy)
c:/altera/13.1/nios2eds/bin/gnu/h-i686-mingw32/bin/../lib/gcc/nios2-elf/4.7.3/../../../../../H-i686-mingw32/nios2-elf/lib\libc.a(lib_a-strlen.o)
                              altera_avalon_tse.o (strlen)
c:/altera/13.1/nios2eds/bin/gnu/h-i686-mingw32/bin/../lib/gcc/nios2-elf/4.7.3/../../../../../H-i686-mingw32/nios2-elf/lib\libc.a(lib_a-strncmp.o)
                              httpd.o (strncmp)
c:/altera/13.1/nios2eds/bin/gnu/h-i686-mingw32/bin/../lib/gcc/nios2-elf/4.7.3/../../../../../H-i686-mingw32/nios2-elf/lib\libc.a(lib_a-vfprintf.o)
                              c:/altera/13.1/nios2eds/bin/gnu/h-i686-mingw32/bin/../lib/gcc/nios2-elf/4.7.3/../../../../../H-i686-mingw32/nios2-elf/lib\libc.a(lib_a-printf.o) (___vfprintf_internal_r)
c:/altera/13.1/nios2eds/bin/gnu/h-i686-mingw32/bin/../lib/gcc/nios2-elf/4.7.3/../../../../../H-i686-mingw32/nios2-elf/lib\libc.a(lib_a-wsetup.o)
                              c:/altera/13.1/nios2eds/bin/gnu/h-i686-mingw32/bin/../lib/gcc/nios2-elf/4.7.3/../../../../../H-i686-mingw32/nios2-elf/lib\libc.a(lib_a-vfprintf.o) (__swsetup_r)
c:/altera/13.1/nios2eds/bin/gnu/h-i686-mingw32/bin/../lib/gcc/nios2-elf/4.7.3/../../../../../H-i686-mingw32/nios2-elf/lib\libc.a(lib_a-__atexit.o)
                              c:/altera/13.1/nios2eds/bin/gnu/h-i686-mingw32/bin/../lib/gcc/nios2-elf/4.7.3/../../../../../H-i686-mingw32/nios2-elf/lib\libc.a(lib_a-atexit.o) (__register_exitproc)
c:/altera/13.1/nios2eds/bin/gnu/h-i686-mingw32/bin/../lib/gcc/nios2-elf/4.7.3/../../../../../H-i686-mingw32/nios2-elf/lib\libc.a(lib_a-__call_atexit.o)
                              c:/altera/13.1/nios2eds/bin/gnu/h-i686-mingw32/bin/../lib/gcc/nios2-elf/4.7.3/../../../../../H-i686-mingw32/nios2-elf/lib\libc.a(lib_a-exit.o) (__call_exitprocs)
c:/altera/13.1/nios2eds/bin/gnu/h-i686-mingw32/bin/../lib/gcc/nios2-elf/4.7.3/../../../../../H-i686-mingw32/nios2-elf/lib\libc.a(lib_a-dtoa.o)
                              c:/altera/13.1/nios2eds/bin/gnu/h-i686-mingw32/bin/../lib/gcc/nios2-elf/4.7.3/../../../../../H-i686-mingw32/nios2-elf/lib\libc.a(lib_a-vfprintf.o) (_dtoa_r)
c:/altera/13.1/nios2eds/bin/gnu/h-i686-mingw32/bin/../lib/gcc/nios2-elf/4.7.3/../../../../../H-i686-mingw32/nios2-elf/lib\libc.a(lib_a-fflush.o)
                              c:/altera/13.1/nios2eds/bin/gnu/h-i686-mingw32/bin/../lib/gcc/nios2-elf/4.7.3/../../../../../H-i686-mingw32/nios2-elf/lib\libc.a(lib_a-vfprintf.o) (_fflush_r)
c:/altera/13.1/nios2eds/bin/gnu/h-i686-mingw32/bin/../lib/gcc/nios2-elf/4.7.3/../../../../../H-i686-mingw32/nios2-elf/lib\libc.a(lib_a-findfp.o)
                              c:/altera/13.1/nios2eds/bin/gnu/h-i686-mingw32/bin/../lib/gcc/nios2-elf/4.7.3/../../../../../H-i686-mingw32/nios2-elf/lib\libc.a(lib_a-vfprintf.o) (__sinit)
c:/altera/13.1/nios2eds/bin/gnu/h-i686-mingw32/bin/../lib/gcc/nios2-elf/4.7.3/../../../../../H-i686-mingw32/nios2-elf/lib\libc.a(lib_a-freer.o)
                              c:/altera/13.1/nios2eds/bin/gnu/h-i686-mingw32/bin/../lib/gcc/nios2-elf/4.7.3/../../../../../H-i686-mingw32/nios2-elf/lib\libc.a(lib_a-malloc.o) (_free_r)
c:/altera/13.1/nios2eds/bin/gnu/h-i686-mingw32/bin/../lib/gcc/nios2-elf/4.7.3/../../../../../H-i686-mingw32/nios2-elf/lib\libc.a(lib_a-fvwrite.o)
                              c:/altera/13.1/nios2eds/bin/gnu/h-i686-mingw32/bin/../lib/gcc/nios2-elf/4.7.3/../../../../../H-i686-mingw32/nios2-elf/lib\libc.a(lib_a-puts.o) (__sfvwrite_r)
c:/altera/13.1/nios2eds/bin/gnu/h-i686-mingw32/bin/../lib/gcc/nios2-elf/4.7.3/../../../../../H-i686-mingw32/nios2-elf/lib\libc.a(lib_a-fwalk.o)
                              c:/altera/13.1/nios2eds/bin/gnu/h-i686-mingw32/bin/../lib/gcc/nios2-elf/4.7.3/../../../../../H-i686-mingw32/nios2-elf/lib\libc.a(lib_a-findfp.o) (_fwalk)
c:/altera/13.1/nios2eds/bin/gnu/h-i686-mingw32/bin/../lib/gcc/nios2-elf/4.7.3/../../../../../H-i686-mingw32/nios2-elf/lib\libc.a(lib_a-locale.o)
                              c:/altera/13.1/nios2eds/bin/gnu/h-i686-mingw32/bin/../lib/gcc/nios2-elf/4.7.3/../../../../../H-i686-mingw32/nios2-elf/lib\libc.a(lib_a-vfprintf.o) (_localeconv_r)
c:/altera/13.1/nios2eds/bin/gnu/h-i686-mingw32/bin/../lib/gcc/nios2-elf/4.7.3/../../../../../H-i686-mingw32/nios2-elf/lib\libc.a(lib_a-makebuf.o)
                              c:/altera/13.1/nios2eds/bin/gnu/h-i686-mingw32/bin/../lib/gcc/nios2-elf/4.7.3/../../../../../H-i686-mingw32/nios2-elf/lib\libc.a(lib_a-wsetup.o) (__smakebuf_r)
c:/altera/13.1/nios2eds/bin/gnu/h-i686-mingw32/bin/../lib/gcc/nios2-elf/4.7.3/../../../../../H-i686-mingw32/nios2-elf/lib\libc.a(lib_a-memchr.o)
                              c:/altera/13.1/nios2eds/bin/gnu/h-i686-mingw32/bin/../lib/gcc/nios2-elf/4.7.3/../../../../../H-i686-mingw32/nios2-elf/lib\libc.a(lib_a-vfprintf.o) (memchr)
c:/altera/13.1/nios2eds/bin/gnu/h-i686-mingw32/bin/../lib/gcc/nios2-elf/4.7.3/../../../../../H-i686-mingw32/nios2-elf/lib\libc.a(lib_a-memmove.o)
                              c:/altera/13.1/nios2eds/bin/gnu/h-i686-mingw32/bin/../lib/gcc/nios2-elf/4.7.3/../../../../../H-i686-mingw32/nios2-elf/lib\libc.a(lib_a-fvwrite.o) (memmove)
c:/altera/13.1/nios2eds/bin/gnu/h-i686-mingw32/bin/../lib/gcc/nios2-elf/4.7.3/../../../../../H-i686-mingw32/nios2-elf/lib\libc.a(lib_a-mprec.o)
                              c:/altera/13.1/nios2eds/bin/gnu/h-i686-mingw32/bin/../lib/gcc/nios2-elf/4.7.3/../../../../../H-i686-mingw32/nios2-elf/lib\libc.a(lib_a-dtoa.o) (_Balloc)
c:/altera/13.1/nios2eds/bin/gnu/h-i686-mingw32/bin/../lib/gcc/nios2-elf/4.7.3/../../../../../H-i686-mingw32/nios2-elf/lib\libc.a(lib_a-reallocr.o)
                              c:/altera/13.1/nios2eds/bin/gnu/h-i686-mingw32/bin/../lib/gcc/nios2-elf/4.7.3/../../../../../H-i686-mingw32/nios2-elf/lib\libc.a(lib_a-fvwrite.o) (_realloc_r)
c:/altera/13.1/nios2eds/bin/gnu/h-i686-mingw32/bin/../lib/gcc/nios2-elf/4.7.3/../../../../../H-i686-mingw32/nios2-elf/lib\libc.a(lib_a-s_isinfd.o)
                              c:/altera/13.1/nios2eds/bin/gnu/h-i686-mingw32/bin/../lib/gcc/nios2-elf/4.7.3/../../../../../H-i686-mingw32/nios2-elf/lib\libc.a(lib_a-vfprintf.o) (__isinfd)
c:/altera/13.1/nios2eds/bin/gnu/h-i686-mingw32/bin/../lib/gcc/nios2-elf/4.7.3/../../../../../H-i686-mingw32/nios2-elf/lib\libc.a(lib_a-s_isnand.o)
                              c:/altera/13.1/nios2eds/bin/gnu/h-i686-mingw32/bin/../lib/gcc/nios2-elf/4.7.3/../../../../../H-i686-mingw32/nios2-elf/lib\libc.a(lib_a-vfprintf.o) (__isnand)
c:/altera/13.1/nios2eds/bin/gnu/h-i686-mingw32/bin/../lib/gcc/nios2-elf/4.7.3/../../../../../H-i686-mingw32/nios2-elf/lib\libc.a(lib_a-stdio.o)
                              c:/altera/13.1/nios2eds/bin/gnu/h-i686-mingw32/bin/../lib/gcc/nios2-elf/4.7.3/../../../../../H-i686-mingw32/nios2-elf/lib\libc.a(lib_a-findfp.o) (__sread)
c:/altera/13.1/nios2eds/bin/gnu/h-i686-mingw32/bin/../lib/gcc/nios2-elf/4.7.3/../../../../../H-i686-mingw32/nios2-elf/lib\libc.a(lib_a-writer.o)
                              c:/altera/13.1/nios2eds/bin/gnu/h-i686-mingw32/bin/../lib/gcc/nios2-elf/4.7.3/../../../../../H-i686-mingw32/nios2-elf/lib\libc.a(lib_a-stdio.o) (_write_r)
c:/altera/13.1/nios2eds/bin/gnu/h-i686-mingw32/bin/../lib/gcc/nios2-elf/4.7.3/../../../../../H-i686-mingw32/nios2-elf/lib\libc.a(lib_a-callocr.o)
                              c:/altera/13.1/nios2eds/bin/gnu/h-i686-mingw32/bin/../lib/gcc/nios2-elf/4.7.3/../../../../../H-i686-mingw32/nios2-elf/lib\libc.a(lib_a-mprec.o) (_calloc_r)
c:/altera/13.1/nios2eds/bin/gnu/h-i686-mingw32/bin/../lib/gcc/nios2-elf/4.7.3/../../../../../H-i686-mingw32/nios2-elf/lib\libc.a(lib_a-closer.o)
                              c:/altera/13.1/nios2eds/bin/gnu/h-i686-mingw32/bin/../lib/gcc/nios2-elf/4.7.3/../../../../../H-i686-mingw32/nios2-elf/lib\libc.a(lib_a-stdio.o) (_close_r)
c:/altera/13.1/nios2eds/bin/gnu/h-i686-mingw32/bin/../lib/gcc/nios2-elf/4.7.3/../../../../../H-i686-mingw32/nios2-elf/lib\libc.a(lib_a-fclose.o)
                              c:/altera/13.1/nios2eds/bin/gnu/h-i686-mingw32/bin/../lib/gcc/nios2-elf/4.7.3/../../../../../H-i686-mingw32/nios2-elf/lib\libc.a(lib_a-findfp.o) (fclose)
c:/altera/13.1/nios2eds/bin/gnu/h-i686-mingw32/bin/../lib/gcc/nios2-elf/4.7.3/../../../../../H-i686-mingw32/nios2-elf/lib\libc.a(lib_a-fstatr.o)
                              c:/altera/13.1/nios2eds/bin/gnu/h-i686-mingw32/bin/../lib/gcc/nios2-elf/4.7.3/../../../../../H-i686-mingw32/nios2-elf/lib\libc.a(lib_a-makebuf.o) (_fstat_r)
c:/altera/13.1/nios2eds/bin/gnu/h-i686-mingw32/bin/../lib/gcc/nios2-elf/4.7.3/../../../../../H-i686-mingw32/nios2-elf/lib\libc.a(lib_a-isattyr.o)
                              c:/altera/13.1/nios2eds/bin/gnu/h-i686-mingw32/bin/../lib/gcc/nios2-elf/4.7.3/../../../../../H-i686-mingw32/nios2-elf/lib\libc.a(lib_a-makebuf.o) (_isatty_r)
c:/altera/13.1/nios2eds/bin/gnu/h-i686-mingw32/bin/../lib/gcc/nios2-elf/4.7.3/../../../../../H-i686-mingw32/nios2-elf/lib\libc.a(lib_a-lseekr.o)
                              c:/altera/13.1/nios2eds/bin/gnu/h-i686-mingw32/bin/../lib/gcc/nios2-elf/4.7.3/../../../../../H-i686-mingw32/nios2-elf/lib\libc.a(lib_a-stdio.o) (_lseek_r)
c:/altera/13.1/nios2eds/bin/gnu/h-i686-mingw32/bin/../lib/gcc/nios2-elf/4.7.3/../../../../../H-i686-mingw32/nios2-elf/lib\libc.a(lib_a-readr.o)
                              c:/altera/13.1/nios2eds/bin/gnu/h-i686-mingw32/bin/../lib/gcc/nios2-elf/4.7.3/../../../../../H-i686-mingw32/nios2-elf/lib\libc.a(lib_a-stdio.o) (_read_r)
c:/altera/13.1/nios2eds/bin/gnu/h-i686-mingw32/bin/../lib/gcc/nios2-elf/4.7.3\libgcc.a(_udivdi3.o)
                              c:/altera/13.1/nios2eds/bin/gnu/h-i686-mingw32/bin/../lib/gcc/nios2-elf/4.7.3/../../../../../H-i686-mingw32/nios2-elf/lib\libc.a(lib_a-vfprintf.o) (__udivdi3)
c:/altera/13.1/nios2eds/bin/gnu/h-i686-mingw32/bin/../lib/gcc/nios2-elf/4.7.3\libgcc.a(_umoddi3.o)
                              c:/altera/13.1/nios2eds/bin/gnu/h-i686-mingw32/bin/../lib/gcc/nios2-elf/4.7.3/../../../../../H-i686-mingw32/nios2-elf/lib\libc.a(lib_a-vfprintf.o) (__umoddi3)
c:/altera/13.1/nios2eds/bin/gnu/h-i686-mingw32/bin/../lib/gcc/nios2-elf/4.7.3\libgcc.a(_addsub_df.o)
                              c:/altera/13.1/nios2eds/bin/gnu/h-i686-mingw32/bin/../lib/gcc/nios2-elf/4.7.3/../../../../../H-i686-mingw32/nios2-elf/lib\libc.a(lib_a-dtoa.o) (__adddf3)
c:/altera/13.1/nios2eds/bin/gnu/h-i686-mingw32/bin/../lib/gcc/nios2-elf/4.7.3\libgcc.a(_mul_df.o)
                              c:/altera/13.1/nios2eds/bin/gnu/h-i686-mingw32/bin/../lib/gcc/nios2-elf/4.7.3/../../../../../H-i686-mingw32/nios2-elf/lib\libc.a(lib_a-dtoa.o) (__muldf3)
c:/altera/13.1/nios2eds/bin/gnu/h-i686-mingw32/bin/../lib/gcc/nios2-elf/4.7.3\libgcc.a(_div_df.o)
                              c:/altera/13.1/nios2eds/bin/gnu/h-i686-mingw32/bin/../lib/gcc/nios2-elf/4.7.3/../../../../../H-i686-mingw32/nios2-elf/lib\libc.a(lib_a-dtoa.o) (__divdf3)
c:/altera/13.1/nios2eds/bin/gnu/h-i686-mingw32/bin/../lib/gcc/nios2-elf/4.7.3\libgcc.a(_eq_df.o)
                              c:/altera/13.1/nios2eds/bin/gnu/h-i686-mingw32/bin/../lib/gcc/nios2-elf/4.7.3/../../../../../H-i686-mingw32/nios2-elf/lib\libc.a(lib_a-vfprintf.o) (__eqdf2)
c:/altera/13.1/nios2eds/bin/gnu/h-i686-mingw32/bin/../lib/gcc/nios2-elf/4.7.3\libgcc.a(_ne_df.o)
                              c:/altera/13.1/nios2eds/bin/gnu/h-i686-mingw32/bin/../lib/gcc/nios2-elf/4.7.3/../../../../../H-i686-mingw32/nios2-elf/lib\libc.a(lib_a-vfprintf.o) (__nedf2)
c:/altera/13.1/nios2eds/bin/gnu/h-i686-mingw32/bin/../lib/gcc/nios2-elf/4.7.3\libgcc.a(_gt_df.o)
                              c:/altera/13.1/nios2eds/bin/gnu/h-i686-mingw32/bin/../lib/gcc/nios2-elf/4.7.3/../../../../../H-i686-mingw32/nios2-elf/lib\libc.a(lib_a-dtoa.o) (__gtdf2)
c:/altera/13.1/nios2eds/bin/gnu/h-i686-mingw32/bin/../lib/gcc/nios2-elf/4.7.3\libgcc.a(_ge_df.o)
                              c:/altera/13.1/nios2eds/bin/gnu/h-i686-mingw32/bin/../lib/gcc/nios2-elf/4.7.3/../../../../../H-i686-mingw32/nios2-elf/lib\libc.a(lib_a-dtoa.o) (__gedf2)
c:/altera/13.1/nios2eds/bin/gnu/h-i686-mingw32/bin/../lib/gcc/nios2-elf/4.7.3\libgcc.a(_lt_df.o)
                              c:/altera/13.1/nios2eds/bin/gnu/h-i686-mingw32/bin/../lib/gcc/nios2-elf/4.7.3/../../../../../H-i686-mingw32/nios2-elf/lib\libc.a(lib_a-vfprintf.o) (__ltdf2)
c:/altera/13.1/nios2eds/bin/gnu/h-i686-mingw32/bin/../lib/gcc/nios2-elf/4.7.3\libgcc.a(_si_to_df.o)
                              c:/altera/13.1/nios2eds/bin/gnu/h-i686-mingw32/bin/../lib/gcc/nios2-elf/4.7.3/../../../../../H-i686-mingw32/nios2-elf/lib\libc.a(lib_a-dtoa.o) (__floatsidf)
c:/altera/13.1/nios2eds/bin/gnu/h-i686-mingw32/bin/../lib/gcc/nios2-elf/4.7.3\libgcc.a(_df_to_si.o)
                              c:/altera/13.1/nios2eds/bin/gnu/h-i686-mingw32/bin/../lib/gcc/nios2-elf/4.7.3/../../../../../H-i686-mingw32/nios2-elf/lib\libc.a(lib_a-dtoa.o) (__fixdfsi)
c:/altera/13.1/nios2eds/bin/gnu/h-i686-mingw32/bin/../lib/gcc/nios2-elf/4.7.3\libgcc.a(_thenan_df.o)
                              c:/altera/13.1/nios2eds/bin/gnu/h-i686-mingw32/bin/../lib/gcc/nios2-elf/4.7.3\libgcc.a(_addsub_df.o) (__thenan_df)
c:/altera/13.1/nios2eds/bin/gnu/h-i686-mingw32/bin/../lib/gcc/nios2-elf/4.7.3\libgcc.a(_usi_to_df.o)
                              c:/altera/13.1/nios2eds/bin/gnu/h-i686-mingw32/bin/../lib/gcc/nios2-elf/4.7.3/../../../../../H-i686-mingw32/nios2-elf/lib\libc.a(lib_a-dtoa.o) (__floatunsidf)
c:/altera/13.1/nios2eds/bin/gnu/h-i686-mingw32/bin/../lib/gcc/nios2-elf/4.7.3\libgcc.a(lib2-divmod.o)
                              c:/altera/13.1/nios2eds/bin/gnu/h-i686-mingw32/bin/../lib/gcc/nios2-elf/4.7.3/../../../../../H-i686-mingw32/nios2-elf/lib\libc.a(lib_a-vfprintf.o) (__divsi3)
c:/altera/13.1/nios2eds/bin/gnu/h-i686-mingw32/bin/../lib/gcc/nios2-elf/4.7.3\libgcc.a(_muldi3.o)
                              c:/altera/13.1/nios2eds/bin/gnu/h-i686-mingw32/bin/../lib/gcc/nios2-elf/4.7.3\libgcc.a(_mul_df.o) (__muldi3)
c:/altera/13.1/nios2eds/bin/gnu/h-i686-mingw32/bin/../lib/gcc/nios2-elf/4.7.3\libgcc.a(_clz.o)
                              c:/altera/13.1/nios2eds/bin/gnu/h-i686-mingw32/bin/../lib/gcc/nios2-elf/4.7.3\libgcc.a(_udivdi3.o) (__clz_tab)
c:/altera/13.1/nios2eds/bin/gnu/h-i686-mingw32/bin/../lib/gcc/nios2-elf/4.7.3\libgcc.a(_clzsi2.o)
                              c:/altera/13.1/nios2eds/bin/gnu/h-i686-mingw32/bin/../lib/gcc/nios2-elf/4.7.3\libgcc.a(_si_to_df.o) (__clzsi2)
c:/altera/13.1/nios2eds/bin/gnu/h-i686-mingw32/bin/../lib/gcc/nios2-elf/4.7.3\libgcc.a(_pack_df.o)
                              c:/altera/13.1/nios2eds/bin/gnu/h-i686-mingw32/bin/../lib/gcc/nios2-elf/4.7.3\libgcc.a(_addsub_df.o) (__pack_d)
c:/altera/13.1/nios2eds/bin/gnu/h-i686-mingw32/bin/../lib/gcc/nios2-elf/4.7.3\libgcc.a(_unpack_df.o)
                              c:/altera/13.1/nios2eds/bin/gnu/h-i686-mingw32/bin/../lib/gcc/nios2-elf/4.7.3\libgcc.a(_addsub_df.o) (__unpack_d)
c:/altera/13.1/nios2eds/bin/gnu/h-i686-mingw32/bin/../lib/gcc/nios2-elf/4.7.3\libgcc.a(_fpcmp_parts_df.o)
                              c:/altera/13.1/nios2eds/bin/gnu/h-i686-mingw32/bin/../lib/gcc/nios2-elf/4.7.3\libgcc.a(_eq_df.o) (__fpcmp_parts_d)
c:/altera/13.1/nios2eds/bin/gnu/h-i686-mingw32/bin/../lib/gcc/nios2-elf/4.7.3\libgcc.a(_lshrdi3.o)
                              c:/altera/13.1/nios2eds/bin/gnu/h-i686-mingw32/bin/../lib/gcc/nios2-elf/4.7.3\libgcc.a(_pack_df.o) (__lshrdi3)
c:/altera/13.1/nios2eds/bin/gnu/h-i686-mingw32/bin/../lib/gcc/nios2-elf/4.7.3\libgcc.a(_ashldi3.o)
                              c:/altera/13.1/nios2eds/bin/gnu/h-i686-mingw32/bin/../lib/gcc/nios2-elf/4.7.3\libgcc.a(_pack_df.o) (__ashldi3)
c:/altera/13.1/nios2eds/bin/gnu/h-i686-mingw32/bin/../lib/gcc/nios2-elf/4.7.3/../../../../../H-i686-mingw32/nios2-elf/lib\libnosys.a(nosys_sbrk.o)
                              c:/altera/13.1/nios2eds/bin/gnu/h-i686-mingw32/bin/../lib/gcc/nios2-elf/4.7.3/../../../../../H-i686-mingw32/nios2-elf/lib\libc.a(lib_a-sbrkr.o) (sbrk)
c:/altera/13.1/nios2eds/bin/gnu/h-i686-mingw32/bin/../lib/gcc/nios2-elf/4.7.3/../../../../../H-i686-mingw32/nios2-elf/lib\libnosys.a(nosys_close.o)
                              alt_main.o (close)
c:/altera/13.1/nios2eds/bin/gnu/h-i686-mingw32/bin/../lib/gcc/nios2-elf/4.7.3/../../../../../H-i686-mingw32/nios2-elf/lib\libnosys.a(nosys_crt0.o)
                              c:/altera/13.1/nios2eds/bin/gnu/h-i686-mingw32/bin/../lib/gcc/nios2-elf/4.7.3/../../../../../H-i686-mingw32/nios2-elf/lib/crt0.o (__start_2)
c:/altera/13.1/nios2eds/bin/gnu/h-i686-mingw32/bin/../lib/gcc/nios2-elf/4.7.3/../../../../../H-i686-mingw32/nios2-elf/lib\libnosys.a(nosys_exit.o)
                              c:/altera/13.1/nios2eds/bin/gnu/h-i686-mingw32/bin/../lib/gcc/nios2-elf/4.7.3/../../../../../H-i686-mingw32/nios2-elf/lib\libc.a(lib_a-exit.o) (_exit)
c:/altera/13.1/nios2eds/bin/gnu/h-i686-mingw32/bin/../lib/gcc/nios2-elf/4.7.3/../../../../../H-i686-mingw32/nios2-elf/lib\libnosys.a(nosys_fstat.o)
                              c:/altera/13.1/nios2eds/bin/gnu/h-i686-mingw32/bin/../lib/gcc/nios2-elf/4.7.3/../../../../../H-i686-mingw32/nios2-elf/lib\libc.a(lib_a-fstatr.o) (fstat)
c:/altera/13.1/nios2eds/bin/gnu/h-i686-mingw32/bin/../lib/gcc/nios2-elf/4.7.3/../../../../../H-i686-mingw32/nios2-elf/lib\libnosys.a(nosys_isatty.o)
                              c:/altera/13.1/nios2eds/bin/gnu/h-i686-mingw32/bin/../lib/gcc/nios2-elf/4.7.3/../../../../../H-i686-mingw32/nios2-elf/lib\libc.a(lib_a-isattyr.o) (isatty)
c:/altera/13.1/nios2eds/bin/gnu/h-i686-mingw32/bin/../lib/gcc/nios2-elf/4.7.3/../../../../../H-i686-mingw32/nios2-elf/lib\libnosys.a(nosys_lseek.o)
                              c:/altera/13.1/nios2eds/bin/gnu/h-i686-mingw32/bin/../lib/gcc/nios2-elf/4.7.3/../../../../../H-i686-mingw32/nios2-elf/lib\libc.a(lib_a-lseekr.o) (lseek)
c:/altera/13.1/nios2eds/bin/gnu/h-i686-mingw32/bin/../lib/gcc/nios2-elf/4.7.3/../../../../../H-i686-mingw32/nios2-elf/lib\libnosys.a(nosys_open.o)
                              alt_io_redirect.o (open)
c:/altera/13.1/nios2eds/bin/gnu/h-i686-mingw32/bin/../lib/gcc/nios2-elf/4.7.3/../../../../../H-i686-mingw32/nios2-elf/lib\libnosys.a(nosys_read.o)
                              c:/altera/13.1/nios2eds/bin/gnu/h-i686-mingw32/bin/../lib/gcc/nios2-elf/4.7.3/../../../../../H-i686-mingw32/nios2-elf/lib\libc.a(lib_a-readr.o) (read)
c:/altera/13.1/nios2eds/bin/gnu/h-i686-mingw32/bin/../lib/gcc/nios2-elf/4.7.3/../../../../../H-i686-mingw32/nios2-elf/lib\libnosys.a(nosys_write.o)
                              c:/altera/13.1/nios2eds/bin/gnu/h-i686-mingw32/bin/../lib/gcc/nios2-elf/4.7.3/../../../../../H-i686-mingw32/nios2-elf/lib\libc.a(lib_a-writer.o) (write)
c:/altera/13.1/nios2eds/bin/gnu/h-i686-mingw32/bin/../lib/gcc/nios2-elf/4.7.3/../../../../../H-i686-mingw32/nios2-elf/lib\libnosys.a(_zero_bss.o)
                              c:/altera/13.1/nios2eds/bin/gnu/h-i686-mingw32/bin/../lib/gcc/nios2-elf/4.7.3/../../../../../H-i686-mingw32/nios2-elf/lib\libnosys.a(nosys_crt0.o) (_zero_bss)
c:/altera/13.1/nios2eds/bin/gnu/h-i686-mingw32/bin/../lib/gcc/nios2-elf/4.7.3/../../../../../H-i686-mingw32/nios2-elf/lib\libstack.a(_stack.o)
                              c:/altera/13.1/nios2eds/bin/gnu/h-i686-mingw32/bin/../lib/gcc/nios2-elf/4.7.3/../../../../../H-i686-mingw32/nios2-elf/lib/crt0.o (nasys_stack_top)

Allocating common symbols
Common symbol       size              file

errno               0x4               c:/altera/13.1/nios2eds/bin/gnu/h-i686-mingw32/bin/../lib/gcc/nios2-elf/4.7.3/../../../../../H-i686-mingw32/nios2-elf/lib\libc.a(lib_a-int_errno.o)
_atexit0            0x190             c:/altera/13.1/nios2eds/bin/gnu/h-i686-mingw32/bin/../lib/gcc/nios2-elf/4.7.3/../../../../../H-i686-mingw32/nios2-elf/lib\libc.a(lib_a-atexit.o)

Memory Configuration

Name             Origin             Length             Attributes
sdram_UNUSED     0x00000000         0x00000020
sdram_BEFORE_EXCEPTION 0x00000000         0x00000020
sdram            0x00000020         0x01ffffe0
descriptor_memory 0x02001000         0x00001000
ext_flash        0x04000000         0x00800000
reset            0x05000000         0x00000020
sram_reset       0x05000000         0x00000020
sram             0x05000020         0x001fffe0
onchip_memory2   0x0a000000         0x00020000
*default*        0x00000000         0xffffffff

Linker script and memory map

LOAD start.o
LOAD c:/altera/13.1/nios2eds/bin/gnu/h-i686-mingw32/bin/../lib/gcc/nios2-elf/4.7.3/../../../../../H-i686-mingw32/nios2-elf/lib/crt0.o
LOAD altera_avalon_sgdma.o
LOAD altera_avalon_tse_system_info.o
LOAD altera_avalon_tse.o
LOAD altera_vic.o
LOAD altera_vic_irq_init.o
LOAD altera_vic_isr_register.o
LOAD altera_vic_sw_intr.o
LOAD altera_vic_set_level.o
LOAD alt_usleep.o
LOAD alt_busy_sleep.o
LOAD alt_dcache_flush.o
LOAD alt_irq_register.o
LOAD alt_iic.o
LOAD alt_remap_uncached.o
LOAD alt_uncached_malloc.o
LOAD alt_do_ctors.o
LOAD alt_do_dtors.o
LOAD alt_dev.o
LOAD alt_dev_llist_insert.o
LOAD alt_errno.o
LOAD alt_find_dev.o
LOAD alt_io_redirect.o
LOAD alt_main.o
LOAD alt_malloc_lock.o
LOAD alt_release_fd.o
LOAD alt_sys_init.o
LOAD api_lib.o
LOAD api_msg.o
LOAD err.o
LOAD netbuf.o
LOAD netdb.o
LOAD netifapi.o
LOAD sockets.o
LOAD tcpip.o
LOAD mem.o
LOAD memp.o
LOAD netif.o
LOAD pbuf.o
LOAD raw.o
LOAD stats.o
LOAD sys.o
LOAD tcp.o
LOAD tcp_in.o
LOAD tcp_out.o
LOAD udp.o
LOAD dns.o
LOAD init.o
LOAD dhcp.o
LOAD def.o
LOAD timers.o
LOAD asn1_dec.o
LOAD asn1_enc.o
LOAD mib2.o
LOAD mib_structs.o
LOAD msg_in.o
LOAD msg_out.o
LOAD autoip.o
LOAD icmp.o
LOAD igmp.o
LOAD inet.o
LOAD inet_chksum.o
LOAD ip.o
LOAD ip_addr.o
LOAD ip_frag.o
LOAD slipif.o
LOAD etharp.o
LOAD ethernetif.o
LOAD auth.o
LOAD fsm.o
LOAD ipcp.o
LOAD lcp.o
LOAD magic.o
LOAD ppp.o
LOAD vj.o
LOAD chap.o
LOAD chpms.o
LOAD md5.o
LOAD pap.o
LOAD ppp_oe.o
LOAD randm.o
LOAD alteraTseEthernetif.o
LOAD fs.o
LOAD fsdata.o
LOAD httpd.o
LOAD lwip_tse_mac.o
LOAD tse_my_system.o
LOAD lwip_test.o
LOAD jtag_uart.o
LOAD banner.o
LOAD syslog.o
LOAD serial.o
LOAD log_output.o
LOAD vasyslog.o
LOAD t_perror.o
LOAD strerror.o
LOAD Os_Lcfg.o
LOAD libkernel.a
LOAD c:/altera/13.1/nios2eds/bin/gnu/h-i686-mingw32/bin/../lib/gcc/nios2-elf/4.7.3\libgcc.a
LOAD c:/altera/13.1/nios2eds/bin/gnu/h-i686-mingw32/bin/../lib/gcc/nios2-elf/4.7.3/../../../../../H-i686-mingw32/nios2-elf/lib\libc.a
LOAD c:/altera/13.1/nios2eds/bin/gnu/h-i686-mingw32/bin/../lib/gcc/nios2-elf/4.7.3\libgcc.a
START GROUP
LOAD c:/altera/13.1/nios2eds/bin/gnu/h-i686-mingw32/bin/../lib/gcc/nios2-elf/4.7.3/../../../../../H-i686-mingw32/nios2-elf/lib\libc.a
LOAD c:/altera/13.1/nios2eds/bin/gnu/h-i686-mingw32/bin/../lib/gcc/nios2-elf/4.7.3\libgcc.a
LOAD c:/altera/13.1/nios2eds/bin/gnu/h-i686-mingw32/bin/../lib/gcc/nios2-elf/4.7.3/../../../../../H-i686-mingw32/nios2-elf/lib\libnosys.a
LOAD c:/altera/13.1/nios2eds/bin/gnu/h-i686-mingw32/bin/../lib/gcc/nios2-elf/4.7.3/../../../../../H-i686-mingw32/nios2-elf/lib\libstack.a
END GROUP
LOAD c:/altera/13.1/nios2eds/bin/gnu/h-i686-mingw32/bin/../lib/gcc/nios2-elf/4.7.3\libgcc.a
                0x00000000                __alt_mem_ext_flash = 0x0
                0x00800000                __alt_mem_ext_ram = 0x800000
                0x00900000                __alt_mem_onchip_ram_64_kbytes = 0x900000
                0x05000000                __alt_mem_sdram = 0x5000000
                0x00000000                PROVIDE (hardware_init_hook, 0x0)
                0x00000000                PROVIDE (software_init_hook, 0x0)
                0x00000000                PROVIDE (software_term_hook, 0x0)
                0x02000000                PROVIDE (__alt_data_end, 0x2000000)
                0x00000000                PROVIDE (StartupHook, 0x0)
                0x00000000                PROVIDE (ShutdownHook, 0x0)
                0x00000000                PROVIDE (PreTaskHook, 0x0)
                0x00000000                PROVIDE (PostTaskHook, 0x0)
                0x00000000                PROVIDE (ErrorHook, 0x0)
                0x00000000                PROVIDE (ProtectionHook, 0x0)

.entry          0x05000000       0x20
 *(.entry)
 .entry         0x05000000       0x20 start.o
                0x05000000                __reset

.exceptions     0x00000020      0x6c0
                0x00000020                PROVIDE (__ram_exceptions_start, ABSOLUTE (.))
                0x00000020                . = ALIGN (0x20)
 *(.irq)
 *(.exceptions.entry.label)
 *(.exceptions.entry.user)
 *(.exceptions.entry.ecc_fatal)
 *(.exceptions.entry)
 *(.exceptions.irqtest.user)
 *(.exceptions.irqtest)
 *(.exceptions.irqhandler.user)
 *(.exceptions.irqhandler)
 *(.exceptions.irqreturn.user)
 *(.exceptions.irqreturn)
 *(.exceptions.notirq.label)
 *(.exceptions.notirq.user)
 *(.exceptions.notirq)
 *(.exceptions.soft.user)
 *(.exceptions.soft)
 *(.exceptions.unknown.user)
 *(.exceptions.unknown)
 *(.exceptions.exit.label)
 *(.exceptions.exit.user)
 *(.exceptions.exit)
 *(.exceptions)
 .exceptions    0x00000020      0x6c0 libkernel.a(prc_support.o)
                0x00000020                exception_entry
                0x000001e0                interrupt
                0x000004c0                dispatch
                0x00000560                start_dispatch
                0x000005a0                exit_and_dispatch
                0x000006e0                PROVIDE (__ram_exceptions_end, ABSOLUTE (.))
                0x00000020                PROVIDE (__flash_exceptions_start, LOADADDR (.exceptions))

.text           0x000006e0    0x240d0
                0x000006e0                PROVIDE (stext, ABSOLUTE (.))
 *(.interp)
 *(.hash)
 *(.dynsym)
 *(.dynstr)
 *(.gnu.version)
 *(.gnu.version_d)
 *(.gnu.version_r)
 *(.rel.init)
 *(.rela.init)
 *(.rel.text .rel.text.* .rel.gnu.linkonce.t.*)
 *(.rela.text .rela.text.* .rela.gnu.linkonce.t.*)
 *(.rel.fini)
 *(.rela.fini)
 *(.rel.rodata .rel.rodata.* .rel.gnu.linkonce.r.*)
 *(.rela.rodata .rela.rodata.* .rela.gnu.linkonce.r.*)
 *(.rel.data .rel.data.* .rel.gnu.linkonce.d.*)
 *(.rela.data .rela.data.* .rela.gnu.linkonce.d.*)
 *(.rel.tdata .rel.tdata.* .rel.gnu.linkonce.td.*)
 *(.rela.tdata .rela.tdata.* .rela.gnu.linkonce.td.*)
 *(.rel.tbss .rel.tbss.* .rel.gnu.linkonce.tb.*)
 *(.rela.tbss .rela.tbss.* .rela.gnu.linkonce.tb.*)
 *(.rel.ctors)
 *(.rela.ctors)
 *(.rel.dtors)
 *(.rela.dtors)
 *(.rel.got)
 *(.rela.got)
 *(.rel.sdata .rel.sdata.* .rel.gnu.linkonce.s.*)
 *(.rela.sdata .rela.sdata.* .rela.gnu.linkonce.s.*)
 *(.rel.sbss .rel.sbss.* .rel.gnu.linkonce.sb.*)
 *(.rela.sbss .rela.sbss.* .rela.gnu.linkonce.sb.*)
 *(.rel.sdata2 .rel.sdata2.* .rel.gnu.linkonce.s2.*)
 *(.rela.sdata2 .rela.sdata2.* .rela.gnu.linkonce.s2.*)
 *(.rel.sbss2 .rel.sbss2.* .rel.gnu.linkonce.sb2.*)
 *(.rela.sbss2 .rela.sbss2.* .rela.gnu.linkonce.sb2.*)
 *(.rel.bss .rel.bss.* .rel.gnu.linkonce.b.*)
 *(.rela.bss .rela.bss.* .rela.gnu.linkonce.b.*)
 *(.rel.plt)
 *(.rela.plt)
 *(.rel.dyn)
 *(.init)
 *(.plt)
 *(.text .stub .text.* .gnu.linkonce.t.*)
 .text          0x000006e0       0x60 start.o
                0x000006e0                start
 .text          0x00000740       0x30 c:/altera/13.1/nios2eds/bin/gnu/h-i686-mingw32/bin/../lib/gcc/nios2-elf/4.7.3/../../../../../H-i686-mingw32/nios2-elf/lib/crt0.o
                0x00000740                _start
 *fill*         0x00000770       0x10 3a880100
 .text          0x00000780      0x7a0 altera_avalon_sgdma.o
                0x00000800                alt_avalon_sgdma_do_async_transfer
                0x000008a0                alt_avalon_sgdma_do_sync_transfer
                0x00000940                alt_avalon_sgdma_register_callback
                0x00000960                alt_avalon_sgdma_start
                0x00000980                alt_avalon_sgdma_stop
                0x000009a0                alt_avalon_sgdma_check_descriptor_status
                0x000009e0                alt_avalon_sgdma_open
                0x00000a60                alt_avalon_sgdma_enable_desc_poll
                0x00000aa0                alt_avalon_sgdma_disable_desc_poll
                0x00000ac0                alt_avalon_sgdma_construct_descriptor_burst
                0x00000c40                alt_avalon_sgdma_construct_descriptor
                0x00000ca0                alt_avalon_sgdma_construct_mem_to_stream_desc_burst
                0x00000d00                alt_avalon_sgdma_construct_mem_to_stream_desc
                0x00000d40                alt_avalon_sgdma_construct_stream_to_mem_desc_burst
                0x00000da0                alt_avalon_sgdma_construct_stream_to_mem_desc
                0x00000de0                alt_avalon_sgdma_construct_mem_to_mem_desc_burst
                0x00000e40                alt_avalon_sgdma_construct_mem_to_mem_desc
                0x00000e80                alt_avalon_sgdma_init
 .text          0x00000f20        0x0 altera_avalon_tse_system_info.o
 .text          0x00000f20     0x3580 altera_avalon_tse.o
                0x00000f20                DP83848C_link_status_read
                0x00000f60                marvell_phy_cfg
                0x00000fe0                no_printf
                0x00001000                tse_mac_initTransInfo2
                0x00001020                tse_mac_sTxWrite
                0x000010c0                tse_mac_aRxRead
                0x00001140                tse_mac_SwReset
                0x00001180                tse_mac_setMIImode
                0x000011a0                tse_mac_setGMIImode
                0x000011c0                alt_tse_phy_add_profile
                0x00001300                alt_tse_system_add_sys
                0x00001660                alt_tse_sys_enable_mdio_sharing
                0x00001780                alt_tse_get_system_index
                0x000017c0                alt_tse_get_mac_group_index
                0x00001820                alt_tse_get_mac_info_index
                0x00001880                alt_tse_get_mac_info
                0x00001900                alt_tse_mac_set_speed
                0x00001980                alt_tse_mac_set_duplex
                0x000019e0                alt_tse_phy_rd_mdio_addr
                0x00001a00                alt_tse_phy_wr_mdio_addr
                0x00001a40                alt_tse_phy_wr_mdio_reg
                0x00001ae0                alt_tse_phy_rd_mdio_reg
                0x00001b60                alt_tse_phy_add_profile_default
                0x00001d80                alt_tse_phy_print_profile
                0x00001da0                alt_tse_mac_group_init
                0x00001fc0                alt_tse_mac_associate_phy
                0x00002260                alt_tse_phy_cfg_pcs
                0x000023c0                alt_tse_phy_restart_an
                0x00002620                alt_tse_phy_check_link
                0x00002820                alt_tse_phy_get_cap
                0x00002b80                alt_tse_phy_set_adv_1000
                0x00002cc0                alt_tse_phy_set_adv_100
                0x00002e60                alt_tse_phy_set_adv_10
                0x00002fa0                alt_tse_mac_get_phy
                0x000032a0                alt_tse_phy_init
                0x000033c0                getPHYSpeed
                0x00003960                alt_tse_phy_get_common_speed
                0x00003c80                alt_tse_mac_get_common_speed
                0x00003d00                alt_tse_phy_set_common_speed
                0x000041e0                alt_tse_mac_set_common_speed
                0x00004260                marvell_cfg_gmii
                0x00004320                marvell_cfg_sgmii
                0x000043e0                marvell_cfg_rgmii
 .text          0x000044a0      0x100 altera_vic.o
                0x000044a0                alt_ic_irq_enable
                0x00004500                alt_ic_irq_disable
                0x00004560                alt_ic_irq_enabled
 .text          0x000045a0       0xc0 altera_vic_irq_init.o
                0x000045a0                alt_vic_irq_init
 .text          0x00004660       0xa0 altera_vic_isr_register.o
                0x00004660                alt_ic_isr_register
 .text          0x00004700       0xc0 altera_vic_sw_intr.o
                0x00004700                alt_vic_sw_interrupt_set
                0x00004740                alt_vic_sw_interrupt_clear
                0x00004780                alt_vic_sw_interrupt_status
 .text          0x000047c0       0xa0 altera_vic_set_level.o
                0x000047c0                alt_vic_irq_set_level
 .text          0x00004860       0x20 alt_usleep.o
                0x00004860                usleep
 .text          0x00004880       0x60 alt_busy_sleep.o
                0x00004880                alt_busy_sleep
 .text          0x000048e0       0x20 alt_dcache_flush.o
                0x000048e0                alt_dcache_flush
 .text          0x00004900        0x0 alt_irq_register.o
 .text          0x00004900        0x0 alt_iic.o
 .text          0x00004900       0x40 alt_remap_uncached.o
                0x00004900                alt_remap_uncached
 .text          0x00004940       0x60 alt_uncached_malloc.o
                0x00004940                alt_uncached_malloc
 .text          0x000049a0       0x80 alt_do_ctors.o
                0x000049a0                _do_ctors
 .text          0x00004a20       0x80 alt_do_dtors.o
                0x00004a20                _do_dtors
 .text          0x00004aa0       0x20 alt_dev.o
 .text          0x00004ac0       0x80 alt_dev_llist_insert.o
                0x00004ac0                alt_dev_llist_insert
 .text          0x00004b40        0x0 alt_errno.o
 .text          0x00004b40       0xa0 alt_find_dev.o
                0x00004b40                alt_find_dev
 .text          0x00004be0      0x100 alt_io_redirect.o
                0x00004c60                alt_io_redirect
 .text          0x00004ce0       0x60 alt_main.o
                0x00004ce0                alt_main
 .text          0x00004d40       0x40 alt_malloc_lock.o
                0x00004d40                __malloc_lock
                0x00004d60                __malloc_unlock
 .text          0x00004d80       0x40 alt_release_fd.o
                0x00004d80                alt_release_fd
 .text          0x00004dc0       0x40 alt_sys_init.o
                0x00004dc0                alt_sys_init
 .text          0x00004e00        0x0 api_lib.o
 .text          0x00004e00        0x0 api_msg.o
 .text          0x00004e00        0x0 err.o
 .text          0x00004e00        0x0 netbuf.o
 .text          0x00004e00        0x0 netdb.o
 .text          0x00004e00        0x0 netifapi.o
 .text          0x00004e00        0x0 sockets.o
 .text          0x00004e00        0x0 tcpip.o
 .text          0x00004e00      0x660 mem.o
                0x00004e00                mem_init
                0x00004e60                mem_free
                0x00005040                mem_trim
                0x000051c0                mem_malloc
                0x000053e0                mem_calloc
 .text          0x00005460      0x260 memp.o
                0x00005460                memp_init
                0x00005540                memp_malloc
                0x00005640                memp_free
 .text          0x000056c0      0x500 netif.o
                0x000056c0                netif_init
                0x000056e0                netif_find
                0x00005740                netif_set_ipaddr
                0x00005840                netif_set_addr
                0x000058c0                netif_add
                0x000059a0                netif_set_gw
                0x000059c0                netif_set_netmask
                0x000059e0                netif_set_default
                0x00005a00                netif_set_up
                0x00005a40                netif_set_down
                0x00005a80                netif_remove
                0x00005b20                netif_set_link_up
                0x00005ba0                netif_set_link_down
 .text          0x00005bc0     0x1160 pbuf.o
                0x00005bc0                pbuf_free_ooseq
                0x00005c20                pbuf_header
                0x00005d60                pbuf_free
                0x00005ea0                pbuf_realloc
                0x00006020                pbuf_alloc
                0x00006380                pbuf_clen
                0x000063a0                pbuf_ref
                0x000063c0                pbuf_cat
                0x00006480                pbuf_chain
                0x000064c0                pbuf_dechain
                0x000065a0                pbuf_copy
                0x000067a0                pbuf_copy_partial
                0x000068e0                pbuf_take
                0x00006a40                pbuf_coalesce
                0x00006ae0                pbuf_get_at
                0x00006b40                pbuf_memcmp
                0x00006c00                pbuf_memfind
                0x00006ca0                pbuf_strstr
 .text          0x00006d20      0x440 raw.o
                0x00006d20                raw_input
                0x00006e20                raw_bind
                0x00006e60                raw_connect
                0x00006ea0                raw_recv
                0x00006ec0                raw_sendto
                0x00007060                raw_send
                0x00007080                raw_remove
                0x000070e0                raw_new
 .text          0x00007160       0x20 stats.o
                0x00007160                stats_init
 .text          0x00007180        0x0 sys.o
 .text          0x00007180     0x1be0 tcp.o
                0x00007240                tcp_init
                0x00007260                tcp_bind
                0x00007380                tcp_listen_with_backlog
                0x000074c0                tcp_update_rcv_ann_wnd
                0x00007580                tcp_recved
                0x00007660                tcp_seg_free
                0x000076c0                tcp_segs_free
                0x00007700                tcp_setprio
                0x00007720                tcp_seg_copy
                0x00007780                tcp_arg
                0x000077a0                tcp_recv
                0x00007800                tcp_sent
                0x00007860                tcp_err
                0x000078c0                tcp_accept
                0x000078e0                tcp_poll
                0x00007940                tcp_pcb_purge
                0x000079c0                tcp_slowtmr
                0x00007fa0                tcp_pcb_remove
                0x00008100                tcp_abandon
                0x00008280                tcp_abort
                0x000082a0                tcp_alloc
                0x00008460                tcp_new
                0x00008720                tcp_shutdown
                0x000087e0                tcp_close
                0x00008800                tcp_recv_null
                0x00008860                tcp_process_refused_data
                0x00008980                tcp_fasttmr
                0x00008a40                tcp_tmr
                0x00008a80                tcp_next_iss
                0x00008aa0                tcp_eff_send_mss
                0x00008b20                tcp_connect
                0x00008d40                tcp_debug_state_str
 .text          0x00008d60     0x1000 tcp_in.o
                0x00008d60                tcp_input
 .text.unlikely
                0x00009d60      0xfdc tcp_in.o
 *fill*         0x0000ad3c        0x4 3a880100
 .text          0x0000ad40     0x1ce0 tcp_out.o
                0x0000b100                tcp_write
                0x0000b940                tcp_enqueue_flags
                0x0000bc40                tcp_send_fin
                0x0000bca0                tcp_send_empty_ack
                0x0000bda0                tcp_output
                0x0000c3c0                tcp_rst
                0x0000c5a0                tcp_rexmit_rto
                0x0000c600                tcp_rexmit
                0x0000c6e0                tcp_rexmit_fast
                0x0000c7c0                tcp_keepalive
                0x0000c8c0                tcp_zero_window_probe
 .text          0x0000ca20      0xa00 udp.o
                0x0000ca20                udp_init
                0x0000ca40                udp_input
                0x0000ce00                udp_bind
                0x0000cf80                udp_sendto_if
                0x0000d1a0                udp_sendto
                0x0000d220                udp_send
                0x0000d240                udp_connect
                0x0000d320                udp_disconnect
                0x0000d340                udp_recv
                0x0000d360                udp_remove
                0x0000d3c0                udp_new
 .text          0x0000d420        0x0 dns.o
 .text          0x0000d420       0x40 init.o
                0x0000d420                lwip_init
 .text          0x0000d460     0x2580 dhcp.o
                0x0000ee80                dhcp_set_struct
                0x0000ef40                dhcp_cleanup
                0x0000efa0                dhcp_inform
                0x0000f0e0                dhcp_network_changed
                0x0000f180                dhcp_arp_reply
                0x0000f2e0                dhcp_renew
                0x0000f420                dhcp_coarse_tmr
                0x0000f4e0                dhcp_release
                0x0000f640                dhcp_fine_tmr
                0x0000f780                dhcp_stop
                0x0000f840                dhcp_start
 .text          0x0000f9e0        0x0 def.o
 .text          0x0000f9e0       0x20 timers.o
                0x0000f9e0                tcp_timer_needed
 .text          0x0000fa00        0x0 asn1_dec.o
 .text          0x0000fa00        0x0 asn1_enc.o
 .text          0x0000fa00        0x0 mib2.o
 .text          0x0000fa00        0x0 mib_structs.o
 .text          0x0000fa00        0x0 msg_in.o
 .text          0x0000fa00        0x0 msg_out.o
 .text          0x0000fa00        0x0 autoip.o
 .text          0x0000fa00      0x580 icmp.o
                0x0000fb40                icmp_input
                0x0000ff40                icmp_dest_unreach
                0x0000ff60                icmp_time_exceeded
 .text          0x0000ff80        0x0 igmp.o
 .text          0x0000ff80        0x0 inet.o
 .text          0x0000ff80      0x4e0 inet_chksum.o
                0x00010040                inet_chksum_pseudo
                0x000101a0                inet_chksum_pseudo_partial
                0x00010360                inet_chksum
                0x00010380                inet_chksum_pbuf
 .text          0x00010460      0x720 ip.o
                0x00010460                ip_route
                0x000104e0                ip_input
                0x00010820                ip_output_if
                0x00010aa0                ip_output
 .text          0x00010b80      0x500 ip_addr.o
                0x00010b80                ip4_addr_isbroadcast
                0x00010be0                ip4_addr_netmask_valid
                0x00010c60                ipaddr_aton
                0x00010f20                ipaddr_addr
                0x00010f60                ipaddr_ntoa_r
                0x00011060                ipaddr_ntoa
 .text          0x00011080      0xc40 ip_frag.o
                0x000113c0                ip_reass_tmr
                0x00011440                ip_reass
                0x00011a40                ip_frag
 .text          0x00011cc0        0x0 slipif.o
 .text          0x00011cc0     0x1540 etharp.o
                0x000122a0                etharp_tmr
                0x00012380                etharp_cleanup_netif
                0x00012400                etharp_find_addr
                0x000124c0                etharp_request
                0x00012740                etharp_query
                0x00012ac0                etharp_output
                0x00012d80                ethernet_input
 .text          0x00013200        0x0 ethernetif.o
 .text          0x00013200        0x0 auth.o
 .text          0x00013200        0x0 fsm.o
 .text          0x00013200        0x0 ipcp.o
 .text          0x00013200        0x0 lcp.o
 .text          0x00013200        0x0 magic.o
 .text          0x00013200        0x0 ppp.o
 .text          0x00013200        0x0 vj.o
 .text          0x00013200        0x0 chap.o
 .text          0x00013200        0x0 chpms.o
 .text          0x00013200        0x0 md5.o
 .text          0x00013200        0x0 pap.o
 .text          0x00013200        0x0 ppp_oe.o
 .text          0x00013200        0x0 randm.o
 .text          0x00013200      0x340 alteraTseEthernetif.o
                0x00013200                ethernetif_input
                0x000133e0                ethernetif_init
 .text          0x00013540       0xa0 fs.o
                0x00013540                fs_open
 .text          0x000135e0        0x0 fsdata.o
 .text          0x000135e0      0x540 httpd.o
                0x00013ac0                httpd_init
 .text          0x00013b20      0x700 lwip_tse_mac.o
                0x00013b20                tse_sgdma_read_init
                0x00013ba0                tse_mac_init
                0x00013fa0                tse_mac_raw_send
                0x000140a0                tse_mac_rcv
                0x000141c0                tse_sgdmaRx_isr
 .text          0x00014220        0x0 tse_my_system.o
 .text          0x00014220      0xd80 lwip_test.o
                0x00014220                TaskMainUSRV_TASK
                0x000143c0                AlarmMainLWIP_ALARM_CALLBACK
                0x00014480                ErrorHook
                0x00014da0                PreTaskHook
                0x00014dc0                PostTaskHook
                0x00014de0                StartupHook
                0x00014e20                ShutdownHook
                0x00014f00                ProtectionHook
 .text.startup  0x00014fa0       0x20 lwip_test.o
                0x00014fa0                main
 .text          0x00014fc0       0x80 jtag_uart.o
                0x00014fc0                InitHwSerial
                0x00014fe0                TermHwSerial
                0x00015000                ISRMainRxHwSerialInt
 .text          0x00015040       0x60 banner.o
                0x00015040                print_banner
 .text          0x000150a0       0xc0 syslog.o
                0x000150a0                syslog_initialize
                0x000150c0                syslog_wri_log
                0x00015140                syslog_msk_log
 .text          0x00015160       0xe0 serial.o
                0x00015160                InitSerial
                0x00015180                TermSerial
                0x000151a0                RecvPolSerialChar
                0x00015200                RxSerialInt
 .text          0x00015240      0x420 log_output.o
                0x00015380                syslog_printf
                0x00015620                syslog_print
 .text          0x00015660      0x1a0 vasyslog.o
                0x00015660                syslog
 .text          0x00015800       0xa0 t_perror.o
                0x00015800                t_perror
 .text          0x000158a0       0x40 strerror.o
                0x000158a0                atk2_strerror
 .text          0x000158e0      0x180 Os_Lcfg.o
                0x000158e0                _kernel_inthdr_0
                0x00015900                object_initialize
                0x00015920                object_terminate
                0x00015940                ISRMainC2ISR_for_MAIN_HW_COUNTER
                0x00015960                _kernel_inthdr_16
                0x00015980                int_handler_entry_0
                0x000159a0                int_handler_entry_16
                0x000159c0                kernel_vectors
 .text          0x00015a60       0xa0 libkernel.a(prc_support.o)
                0x00015a60                start_r
                0x00015aa0                stack_change_and_call_func_2
                0x00015aa0                stack_change_and_call_func_1
 .text          0x00015b00      0x140 libkernel.a(target_config.o)
                0x00015b00                target_fput_str
                0x00015b60                target_hardware_initialize
                0x00015bc0                target_initialize
                0x00015be0                target_exit
                0x00015c00                target_fput_log
 .text          0x00015c40      0x6a0 libkernel.a(target_hw_counter.o)
                0x00015ce0                init_hwcounter_MAIN_HW_COUNTER
                0x00015d40                start_hwcounter_MAIN_HW_COUNTER
                0x00015d60                stop_hwcounter_MAIN_HW_COUNTER
                0x00015da0                set_hwcounter_MAIN_HW_COUNTER
                0x00015dc0                get_hwcounter_MAIN_HW_COUNTER
                0x00015e00                cancel_hwcounter_MAIN_HW_COUNTER
                0x00015e20                trigger_hwcounter_MAIN_HW_COUNTER
                0x00015e80                int_clear_hwcounter_MAIN_HW_COUNTER
                0x00015ea0                int_cancel_hwcounter_MAIN_HW_COUNTER
                0x00015ec0                increment_hwcounter_MAIN_HW_COUNTER
                0x00015ee0                init_hwcounter_SUB_HW_COUNTER1
                0x00015f40                start_hwcounter_SUB_HW_COUNTER1
                0x00015f60                stop_hwcounter_SUB_HW_COUNTER1
                0x00015fa0                set_hwcounter_SUB_HW_COUNTER1
                0x00015fc0                get_hwcounter_SUB_HW_COUNTER1
                0x00016000                cancel_hwcounter_SUB_HW_COUNTER1
                0x00016020                trigger_hwcounter_SUB_HW_COUNTER1
                0x00016080                int_clear_hwcounter_SUB_HW_COUNTER1
                0x000160a0                int_cancel_hwcounter_SUB_HW_COUNTER1
                0x000160c0                increment_hwcounter_SUB_HW_COUNTER1
                0x000160e0                init_hwcounter_SUB_HW_COUNTER2
                0x00016140                start_hwcounter_SUB_HW_COUNTER2
                0x00016160                stop_hwcounter_SUB_HW_COUNTER2
                0x000161a0                set_hwcounter_SUB_HW_COUNTER2
                0x000161c0                get_hwcounter_SUB_HW_COUNTER2
                0x00016200                cancel_hwcounter_SUB_HW_COUNTER2
                0x00016220                trigger_hwcounter_SUB_HW_COUNTER2
                0x00016280                int_clear_hwcounter_SUB_HW_COUNTER2
                0x000162a0                int_cancel_hwcounter_SUB_HW_COUNTER2
                0x000162c0                increment_hwcounter_SUB_HW_COUNTER2
 .text          0x000162e0      0x160 libkernel.a(prc_config.o)
                0x000162e0                prc_hardware_initialize
                0x00016300                prc_initialize
                0x00016320                prc_terminate
                0x00016340                x_config_int
                0x000163e0                default_int_handler
 .text          0x00016440       0x20 libkernel.a(vic.o)
                0x00016440                vic_initialize
 .text          0x00016460      0x220 libkernel.a(avalon_timer.o)
                0x00016460                get_tim_utime
                0x00016500                get_tim_100ntime
                0x000165a0                target_timer_initialize
                0x00016600                target_timer_terminate
                0x00016620                ISRMaintarget_timer_hdr
 .text          0x00016680      0x9e0 libkernel.a(counter_manage.o)
                0x00016680                GetCounterValue
                0x00016960                GetElapsedValue
                0x00016c80                notify_hardware_counter
                0x00016dc0                incr_counter_action
                0x00016e80                IncrementCounter
 .text          0x00017060      0x860 libkernel.a(counter.o)
                0x00017060                insert_cnt_expr_que
                0x000171e0                delete_cnt_expr_que
                0x00017320                counter_initialize
                0x00017420                counter_terminate
                0x00017480                get_reltick
                0x00017520                get_abstick
                0x000175c0                expire_process
 .text          0x000178c0      0xd20 libkernel.a(alarm.o)
                0x000178c0                alarm_expire
                0x00017980                alarm_initialize
                0x00017aa0                GetAlarmBase
                0x00017c80                GetAlarm
                0x00017f20                SetRelAlarm
                0x00018180                SetAbsAlarm
                0x000183e0                CancelAlarm
 .text          0x000185e0      0x480 libkernel.a(osctl_manage.o)
                0x00018640                StartOS
                0x00018880                GetActiveApplicationMode
                0x000189a0                ShutdownOS
                0x000189e0                GetFaultyContext
 .text          0x00018a60      0x440 libkernel.a(osctl.o)
                0x00018a60                internal_call_shtdwnhk
                0x00018b00                internal_call_errorhook
                0x00018be0                call_posttaskhook
                0x00018c40                call_pretaskhook
                0x00018ca0                init_stack_magic_region
                0x00018d00                internal_shutdownos
                0x00018da0                call_protectionhk_main
 .text          0x00018ea0      0xc60 libkernel.a(task_manage.o)
                0x00018ea0                ActivateTask
                0x000190e0                TerminateTask
                0x000192a0                ChainTask
                0x00019500                Schedule
                0x00019700                GetTaskID
                0x000198a0                GetTaskState
                0x00019a60                activate_task_action
 .text          0x00019b00      0x920 libkernel.a(interrupt_manage.o)
                0x00019b00                DisableAllInterrupts
                0x00019b40                EnableAllInterrupts
                0x00019b80                SuspendAllInterrupts
                0x00019d20                ResumeAllInterrupts
                0x00019ec0                SuspendOSInterrupts
                0x0001a0a0                ResumeOSInterrupts
                0x0001a2c0                GetISRID
 .text          0x0001a420      0x460 libkernel.a(interrupt.o)
                0x0001a420                interrupt_initialize
                0x0001a4e0                release_interrupts
                0x0001a6c0                exit_isr2
 .text          0x0001a880      0x5c0 libkernel.a(task.o)
                0x0001a880                search_schedtsk
                0x0001a9c0                make_runnable
                0x0001aa80                make_non_runnable
                0x0001aaa0                make_active
                0x0001ab20                task_initialize
                0x0001ac20                preempt
                0x0001acc0                suspend
                0x0001ad20                exit_task
 .text          0x0001ae40       0x14 c:/altera/13.1/nios2eds/bin/gnu/h-i686-mingw32/bin/../lib/gcc/nios2-elf/4.7.3/../../../../../H-i686-mingw32/nios2-elf/lib\libc.a(lib_a-atexit.o)
                0x0001ae40                atexit
 .text          0x0001ae54       0x38 c:/altera/13.1/nios2eds/bin/gnu/h-i686-mingw32/bin/../lib/gcc/nios2-elf/4.7.3/../../../../../H-i686-mingw32/nios2-elf/lib\libc.a(lib_a-exit.o)
                0x0001ae54                exit
 .text          0x0001ae8c        0x0 c:/altera/13.1/nios2eds/bin/gnu/h-i686-mingw32/bin/../lib/gcc/nios2-elf/4.7.3/../../../../../H-i686-mingw32/nios2-elf/lib\libc.a(lib_a-impure.o)
 .text          0x0001ae8c        0x0 c:/altera/13.1/nios2eds/bin/gnu/h-i686-mingw32/bin/../lib/gcc/nios2-elf/4.7.3/../../../../../H-i686-mingw32/nios2-elf/lib\libc.a(lib_a-int_errno.o)
 .text          0x0001ae8c       0x28 c:/altera/13.1/nios2eds/bin/gnu/h-i686-mingw32/bin/../lib/gcc/nios2-elf/4.7.3/../../../../../H-i686-mingw32/nios2-elf/lib\libc.a(lib_a-malloc.o)
                0x0001ae8c                malloc
                0x0001aea0                free
 .text          0x0001aeb4      0x784 c:/altera/13.1/nios2eds/bin/gnu/h-i686-mingw32/bin/../lib/gcc/nios2-elf/4.7.3/../../../../../H-i686-mingw32/nios2-elf/lib\libc.a(lib_a-mallocr.o)
                0x0001aeb4                _malloc_r
 .text          0x0001b638       0x7c c:/altera/13.1/nios2eds/bin/gnu/h-i686-mingw32/bin/../lib/gcc/nios2-elf/4.7.3/../../../../../H-i686-mingw32/nios2-elf/lib\libc.a(lib_a-memcmp.o)
                0x0001b638                memcmp
 .text          0x0001b6b4       0xf8 c:/altera/13.1/nios2eds/bin/gnu/h-i686-mingw32/bin/../lib/gcc/nios2-elf/4.7.3/../../../../../H-i686-mingw32/nios2-elf/lib\libc.a(lib_a-memcpy.o)
                0x0001b6b4                memcpy
 .text          0x0001b7ac       0xdc c:/altera/13.1/nios2eds/bin/gnu/h-i686-mingw32/bin/../lib/gcc/nios2-elf/4.7.3/../../../../../H-i686-mingw32/nios2-elf/lib\libc.a(lib_a-memset.o)
                0x0001b7ac                memset
 .text          0x0001b888       0x68 c:/altera/13.1/nios2eds/bin/gnu/h-i686-mingw32/bin/../lib/gcc/nios2-elf/4.7.3/../../../../../H-i686-mingw32/nios2-elf/lib\libc.a(lib_a-printf.o)
                0x0001b888                _printf_r
                0x0001b8b4                printf
 .text          0x0001b8f0       0x98 c:/altera/13.1/nios2eds/bin/gnu/h-i686-mingw32/bin/../lib/gcc/nios2-elf/4.7.3/../../../../../H-i686-mingw32/nios2-elf/lib\libc.a(lib_a-puts.o)
                0x0001b8f0                _puts_r
                0x0001b974                puts
 .text          0x0001b988       0x64 c:/altera/13.1/nios2eds/bin/gnu/h-i686-mingw32/bin/../lib/gcc/nios2-elf/4.7.3/../../../../../H-i686-mingw32/nios2-elf/lib\libc.a(lib_a-sbrkr.o)
                0x0001b988                _sbrk_r
 .text          0x0001b9ec       0xa4 c:/altera/13.1/nios2eds/bin/gnu/h-i686-mingw32/bin/../lib/gcc/nios2-elf/4.7.3/../../../../../H-i686-mingw32/nios2-elf/lib\libc.a(lib_a-strcmp.o)
                0x0001b9ec                strcmp
 .text          0x0001ba90       0x94 c:/altera/13.1/nios2eds/bin/gnu/h-i686-mingw32/bin/../lib/gcc/nios2-elf/4.7.3/../../../../../H-i686-mingw32/nios2-elf/lib\libc.a(lib_a-strcpy.o)
                0x0001ba90                strcpy
 .text          0x0001bb24       0x8c c:/altera/13.1/nios2eds/bin/gnu/h-i686-mingw32/bin/../lib/gcc/nios2-elf/4.7.3/../../../../../H-i686-mingw32/nios2-elf/lib\libc.a(lib_a-strlen.o)
                0x0001bb24                strlen
 .text          0x0001bbb0       0xfc c:/altera/13.1/nios2eds/bin/gnu/h-i686-mingw32/bin/../lib/gcc/nios2-elf/4.7.3/../../../../../H-i686-mingw32/nios2-elf/lib\libc.a(lib_a-strncmp.o)
                0x0001bbb0                strncmp
 .text          0x0001bcac     0x1e50 c:/altera/13.1/nios2eds/bin/gnu/h-i686-mingw32/bin/../lib/gcc/nios2-elf/4.7.3/../../../../../H-i686-mingw32/nios2-elf/lib\libc.a(lib_a-vfprintf.o)
                0x0001bce0                ___vfprintf_internal_r
                0x0001dad8                __vfprintf_internal
 .text          0x0001dafc      0x174 c:/altera/13.1/nios2eds/bin/gnu/h-i686-mingw32/bin/../lib/gcc/nios2-elf/4.7.3/../../../../../H-i686-mingw32/nios2-elf/lib\libc.a(lib_a-wsetup.o)
                0x0001dafc                __swsetup_r
 .text          0x0001dc70      0x130 c:/altera/13.1/nios2eds/bin/gnu/h-i686-mingw32/bin/../lib/gcc/nios2-elf/4.7.3/../../../../../H-i686-mingw32/nios2-elf/lib\libc.a(lib_a-__atexit.o)
                0x0001dc70                __register_exitproc
 .text          0x0001dda0      0x1a0 c:/altera/13.1/nios2eds/bin/gnu/h-i686-mingw32/bin/../lib/gcc/nios2-elf/4.7.3/../../../../../H-i686-mingw32/nios2-elf/lib\libc.a(lib_a-__call_atexit.o)
                0x0001dda0                __call_exitprocs
 .text          0x0001df40     0x1824 c:/altera/13.1/nios2eds/bin/gnu/h-i686-mingw32/bin/../lib/gcc/nios2-elf/4.7.3/../../../../../H-i686-mingw32/nios2-elf/lib\libc.a(lib_a-dtoa.o)
                0x0001e148                _dtoa_r
 .text          0x0001f764      0x218 c:/altera/13.1/nios2eds/bin/gnu/h-i686-mingw32/bin/../lib/gcc/nios2-elf/4.7.3/../../../../../H-i686-mingw32/nios2-elf/lib\libc.a(lib_a-fflush.o)
                0x0001f764                _fflush_r
                0x0001f94c                fflush
 .text          0x0001f97c      0x2d8 c:/altera/13.1/nios2eds/bin/gnu/h-i686-mingw32/bin/../lib/gcc/nios2-elf/4.7.3/../../../../../H-i686-mingw32/nios2-elf/lib\libc.a(lib_a-findfp.o)
                0x0001f98c                _cleanup_r
                0x0001f998                __sfmoreglue
                0x0001f9fc                _cleanup
                0x0001fa0c                __sinit
                0x0001fb18                __sfp
                0x0001fc14                __sfp_lock_acquire
                0x0001fc18                __sfp_lock_release
                0x0001fc1c                __sinit_lock_acquire
                0x0001fc20                __sinit_lock_release
                0x0001fc24                __fp_lock_all
                0x0001fc3c                __fp_unlock_all
 .text          0x0001fc54      0x40c c:/altera/13.1/nios2eds/bin/gnu/h-i686-mingw32/bin/../lib/gcc/nios2-elf/4.7.3/../../../../../H-i686-mingw32/nios2-elf/lib\libc.a(lib_a-freer.o)
                0x0001fc54                _malloc_trim_r
                0x0001fd90                _free_r
 .text          0x00020060      0x4e4 c:/altera/13.1/nios2eds/bin/gnu/h-i686-mingw32/bin/../lib/gcc/nios2-elf/4.7.3/../../../../../H-i686-mingw32/nios2-elf/lib\libc.a(lib_a-fvwrite.o)
                0x00020060                __sfvwrite_r
 .text          0x00020544      0x160 c:/altera/13.1/nios2eds/bin/gnu/h-i686-mingw32/bin/../lib/gcc/nios2-elf/4.7.3/../../../../../H-i686-mingw32/nios2-elf/lib\libc.a(lib_a-fwalk.o)
                0x00020544                _fwalk
                0x000205ec                _fwalk_reent
 .text          0x000206a4       0xdc c:/altera/13.1/nios2eds/bin/gnu/h-i686-mingw32/bin/../lib/gcc/nios2-elf/4.7.3/../../../../../H-i686-mingw32/nios2-elf/lib\libc.a(lib_a-locale.o)
                0x000206a4                _setlocale_r
                0x00020740                __locale_charset
                0x0002074c                _localeconv_r
                0x00020758                setlocale
                0x00020774                localeconv
 .text          0x00020780      0x1a8 c:/altera/13.1/nios2eds/bin/gnu/h-i686-mingw32/bin/../lib/gcc/nios2-elf/4.7.3/../../../../../H-i686-mingw32/nios2-elf/lib\libc.a(lib_a-makebuf.o)
                0x00020780                __smakebuf_r
 .text          0x00020928       0xf8 c:/altera/13.1/nios2eds/bin/gnu/h-i686-mingw32/bin/../lib/gcc/nios2-elf/4.7.3/../../../../../H-i686-mingw32/nios2-elf/lib\libc.a(lib_a-memchr.o)
                0x00020928                memchr
 .text          0x00020a20      0x128 c:/altera/13.1/nios2eds/bin/gnu/h-i686-mingw32/bin/../lib/gcc/nios2-elf/4.7.3/../../../../../H-i686-mingw32/nios2-elf/lib\libc.a(lib_a-memmove.o)
                0x00020a20                memmove
 .text          0x00020b48      0xfa8 c:/altera/13.1/nios2eds/bin/gnu/h-i686-mingw32/bin/../lib/gcc/nios2-elf/4.7.3/../../../../../H-i686-mingw32/nios2-elf/lib\libc.a(lib_a-mprec.o)
                0x00020b48                _Balloc
                0x00020bf0                _Bfree
                0x00020c18                __multadd
                0x00020d2c                __s2b
                0x00020e30                __hi0bits
                0x00020e98                __lo0bits
                0x00020f48                __i2b
                0x00020f84                __multiply
                0x00021164                __pow5mult
                0x00021290                __lshift
                0x000213ec                __mcmp
                0x00021444                __mdiff
                0x000215ec                __ulp
                0x0002164c                __b2d
                0x00021794                __d2b
                0x000218d8                __ratio
                0x0002197c                _mprec_log10
                0x000219f0                __copybits
                0x00021a6c                __any_on
 .text          0x00021af0      0x5fc c:/altera/13.1/nios2eds/bin/gnu/h-i686-mingw32/bin/../lib/gcc/nios2-elf/4.7.3/../../../../../H-i686-mingw32/nios2-elf/lib\libc.a(lib_a-reallocr.o)
                0x00021af0                _realloc_r
 .text          0x000220ec       0x38 c:/altera/13.1/nios2eds/bin/gnu/h-i686-mingw32/bin/../lib/gcc/nios2-elf/4.7.3/../../../../../H-i686-mingw32/nios2-elf/lib\libc.a(lib_a-s_isinfd.o)
                0x000220ec                __isinfd
 .text          0x00022124       0x2c c:/altera/13.1/nios2eds/bin/gnu/h-i686-mingw32/bin/../lib/gcc/nios2-elf/4.7.3/../../../../../H-i686-mingw32/nios2-elf/lib\libc.a(lib_a-s_isnand.o)
                0x00022124                __isnand
 .text          0x00022150      0x140 c:/altera/13.1/nios2eds/bin/gnu/h-i686-mingw32/bin/../lib/gcc/nios2-elf/4.7.3/../../../../../H-i686-mingw32/nios2-elf/lib\libc.a(lib_a-stdio.o)
                0x00022150                __sread
                0x000221a4                __swrite
                0x0002222c                __sseek
                0x00022288                __sclose
 .text          0x00022290       0x6c c:/altera/13.1/nios2eds/bin/gnu/h-i686-mingw32/bin/../lib/gcc/nios2-elf/4.7.3/../../../../../H-i686-mingw32/nios2-elf/lib\libc.a(lib_a-writer.o)
                0x00022290                _write_r
 .text          0x000222fc       0xbc c:/altera/13.1/nios2eds/bin/gnu/h-i686-mingw32/bin/../lib/gcc/nios2-elf/4.7.3/../../../../../H-i686-mingw32/nios2-elf/lib\libc.a(lib_a-callocr.o)
                0x000222fc                _calloc_r
 .text          0x000223b8       0x64 c:/altera/13.1/nios2eds/bin/gnu/h-i686-mingw32/bin/../lib/gcc/nios2-elf/4.7.3/../../../../../H-i686-mingw32/nios2-elf/lib\libc.a(lib_a-closer.o)
                0x000223b8                _close_r
 .text          0x0002241c      0x150 c:/altera/13.1/nios2eds/bin/gnu/h-i686-mingw32/bin/../lib/gcc/nios2-elf/4.7.3/../../../../../H-i686-mingw32/nios2-elf/lib\libc.a(lib_a-fclose.o)
                0x0002241c                _fclose_r
                0x00022558                fclose
 .text          0x0002256c       0x68 c:/altera/13.1/nios2eds/bin/gnu/h-i686-mingw32/bin/../lib/gcc/nios2-elf/4.7.3/../../../../../H-i686-mingw32/nios2-elf/lib\libc.a(lib_a-fstatr.o)
                0x0002256c                _fstat_r
 .text          0x000225d4       0x64 c:/altera/13.1/nios2eds/bin/gnu/h-i686-mingw32/bin/../lib/gcc/nios2-elf/4.7.3/../../../../../H-i686-mingw32/nios2-elf/lib\libc.a(lib_a-isattyr.o)
                0x000225d4                _isatty_r
 .text          0x00022638       0x6c c:/altera/13.1/nios2eds/bin/gnu/h-i686-mingw32/bin/../lib/gcc/nios2-elf/4.7.3/../../../../../H-i686-mingw32/nios2-elf/lib\libc.a(lib_a-lseekr.o)
                0x00022638                _lseek_r
 .text          0x000226a4       0x6c c:/altera/13.1/nios2eds/bin/gnu/h-i686-mingw32/bin/../lib/gcc/nios2-elf/4.7.3/../../../../../H-i686-mingw32/nios2-elf/lib\libc.a(lib_a-readr.o)
                0x000226a4                _read_r
 .text          0x00022710      0x5c8 c:/altera/13.1/nios2eds/bin/gnu/h-i686-mingw32/bin/../lib/gcc/nios2-elf/4.7.3\libgcc.a(_udivdi3.o)
                0x00022710                __udivdi3
 .text          0x00022cd8      0x58c c:/altera/13.1/nios2eds/bin/gnu/h-i686-mingw32/bin/../lib/gcc/nios2-elf/4.7.3\libgcc.a(_umoddi3.o)
                0x00022cd8                __umoddi3
 .text          0x00023264      0x408 c:/altera/13.1/nios2eds/bin/gnu/h-i686-mingw32/bin/../lib/gcc/nios2-elf/4.7.3\libgcc.a(_addsub_df.o)
                0x000235b8                __adddf3
                0x0002360c                __subdf3
 .text          0x0002366c      0x2e4 c:/altera/13.1/nios2eds/bin/gnu/h-i686-mingw32/bin/../lib/gcc/nios2-elf/4.7.3\libgcc.a(_mul_df.o)
                0x0002366c                __muldf3
 .text          0x00023950      0x1b4 c:/altera/13.1/nios2eds/bin/gnu/h-i686-mingw32/bin/../lib/gcc/nios2-elf/4.7.3\libgcc.a(_div_df.o)
                0x00023950                __divdf3
 .text          0x00023b04       0x5c c:/altera/13.1/nios2eds/bin/gnu/h-i686-mingw32/bin/../lib/gcc/nios2-elf/4.7.3\libgcc.a(_eq_df.o)
                0x00023b04                __eqdf2
 .text          0x00023b60       0x5c c:/altera/13.1/nios2eds/bin/gnu/h-i686-mingw32/bin/../lib/gcc/nios2-elf/4.7.3\libgcc.a(_ne_df.o)
                0x00023b60                __nedf2
 .text          0x00023bbc       0x64 c:/altera/13.1/nios2eds/bin/gnu/h-i686-mingw32/bin/../lib/gcc/nios2-elf/4.7.3\libgcc.a(_gt_df.o)
                0x00023bbc                __gtdf2
 .text          0x00023c20       0x64 c:/altera/13.1/nios2eds/bin/gnu/h-i686-mingw32/bin/../lib/gcc/nios2-elf/4.7.3\libgcc.a(_ge_df.o)
                0x00023c20                __gedf2
 .text          0x00023c84       0x5c c:/altera/13.1/nios2eds/bin/gnu/h-i686-mingw32/bin/../lib/gcc/nios2-elf/4.7.3\libgcc.a(_lt_df.o)
                0x00023c84                __ltdf2
 .text          0x00023ce0       0xd4 c:/altera/13.1/nios2eds/bin/gnu/h-i686-mingw32/bin/../lib/gcc/nios2-elf/4.7.3\libgcc.a(_si_to_df.o)
                0x00023ce0                __floatsidf
 .text          0x00023db4       0xd4 c:/altera/13.1/nios2eds/bin/gnu/h-i686-mingw32/bin/../lib/gcc/nios2-elf/4.7.3\libgcc.a(_df_to_si.o)
                0x00023db4                __fixdfsi
 .text          0x00023e88        0x0 c:/altera/13.1/nios2eds/bin/gnu/h-i686-mingw32/bin/../lib/gcc/nios2-elf/4.7.3\libgcc.a(_thenan_df.o)
 .text          0x00023e88      0x11c c:/altera/13.1/nios2eds/bin/gnu/h-i686-mingw32/bin/../lib/gcc/nios2-elf/4.7.3\libgcc.a(_usi_to_df.o)
                0x00023e88                __floatunsidf
 .text          0x00023fa4      0x130 c:/altera/13.1/nios2eds/bin/gnu/h-i686-mingw32/bin/../lib/gcc/nios2-elf/4.7.3\libgcc.a(lib2-divmod.o)
                0x00024018                __divsi3
                0x00024068                __modsi3
                0x000240c4                __udivsi3
                0x000240cc                __umodsi3
 .text          0x000240d4       0x60 c:/altera/13.1/nios2eds/bin/gnu/h-i686-mingw32/bin/../lib/gcc/nios2-elf/4.7.3\libgcc.a(_muldi3.o)
                0x000240d4                __muldi3
 .text          0x00024134        0x0 c:/altera/13.1/nios2eds/bin/gnu/h-i686-mingw32/bin/../lib/gcc/nios2-elf/4.7.3\libgcc.a(_clz.o)
 .text          0x00024134       0xac c:/altera/13.1/nios2eds/bin/gnu/h-i686-mingw32/bin/../lib/gcc/nios2-elf/4.7.3\libgcc.a(_clzsi2.o)
                0x00024134                __clzsi2
 .text          0x000241e0      0x224 c:/altera/13.1/nios2eds/bin/gnu/h-i686-mingw32/bin/../lib/gcc/nios2-elf/4.7.3\libgcc.a(_pack_df.o)
                0x000241e0                __pack_d
 .text          0x00024404      0x104 c:/altera/13.1/nios2eds/bin/gnu/h-i686-mingw32/bin/../lib/gcc/nios2-elf/4.7.3\libgcc.a(_unpack_df.o)
                0x00024404                __unpack_d
 .text          0x00024508       0xd0 c:/altera/13.1/nios2eds/bin/gnu/h-i686-mingw32/bin/../lib/gcc/nios2-elf/4.7.3\libgcc.a(_fpcmp_parts_df.o)
                0x00024508                __fpcmp_parts_d
 .text          0x000245d8       0x44 c:/altera/13.1/nios2eds/bin/gnu/h-i686-mingw32/bin/../lib/gcc/nios2-elf/4.7.3\libgcc.a(_lshrdi3.o)
                0x000245d8                __lshrdi3
 .text          0x0002461c       0x44 c:/altera/13.1/nios2eds/bin/gnu/h-i686-mingw32/bin/../lib/gcc/nios2-elf/4.7.3\libgcc.a(_ashldi3.o)
                0x0002461c                __ashldi3
 .text          0x00024660       0x30 c:/altera/13.1/nios2eds/bin/gnu/h-i686-mingw32/bin/../lib/gcc/nios2-elf/4.7.3/../../../../../H-i686-mingw32/nios2-elf/lib\libnosys.a(nosys_sbrk.o)
                0x00024660                sbrk
 .text          0x00024690       0x18 c:/altera/13.1/nios2eds/bin/gnu/h-i686-mingw32/bin/../lib/gcc/nios2-elf/4.7.3/../../../../../H-i686-mingw32/nios2-elf/lib\libnosys.a(nosys_close.o)
                0x00024690                close
 .text          0x000246a8       0x44 c:/altera/13.1/nios2eds/bin/gnu/h-i686-mingw32/bin/../lib/gcc/nios2-elf/4.7.3/../../../../../H-i686-mingw32/nios2-elf/lib\libnosys.a(nosys_crt0.o)
                0x000246a8                _init
                0x000246a8                __fake_init
                0x000246ac                __start_2
 .text          0x000246ec       0x30 c:/altera/13.1/nios2eds/bin/gnu/h-i686-mingw32/bin/../lib/gcc/nios2-elf/4.7.3/../../../../../H-i686-mingw32/nios2-elf/lib\libnosys.a(nosys_exit.o)
                0x000246ec                _fini
                0x000246ec                __fake_fini
                0x000246f0                _exit
 .text          0x0002471c       0x18 c:/altera/13.1/nios2eds/bin/gnu/h-i686-mingw32/bin/../lib/gcc/nios2-elf/4.7.3/../../../../../H-i686-mingw32/nios2-elf/lib\libnosys.a(nosys_fstat.o)
                0x0002471c                fstat
 .text          0x00024734       0x18 c:/altera/13.1/nios2eds/bin/gnu/h-i686-mingw32/bin/../lib/gcc/nios2-elf/4.7.3/../../../../../H-i686-mingw32/nios2-elf/lib\libnosys.a(nosys_isatty.o)
                0x00024734                isatty
 .text          0x0002474c       0x18 c:/altera/13.1/nios2eds/bin/gnu/h-i686-mingw32/bin/../lib/gcc/nios2-elf/4.7.3/../../../../../H-i686-mingw32/nios2-elf/lib\libnosys.a(nosys_lseek.o)
                0x0002474c                lseek
 .text          0x00024764       0x18 c:/altera/13.1/nios2eds/bin/gnu/h-i686-mingw32/bin/../lib/gcc/nios2-elf/4.7.3/../../../../../H-i686-mingw32/nios2-elf/lib\libnosys.a(nosys_open.o)
                0x00024764                open
 .text          0x0002477c       0x18 c:/altera/13.1/nios2eds/bin/gnu/h-i686-mingw32/bin/../lib/gcc/nios2-elf/4.7.3/../../../../../H-i686-mingw32/nios2-elf/lib\libnosys.a(nosys_read.o)
                0x0002477c                read
 .text          0x00024794       0x18 c:/altera/13.1/nios2eds/bin/gnu/h-i686-mingw32/bin/../lib/gcc/nios2-elf/4.7.3/../../../../../H-i686-mingw32/nios2-elf/lib\libnosys.a(nosys_write.o)
                0x00024794                write
 .text          0x000247ac        0x4 c:/altera/13.1/nios2eds/bin/gnu/h-i686-mingw32/bin/../lib/gcc/nios2-elf/4.7.3/../../../../../H-i686-mingw32/nios2-elf/lib\libnosys.a(_zero_bss.o)
                0x000247ac                _zero_bss
 .text          0x000247b0        0x0 c:/altera/13.1/nios2eds/bin/gnu/h-i686-mingw32/bin/../lib/gcc/nios2-elf/4.7.3/../../../../../H-i686-mingw32/nios2-elf/lib\libstack.a(_stack.o)
 *(.gnu.warning.*)
 *(.fini)
                0x000247b0                PROVIDE (__etext, ABSOLUTE (.))
                0x000247b0                PROVIDE (_etext, ABSOLUTE (.))
                0x000247b0                PROVIDE (etext, ABSOLUTE (.))
 *(.eh_frame_hdr)
                0x000247b0                . = ALIGN (0x4)
                0x000247b0                PROVIDE (__preinit_array_start, ABSOLUTE (.))
 *(.preinit_array)
                0x000247b0                PROVIDE (__preinit_array_end, ABSOLUTE (.))
                0x000247b0                PROVIDE (__init_array_start, ABSOLUTE (.))
 *(.init_array)
                0x000247b0                PROVIDE (__init_array_end, ABSOLUTE (.))
                0x000247b0                PROVIDE (__fini_array_start, ABSOLUTE (.))
 *(.fini_array)
                0x000247b0                PROVIDE (__fini_array_end, ABSOLUTE (.))
 *(.eh_frame)
 *(.gcc_except_table .gcc_except_table.*)
 *(.dynamic)
                0x000247b0                PROVIDE (__CTOR_LIST__, ABSOLUTE (.))
 *crtdotors.o(.ctors)
 *(EXCLUDE_FILE(*crtendtors.o) .ctors)
 *(SORT(.ctors.*))
 *(.ctors)
 *crtdotors.o(.dtors)
                0x000247b0                PROVIDE (__CTOR_END__, ABSOLUTE (.))
                0x000247b0                PROVIDE (__DTOR_LIST__, ABSOLUTE (.))
 *(EXCLUDE_FILE(*crtendtors.o) .dtors)
 *(SORT(.dtors.*))
 *(.dtors)
                0x000247b0                PROVIDE (__DTOR_END__, ABSOLUTE (.))
 *(.jcr)

.rodata         0x000247b0     0x49d0
                0x000247b0                PROVIDE (__ram_rodata_start, ABSOLUTE (.))
                0x000247b0                . = ALIGN (0x4)
 *(.rodata .rodata.* .gnu.linkonce.r.*)
 .rodata.str1.4
                0x000247b0       0x1e altera_avalon_tse_system_info.o
                                 0x20 (size before relaxing)
 *fill*         0x000247ce        0x2 
 .rodata.str1.4
                0x000247d0     0x104f altera_avalon_tse.o
                               0x1050 (size before relaxing)
 *fill*         0x0002581f        0x1 
 .rodata        0x00025820       0x64 altera_avalon_tse.o
 .rodata        0x00025884       0x20 altera_vic_irq_init.o
 .rodata.str1.4
                0x000258a4        0xa alt_dev.o
                                  0xc (size before relaxing)
 *fill*         0x000258ae        0x2 
 .rodata.str1.4
                0x000258b0        0xf alt_main.o
                                 0x10 (size before relaxing)
 .rodata.str1.4
                0x00000000       0x20 alt_sys_init.o
 *fill*         0x000258bf        0x1 
 .rodata.str1.4
                0x000258c0      0x197 mem.o
                                0x198 (size before relaxing)
 *fill*         0x00025a57        0x1 
 .rodata.str1.4
                0x00025a58       0x90 memp.o
                                 0xb8 (size before relaxing)
 .rodata        0x00025ae8       0x24 memp.o
 .rodata.str1.4
                0x00025b0c       0x42 netif.o
                                 0x6c (size before relaxing)
 *fill*         0x00025b4e        0x2 
 .rodata.str1.4
                0x00025b50      0x3b5 pbuf.o
                                0x3ec (size before relaxing)
 *fill*         0x00025f05        0x3 
 .rodata.str1.4
                0x00025f08       0x50 raw.o
                                 0x78 (size before relaxing)
 .rodata.str1.4
                0x00025f58      0x406 tcp.o
                                0x440 (size before relaxing)
 *fill*         0x0002635e        0x2 
 .rodata        0x00026360       0x4c tcp.o
                0x00026360                tcp_pcb_lists
                0x00026370                tcp_backoff
                0x00026380                tcp_state_str
 .rodata.str1.4
                0x000263ac      0x2fa tcp_in.o
                                0x324 (size before relaxing)
 *fill*         0x000266a6        0x2 
 .rodata.str1.4
                0x000266a8      0x35f tcp_out.o
                                0x388 (size before relaxing)
 *fill*         0x00026a07        0x1 
 .rodata.str1.4
                0x00026a08       0x8a udp.o
                                 0xb4 (size before relaxing)
 *fill*         0x00026a92        0x2 
 .rodata.str1.4
                0x00026a94      0x450 dhcp.o
                                0x478 (size before relaxing)
 .rodata.str1.4
                0x00026ee4      0x145 icmp.o
                                0x170 (size before relaxing)
 *fill*         0x00027029        0x3 
 .rodata.str1.4
                0x0002702c       0x41 inet_chksum.o
                                 0x6c (size before relaxing)
 *fill*         0x0002706d        0x3 
 .rodata.str1.4
                0x00027070       0x65 ip.o
                                 0x90 (size before relaxing)
 *fill*         0x000270d5        0x3 
 .rodata.str1.4
                0x000270d8       0x3d ip_addr.o
                                 0x68 (size before relaxing)
 *fill*         0x00027115        0x3 
 .rodata.str1.4
                0x00027118      0x12d ip_frag.o
                                0x158 (size before relaxing)
 *fill*         0x00027245        0x3 
 .rodata.str1.4
                0x00027248      0x1cf etharp.o
                                0x22c (size before relaxing)
 *fill*         0x00027417        0x1 
 .rodata.str1.4
                0x00027418       0x8d alteraTseEthernetif.o
                                 0xc8 (size before relaxing)
 *fill*         0x000274a5        0x3 
 .rodata        0x000274a8      0xc80 fs.o
                0x000274a8                file_index_html
                0x000274b8                file_404_html
                0x000274c8                file_img_sics_gif
 .rodata.str1.4
                0x00028128       0x8e httpd.o
                                 0xb8 (size before relaxing)
 *fill*         0x000281b6        0x2 
 .rodata.str1.4
                0x000281b8      0x1a0 lwip_tse_mac.o
 .rodata.str1.4
                0x00028358      0x51a lwip_test.o
                                0x520 (size before relaxing)
 *fill*         0x00028872        0x2 
 .rodata        0x00028874       0x5c banner.o
 .rodata.str1.4
                0x000288d0       0x1e log_output.o
                                 0x20 (size before relaxing)
 *fill*         0x000288ee        0x2 
 .rodata        0x000288f0       0x34 log_output.o
 .rodata.str1.4
                0x00028924       0x2d t_perror.o
                                 0x30 (size before relaxing)
 *fill*         0x00028951        0x3 
 .rodata.str1.4
                0x00028954      0x216 strerror.o
                                0x244 (size before relaxing)
 *fill*         0x00028b6a        0x2 
 .rodata        0x00028b6c       0x74 strerror.o
 .rodata        0x00028be0      0x1a0 Os_Lcfg.o
                0x00028be0                isr_p_isrcb_tbl
                0x00028c60                isr_tbl
                0x00028ce0                intinib_table
                0x00028d00                alminib_table
                0x00028d18                hwcntinib_table
                0x00028d44                cntinib_table
                0x00028d64                tinib_table
 .rodata.str1.4
                0x00028d80       0x57 libkernel.a(target_config.o)
                                 0x58 (size before relaxing)
 *fill*         0x00028dd7        0x1 
 .rodata.str1.4
                0x00028dd8       0x43 libkernel.a(prc_config.o)
                                 0x44 (size before relaxing)
 *fill*         0x00028e1b        0x1 
 .rodata.str1.4
                0x00028e1c       0x22 libkernel.a(counter_manage.o)
                                 0x24 (size before relaxing)
 .rodata.str1.4
                0x00000000       0x24 libkernel.a(counter.o)
 .rodata.str1.4
                0x00000000       0x24 libkernel.a(alarm.o)
 .rodata.str1.4
                0x00000000       0x24 libkernel.a(osctl_manage.o)
 .rodata.str1.4
                0x00000000       0x24 libkernel.a(task_manage.o)
 .rodata.str1.4
                0x00000000       0x24 libkernel.a(interrupt_manage.o)
 *fill*         0x00028e3e        0x2 
 .rodata.str1.4
                0x00028e40       0x19 libkernel.a(interrupt.o)
                                 0x40 (size before relaxing)
 *fill*         0x00028e59        0x3 
 .rodata.str1.4
                0x00028e5c       0x2c libkernel.a(task.o)
                                 0x50 (size before relaxing)
 .rodata        0x00028e88        0xf libkernel.a(task.o)
 *fill*         0x00028e97        0x1 
 .rodata.str1.4
                0x00028e98        0x2 c:/altera/13.1/nios2eds/bin/gnu/h-i686-mingw32/bin/../lib/gcc/nios2-elf/4.7.3/../../../../../H-i686-mingw32/nios2-elf/lib\libc.a(lib_a-impure.o)
                                  0x4 (size before relaxing)
 .rodata.str1.4
                0x00000000        0x2 c:/altera/13.1/nios2eds/bin/gnu/h-i686-mingw32/bin/../lib/gcc/nios2-elf/4.7.3/../../../../../H-i686-mingw32/nios2-elf/lib\libc.a(lib_a-puts.o)
                                  0x4 (size before relaxing)
 *fill*         0x00028e9a        0x2 
 .rodata.str1.4
                0x00028e9c       0x3f c:/altera/13.1/nios2eds/bin/gnu/h-i686-mingw32/bin/../lib/gcc/nios2-elf/4.7.3/../../../../../H-i686-mingw32/nios2-elf/lib\libc.a(lib_a-vfprintf.o)
                                 0x44 (size before relaxing)
 .rodata        0x00028edb       0x20 c:/altera/13.1/nios2eds/bin/gnu/h-i686-mingw32/bin/../lib/gcc/nios2-elf/4.7.3/../../../../../H-i686-mingw32/nios2-elf/lib\libc.a(lib_a-vfprintf.o)
 *fill*         0x00028efb        0x1 
 .rodata.str1.4
                0x00028efc       0x10 c:/altera/13.1/nios2eds/bin/gnu/h-i686-mingw32/bin/../lib/gcc/nios2-elf/4.7.3/../../../../../H-i686-mingw32/nios2-elf/lib\libc.a(lib_a-dtoa.o)
                                 0x14 (size before relaxing)
 .rodata.str1.4
                0x00028f0c        0xc c:/altera/13.1/nios2eds/bin/gnu/h-i686-mingw32/bin/../lib/gcc/nios2-elf/4.7.3/../../../../../H-i686-mingw32/nios2-elf/lib\libc.a(lib_a-locale.o)
                                 0x18 (size before relaxing)
 .rodata        0x00028f18       0x30 c:/altera/13.1/nios2eds/bin/gnu/h-i686-mingw32/bin/../lib/gcc/nios2-elf/4.7.3/../../../../../H-i686-mingw32/nios2-elf/lib\libc.a(lib_a-locale.o)
 .rodata        0x00028f48      0x124 c:/altera/13.1/nios2eds/bin/gnu/h-i686-mingw32/bin/../lib/gcc/nios2-elf/4.7.3/../../../../../H-i686-mingw32/nios2-elf/lib\libc.a(lib_a-mprec.o)
                0x00028f48                __mprec_tinytens
                0x00028f70                __mprec_bigtens
                0x00028f98                __mprec_tens
 .rodata        0x0002906c       0x14 c:/altera/13.1/nios2eds/bin/gnu/h-i686-mingw32/bin/../lib/gcc/nios2-elf/4.7.3\libgcc.a(_thenan_df.o)
                0x0002906c                __thenan_df
 .rodata        0x00029080      0x100 c:/altera/13.1/nios2eds/bin/gnu/h-i686-mingw32/bin/../lib/gcc/nios2-elf/4.7.3\libgcc.a(_clz.o)
                0x00029080                __clz_tab
 *(.rodata1)
                0x00029180                . = ALIGN (0x4)
                0x00029180                PROVIDE (__ram_rodata_end, ABSOLUTE (.))
                0x000247b0                PROVIDE (__flash_rodata_start, LOADADDR (.rodata))

.rwdata         0x00029180      0xcfc
                0x00029180                PROVIDE (__ram_rwdata_start, ABSOLUTE (.))
                0x00029180                . = ALIGN (0x4)
 *(.got.plt)
 *(.got)
 *(.data1)
 *(.data .data.* .gnu.linkonce.d.*)
 .data          0x00029180        0x0 start.o
 .data          0x00029180        0x0 c:/altera/13.1/nios2eds/bin/gnu/h-i686-mingw32/bin/../lib/gcc/nios2-elf/4.7.3/../../../../../H-i686-mingw32/nios2-elf/lib/crt0.o
 .data          0x00029180        0x0 altera_avalon_sgdma.o
 .data          0x00029180      0x240 altera_avalon_tse_system_info.o
                0x00029180                tse_mac_device
 .data          0x000293c0        0x0 altera_avalon_tse.o
 .data          0x000293c0        0x0 altera_vic.o
 .data          0x000293c0        0x0 altera_vic_irq_init.o
 .data          0x000293c0        0x0 altera_vic_isr_register.o
 .data          0x000293c0        0x0 altera_vic_sw_intr.o
 .data          0x000293c0        0x0 altera_vic_set_level.o
 .data          0x000293c0        0x0 alt_usleep.o
 .data          0x000293c0        0x0 alt_busy_sleep.o
 .data          0x000293c0        0x0 alt_dcache_flush.o
 .data          0x000293c0        0x0 alt_irq_register.o
 .data          0x000293c0        0x0 alt_iic.o
 .data          0x000293c0        0x0 alt_remap_uncached.o
 .data          0x000293c0        0x0 alt_uncached_malloc.o
 .data          0x000293c0        0x0 alt_do_ctors.o
 .data          0x000293c0        0x0 alt_do_dtors.o
 .data          0x000293c0      0x1a8 alt_dev.o
                0x000293c0                alt_fd_list
                0x00029540                alt_dev_null
 .data          0x00029568        0x0 alt_dev_llist_insert.o
 .data          0x00029568        0x0 alt_errno.o
 .data          0x00029568        0x0 alt_find_dev.o
 .data          0x00029568        0x0 alt_io_redirect.o
 .data          0x00029568        0x0 alt_main.o
 .data          0x00029568        0x0 alt_malloc_lock.o
 .data          0x00029568        0x0 alt_release_fd.o
 .data          0x00029568       0x60 alt_sys_init.o
 .data          0x000295c8        0x0 api_lib.o
 .data          0x000295c8        0x0 api_msg.o
 .data          0x000295c8        0x0 err.o
 .data          0x000295c8        0x0 netbuf.o
 .data          0x000295c8        0x0 netdb.o
 .data          0x000295c8        0x0 netifapi.o
 .data          0x000295c8        0x0 sockets.o
 .data          0x000295c8        0x0 tcpip.o
 .data          0x000295c8        0x0 mem.o
 .data          0x000295c8        0x0 memp.o
 .data          0x000295c8        0x0 netif.o
 .data          0x000295c8        0x0 pbuf.o
 .data          0x000295c8        0x0 raw.o
 .data          0x000295c8        0x0 stats.o
 .data          0x000295c8        0x0 sys.o
 .data          0x000295c8        0x0 tcp.o
 .data          0x000295c8        0x0 tcp_in.o
 .data          0x000295c8        0x0 tcp_out.o
 .data          0x000295c8        0x0 udp.o
 .data          0x000295c8        0x0 dns.o
 .data          0x000295c8        0x0 init.o
 .data          0x000295c8        0x0 dhcp.o
 .data          0x000295c8        0x0 def.o
 .data          0x000295c8        0x0 timers.o
 .data          0x000295c8        0x0 asn1_dec.o
 .data          0x000295c8        0x0 asn1_enc.o
 .data          0x000295c8        0x0 mib2.o
 .data          0x000295c8        0x0 mib_structs.o
 .data          0x000295c8        0x0 msg_in.o
 .data          0x000295c8        0x0 msg_out.o
 .data          0x000295c8        0x0 autoip.o
 .data          0x000295c8        0x0 icmp.o
 .data          0x000295c8        0x0 igmp.o
 .data          0x000295c8        0x0 inet.o
 .data          0x000295c8        0x0 inet_chksum.o
 .data          0x000295c8        0x0 ip.o
 .data          0x000295c8        0x0 ip_addr.o
 .data          0x000295c8        0x0 ip_frag.o
 .data          0x000295c8        0x0 slipif.o
 .data          0x000295c8        0x0 etharp.o
 .data          0x000295c8        0x0 ethernetif.o
 .data          0x000295c8        0x0 auth.o
 .data          0x000295c8        0x0 fsm.o
 .data          0x000295c8        0x0 ipcp.o
 .data          0x000295c8        0x0 lcp.o
 .data          0x000295c8        0x0 magic.o
 .data          0x000295c8        0x0 ppp.o
 .data          0x000295c8        0x0 vj.o
 .data          0x000295c8        0x0 chap.o
 .data          0x000295c8        0x0 chpms.o
 .data          0x000295c8        0x0 md5.o
 .data          0x000295c8        0x0 pap.o
 .data          0x000295c8        0x0 ppp_oe.o
 .data          0x000295c8        0x0 randm.o
 .data          0x000295c8        0x0 alteraTseEthernetif.o
 .data          0x000295c8        0x0 fs.o
 .data          0x000295c8        0x0 fsdata.o
 .data          0x000295c8        0x0 httpd.o
 .data          0x000295c8        0x0 lwip_tse_mac.o
 .data          0x000295c8        0x0 tse_my_system.o
 .data          0x000295c8        0x0 lwip_test.o
 .data          0x000295c8        0x0 jtag_uart.o
 .data          0x000295c8        0x0 banner.o
 .data          0x000295c8        0x0 syslog.o
 .data          0x000295c8        0x0 serial.o
 .data          0x000295c8        0x0 log_output.o
 .data          0x000295c8        0x0 vasyslog.o
 .data          0x000295c8        0x0 t_perror.o
 .data          0x000295c8        0x0 strerror.o
 .data          0x000295c8        0x0 Os_Lcfg.o
 .data          0x000295c8        0x0 libkernel.a(prc_support.o)
 .data          0x000295c8        0x0 libkernel.a(target_config.o)
 .data          0x000295c8        0x0 libkernel.a(target_hw_counter.o)
 .data          0x000295c8        0x0 libkernel.a(prc_config.o)
 .data          0x000295c8        0x0 libkernel.a(vic.o)
 .data          0x000295c8        0x0 libkernel.a(avalon_timer.o)
 .data          0x000295c8        0x0 libkernel.a(counter_manage.o)
 .data          0x000295c8        0x0 libkernel.a(counter.o)
 .data          0x000295c8        0x0 libkernel.a(alarm.o)
 .data          0x000295c8        0x0 libkernel.a(osctl_manage.o)
 .data          0x000295c8        0x0 libkernel.a(osctl.o)
 .data          0x000295c8        0x0 libkernel.a(task_manage.o)
 .data          0x000295c8        0x0 libkernel.a(interrupt_manage.o)
 .data          0x000295c8        0x0 libkernel.a(interrupt.o)
 .data          0x000295c8        0x0 libkernel.a(task.o)
 .data          0x000295c8        0x0 c:/altera/13.1/nios2eds/bin/gnu/h-i686-mingw32/bin/../lib/gcc/nios2-elf/4.7.3/../../../../../H-i686-mingw32/nios2-elf/lib\libc.a(lib_a-atexit.o)
 .data          0x000295c8        0x0 c:/altera/13.1/nios2eds/bin/gnu/h-i686-mingw32/bin/../lib/gcc/nios2-elf/4.7.3/../../../../../H-i686-mingw32/nios2-elf/lib\libc.a(lib_a-exit.o)
 .data          0x000295c8      0x400 c:/altera/13.1/nios2eds/bin/gnu/h-i686-mingw32/bin/../lib/gcc/nios2-elf/4.7.3/../../../../../H-i686-mingw32/nios2-elf/lib\libc.a(lib_a-impure.o)
 .data          0x000299c8        0x0 c:/altera/13.1/nios2eds/bin/gnu/h-i686-mingw32/bin/../lib/gcc/nios2-elf/4.7.3/../../../../../H-i686-mingw32/nios2-elf/lib\libc.a(lib_a-int_errno.o)
 .data          0x000299c8        0x0 c:/altera/13.1/nios2eds/bin/gnu/h-i686-mingw32/bin/../lib/gcc/nios2-elf/4.7.3/../../../../../H-i686-mingw32/nios2-elf/lib\libc.a(lib_a-malloc.o)
 .data          0x000299c8      0x408 c:/altera/13.1/nios2eds/bin/gnu/h-i686-mingw32/bin/../lib/gcc/nios2-elf/4.7.3/../../../../../H-i686-mingw32/nios2-elf/lib\libc.a(lib_a-mallocr.o)
                0x000299c8                __malloc_av_
 .data          0x00029dd0        0x0 c:/altera/13.1/nios2eds/bin/gnu/h-i686-mingw32/bin/../lib/gcc/nios2-elf/4.7.3/../../../../../H-i686-mingw32/nios2-elf/lib\libc.a(lib_a-memcmp.o)
 .data          0x00029dd0        0x0 c:/altera/13.1/nios2eds/bin/gnu/h-i686-mingw32/bin/../lib/gcc/nios2-elf/4.7.3/../../../../../H-i686-mingw32/nios2-elf/lib\libc.a(lib_a-memcpy.o)
 .data          0x00029dd0        0x0 c:/altera/13.1/nios2eds/bin/gnu/h-i686-mingw32/bin/../lib/gcc/nios2-elf/4.7.3/../../../../../H-i686-mingw32/nios2-elf/lib\libc.a(lib_a-memset.o)
 .data          0x00029dd0        0x0 c:/altera/13.1/nios2eds/bin/gnu/h-i686-mingw32/bin/../lib/gcc/nios2-elf/4.7.3/../../../../../H-i686-mingw32/nios2-elf/lib\libc.a(lib_a-printf.o)
 .data          0x00029dd0        0x0 c:/altera/13.1/nios2eds/bin/gnu/h-i686-mingw32/bin/../lib/gcc/nios2-elf/4.7.3/../../../../../H-i686-mingw32/nios2-elf/lib\libc.a(lib_a-puts.o)
 .data          0x00029dd0        0x0 c:/altera/13.1/nios2eds/bin/gnu/h-i686-mingw32/bin/../lib/gcc/nios2-elf/4.7.3/../../../../../H-i686-mingw32/nios2-elf/lib\libc.a(lib_a-sbrkr.o)
 .data          0x00029dd0        0x0 c:/altera/13.1/nios2eds/bin/gnu/h-i686-mingw32/bin/../lib/gcc/nios2-elf/4.7.3/../../../../../H-i686-mingw32/nios2-elf/lib\libc.a(lib_a-strcmp.o)
 .data          0x00029dd0        0x0 c:/altera/13.1/nios2eds/bin/gnu/h-i686-mingw32/bin/../lib/gcc/nios2-elf/4.7.3/../../../../../H-i686-mingw32/nios2-elf/lib\libc.a(lib_a-strcpy.o)
 .data          0x00029dd0        0x0 c:/altera/13.1/nios2eds/bin/gnu/h-i686-mingw32/bin/../lib/gcc/nios2-elf/4.7.3/../../../../../H-i686-mingw32/nios2-elf/lib\libc.a(lib_a-strlen.o)
 .data          0x00029dd0        0x0 c:/altera/13.1/nios2eds/bin/gnu/h-i686-mingw32/bin/../lib/gcc/nios2-elf/4.7.3/../../../../../H-i686-mingw32/nios2-elf/lib\libc.a(lib_a-strncmp.o)
 .data          0x00029dd0        0x0 c:/altera/13.1/nios2eds/bin/gnu/h-i686-mingw32/bin/../lib/gcc/nios2-elf/4.7.3/../../../../../H-i686-mingw32/nios2-elf/lib\libc.a(lib_a-vfprintf.o)
 .data          0x00029dd0        0x0 c:/altera/13.1/nios2eds/bin/gnu/h-i686-mingw32/bin/../lib/gcc/nios2-elf/4.7.3/../../../../../H-i686-mingw32/nios2-elf/lib\libc.a(lib_a-wsetup.o)
 .data          0x00029dd0        0x0 c:/altera/13.1/nios2eds/bin/gnu/h-i686-mingw32/bin/../lib/gcc/nios2-elf/4.7.3/../../../../../H-i686-mingw32/nios2-elf/lib\libc.a(lib_a-__atexit.o)
 .data          0x00029dd0        0x0 c:/altera/13.1/nios2eds/bin/gnu/h-i686-mingw32/bin/../lib/gcc/nios2-elf/4.7.3/../../../../../H-i686-mingw32/nios2-elf/lib\libc.a(lib_a-__call_atexit.o)
 .data          0x00029dd0        0x0 c:/altera/13.1/nios2eds/bin/gnu/h-i686-mingw32/bin/../lib/gcc/nios2-elf/4.7.3/../../../../../H-i686-mingw32/nios2-elf/lib\libc.a(lib_a-dtoa.o)
 .data          0x00029dd0        0x0 c:/altera/13.1/nios2eds/bin/gnu/h-i686-mingw32/bin/../lib/gcc/nios2-elf/4.7.3/../../../../../H-i686-mingw32/nios2-elf/lib\libc.a(lib_a-fflush.o)
 .data          0x00029dd0        0x0 c:/altera/13.1/nios2eds/bin/gnu/h-i686-mingw32/bin/../lib/gcc/nios2-elf/4.7.3/../../../../../H-i686-mingw32/nios2-elf/lib\libc.a(lib_a-findfp.o)
 .data          0x00029dd0        0x0 c:/altera/13.1/nios2eds/bin/gnu/h-i686-mingw32/bin/../lib/gcc/nios2-elf/4.7.3/../../../../../H-i686-mingw32/nios2-elf/lib\libc.a(lib_a-freer.o)
 .data          0x00029dd0        0x0 c:/altera/13.1/nios2eds/bin/gnu/h-i686-mingw32/bin/../lib/gcc/nios2-elf/4.7.3/../../../../../H-i686-mingw32/nios2-elf/lib\libc.a(lib_a-fvwrite.o)
 .data          0x00029dd0        0x0 c:/altera/13.1/nios2eds/bin/gnu/h-i686-mingw32/bin/../lib/gcc/nios2-elf/4.7.3/../../../../../H-i686-mingw32/nios2-elf/lib\libc.a(lib_a-fwalk.o)
 .data          0x00029dd0        0xc c:/altera/13.1/nios2eds/bin/gnu/h-i686-mingw32/bin/../lib/gcc/nios2-elf/4.7.3/../../../../../H-i686-mingw32/nios2-elf/lib\libc.a(lib_a-locale.o)
                0x00029dd0                __lc_ctype
 .data          0x00029ddc        0x0 c:/altera/13.1/nios2eds/bin/gnu/h-i686-mingw32/bin/../lib/gcc/nios2-elf/4.7.3/../../../../../H-i686-mingw32/nios2-elf/lib\libc.a(lib_a-makebuf.o)
 .data          0x00029ddc        0x0 c:/altera/13.1/nios2eds/bin/gnu/h-i686-mingw32/bin/../lib/gcc/nios2-elf/4.7.3/../../../../../H-i686-mingw32/nios2-elf/lib\libc.a(lib_a-memchr.o)
 .data          0x00029ddc        0x0 c:/altera/13.1/nios2eds/bin/gnu/h-i686-mingw32/bin/../lib/gcc/nios2-elf/4.7.3/../../../../../H-i686-mingw32/nios2-elf/lib\libc.a(lib_a-memmove.o)
 .data          0x00029ddc        0x0 c:/altera/13.1/nios2eds/bin/gnu/h-i686-mingw32/bin/../lib/gcc/nios2-elf/4.7.3/../../../../../H-i686-mingw32/nios2-elf/lib\libc.a(lib_a-mprec.o)
 .data          0x00029ddc        0x0 c:/altera/13.1/nios2eds/bin/gnu/h-i686-mingw32/bin/../lib/gcc/nios2-elf/4.7.3/../../../../../H-i686-mingw32/nios2-elf/lib\libc.a(lib_a-reallocr.o)
 .data          0x00029ddc        0x0 c:/altera/13.1/nios2eds/bin/gnu/h-i686-mingw32/bin/../lib/gcc/nios2-elf/4.7.3/../../../../../H-i686-mingw32/nios2-elf/lib\libc.a(lib_a-s_isinfd.o)
 .data          0x00029ddc        0x0 c:/altera/13.1/nios2eds/bin/gnu/h-i686-mingw32/bin/../lib/gcc/nios2-elf/4.7.3/../../../../../H-i686-mingw32/nios2-elf/lib\libc.a(lib_a-s_isnand.o)
 .data          0x00029ddc        0x0 c:/altera/13.1/nios2eds/bin/gnu/h-i686-mingw32/bin/../lib/gcc/nios2-elf/4.7.3/../../../../../H-i686-mingw32/nios2-elf/lib\libc.a(lib_a-stdio.o)
 .data          0x00029ddc        0x0 c:/altera/13.1/nios2eds/bin/gnu/h-i686-mingw32/bin/../lib/gcc/nios2-elf/4.7.3/../../../../../H-i686-mingw32/nios2-elf/lib\libc.a(lib_a-writer.o)
 .data          0x00029ddc        0x0 c:/altera/13.1/nios2eds/bin/gnu/h-i686-mingw32/bin/../lib/gcc/nios2-elf/4.7.3/../../../../../H-i686-mingw32/nios2-elf/lib\libc.a(lib_a-callocr.o)
 .data          0x00029ddc        0x0 c:/altera/13.1/nios2eds/bin/gnu/h-i686-mingw32/bin/../lib/gcc/nios2-elf/4.7.3/../../../../../H-i686-mingw32/nios2-elf/lib\libc.a(lib_a-closer.o)
 .data          0x00029ddc        0x0 c:/altera/13.1/nios2eds/bin/gnu/h-i686-mingw32/bin/../lib/gcc/nios2-elf/4.7.3/../../../../../H-i686-mingw32/nios2-elf/lib\libc.a(lib_a-fclose.o)
 .data          0x00029ddc        0x0 c:/altera/13.1/nios2eds/bin/gnu/h-i686-mingw32/bin/../lib/gcc/nios2-elf/4.7.3/../../../../../H-i686-mingw32/nios2-elf/lib\libc.a(lib_a-fstatr.o)
 .data          0x00029ddc        0x0 c:/altera/13.1/nios2eds/bin/gnu/h-i686-mingw32/bin/../lib/gcc/nios2-elf/4.7.3/../../../../../H-i686-mingw32/nios2-elf/lib\libc.a(lib_a-isattyr.o)
 .data          0x00029ddc        0x0 c:/altera/13.1/nios2eds/bin/gnu/h-i686-mingw32/bin/../lib/gcc/nios2-elf/4.7.3/../../../../../H-i686-mingw32/nios2-elf/lib\libc.a(lib_a-lseekr.o)
 .data          0x00029ddc        0x0 c:/altera/13.1/nios2eds/bin/gnu/h-i686-mingw32/bin/../lib/gcc/nios2-elf/4.7.3/../../../../../H-i686-mingw32/nios2-elf/lib\libc.a(lib_a-readr.o)
 .data          0x00029ddc        0x0 c:/altera/13.1/nios2eds/bin/gnu/h-i686-mingw32/bin/../lib/gcc/nios2-elf/4.7.3\libgcc.a(_udivdi3.o)
 .data          0x00029ddc        0x0 c:/altera/13.1/nios2eds/bin/gnu/h-i686-mingw32/bin/../lib/gcc/nios2-elf/4.7.3\libgcc.a(_umoddi3.o)
 .data          0x00029ddc        0x0 c:/altera/13.1/nios2eds/bin/gnu/h-i686-mingw32/bin/../lib/gcc/nios2-elf/4.7.3\libgcc.a(_addsub_df.o)
 .data          0x00029ddc        0x0 c:/altera/13.1/nios2eds/bin/gnu/h-i686-mingw32/bin/../lib/gcc/nios2-elf/4.7.3\libgcc.a(_mul_df.o)
 .data          0x00029ddc        0x0 c:/altera/13.1/nios2eds/bin/gnu/h-i686-mingw32/bin/../lib/gcc/nios2-elf/4.7.3\libgcc.a(_div_df.o)
 .data          0x00029ddc        0x0 c:/altera/13.1/nios2eds/bin/gnu/h-i686-mingw32/bin/../lib/gcc/nios2-elf/4.7.3\libgcc.a(_eq_df.o)
 .data          0x00029ddc        0x0 c:/altera/13.1/nios2eds/bin/gnu/h-i686-mingw32/bin/../lib/gcc/nios2-elf/4.7.3\libgcc.a(_ne_df.o)
 .data          0x00029ddc        0x0 c:/altera/13.1/nios2eds/bin/gnu/h-i686-mingw32/bin/../lib/gcc/nios2-elf/4.7.3\libgcc.a(_gt_df.o)
 .data          0x00029ddc        0x0 c:/altera/13.1/nios2eds/bin/gnu/h-i686-mingw32/bin/../lib/gcc/nios2-elf/4.7.3\libgcc.a(_ge_df.o)
 .data          0x00029ddc        0x0 c:/altera/13.1/nios2eds/bin/gnu/h-i686-mingw32/bin/../lib/gcc/nios2-elf/4.7.3\libgcc.a(_lt_df.o)
 .data          0x00029ddc        0x0 c:/altera/13.1/nios2eds/bin/gnu/h-i686-mingw32/bin/../lib/gcc/nios2-elf/4.7.3\libgcc.a(_si_to_df.o)
 .data          0x00029ddc        0x0 c:/altera/13.1/nios2eds/bin/gnu/h-i686-mingw32/bin/../lib/gcc/nios2-elf/4.7.3\libgcc.a(_df_to_si.o)
 .data          0x00029ddc        0x0 c:/altera/13.1/nios2eds/bin/gnu/h-i686-mingw32/bin/../lib/gcc/nios2-elf/4.7.3\libgcc.a(_thenan_df.o)
 .data          0x00029ddc        0x0 c:/altera/13.1/nios2eds/bin/gnu/h-i686-mingw32/bin/../lib/gcc/nios2-elf/4.7.3\libgcc.a(_usi_to_df.o)
 .data          0x00029ddc        0x0 c:/altera/13.1/nios2eds/bin/gnu/h-i686-mingw32/bin/../lib/gcc/nios2-elf/4.7.3\libgcc.a(lib2-divmod.o)
 .data          0x00029ddc        0x0 c:/altera/13.1/nios2eds/bin/gnu/h-i686-mingw32/bin/../lib/gcc/nios2-elf/4.7.3\libgcc.a(_muldi3.o)
 .data          0x00029ddc        0x0 c:/altera/13.1/nios2eds/bin/gnu/h-i686-mingw32/bin/../lib/gcc/nios2-elf/4.7.3\libgcc.a(_clz.o)
 .data          0x00029ddc        0x0 c:/altera/13.1/nios2eds/bin/gnu/h-i686-mingw32/bin/../lib/gcc/nios2-elf/4.7.3\libgcc.a(_clzsi2.o)
 .data          0x00029ddc        0x0 c:/altera/13.1/nios2eds/bin/gnu/h-i686-mingw32/bin/../lib/gcc/nios2-elf/4.7.3\libgcc.a(_pack_df.o)
 .data          0x00029ddc        0x0 c:/altera/13.1/nios2eds/bin/gnu/h-i686-mingw32/bin/../lib/gcc/nios2-elf/4.7.3\libgcc.a(_unpack_df.o)
 .data          0x00029ddc        0x0 c:/altera/13.1/nios2eds/bin/gnu/h-i686-mingw32/bin/../lib/gcc/nios2-elf/4.7.3\libgcc.a(_fpcmp_parts_df.o)
 .data          0x00029ddc        0x0 c:/altera/13.1/nios2eds/bin/gnu/h-i686-mingw32/bin/../lib/gcc/nios2-elf/4.7.3\libgcc.a(_lshrdi3.o)
 .data          0x00029ddc        0x0 c:/altera/13.1/nios2eds/bin/gnu/h-i686-mingw32/bin/../lib/gcc/nios2-elf/4.7.3\libgcc.a(_ashldi3.o)
 .data          0x00029ddc        0x0 c:/altera/13.1/nios2eds/bin/gnu/h-i686-mingw32/bin/../lib/gcc/nios2-elf/4.7.3/../../../../../H-i686-mingw32/nios2-elf/lib\libnosys.a(nosys_sbrk.o)
 .data          0x00029ddc        0x0 c:/altera/13.1/nios2eds/bin/gnu/h-i686-mingw32/bin/../lib/gcc/nios2-elf/4.7.3/../../../../../H-i686-mingw32/nios2-elf/lib\libnosys.a(nosys_close.o)
 .data          0x00029ddc        0x0 c:/altera/13.1/nios2eds/bin/gnu/h-i686-mingw32/bin/../lib/gcc/nios2-elf/4.7.3/../../../../../H-i686-mingw32/nios2-elf/lib\libnosys.a(nosys_crt0.o)
 .data          0x00029ddc        0x0 c:/altera/13.1/nios2eds/bin/gnu/h-i686-mingw32/bin/../lib/gcc/nios2-elf/4.7.3/../../../../../H-i686-mingw32/nios2-elf/lib\libnosys.a(nosys_exit.o)
 .data          0x00029ddc        0x0 c:/altera/13.1/nios2eds/bin/gnu/h-i686-mingw32/bin/../lib/gcc/nios2-elf/4.7.3/../../../../../H-i686-mingw32/nios2-elf/lib\libnosys.a(nosys_fstat.o)
 .data          0x00029ddc        0x0 c:/altera/13.1/nios2eds/bin/gnu/h-i686-mingw32/bin/../lib/gcc/nios2-elf/4.7.3/../../../../../H-i686-mingw32/nios2-elf/lib\libnosys.a(nosys_isatty.o)
 .data          0x00029ddc        0x0 c:/altera/13.1/nios2eds/bin/gnu/h-i686-mingw32/bin/../lib/gcc/nios2-elf/4.7.3/../../../../../H-i686-mingw32/nios2-elf/lib\libnosys.a(nosys_lseek.o)
 .data          0x00029ddc        0x0 c:/altera/13.1/nios2eds/bin/gnu/h-i686-mingw32/bin/../lib/gcc/nios2-elf/4.7.3/../../../../../H-i686-mingw32/nios2-elf/lib\libnosys.a(nosys_open.o)
 .data          0x00029ddc        0x0 c:/altera/13.1/nios2eds/bin/gnu/h-i686-mingw32/bin/../lib/gcc/nios2-elf/4.7.3/../../../../../H-i686-mingw32/nios2-elf/lib\libnosys.a(nosys_read.o)
 .data          0x00029ddc        0x0 c:/altera/13.1/nios2eds/bin/gnu/h-i686-mingw32/bin/../lib/gcc/nios2-elf/4.7.3/../../../../../H-i686-mingw32/nios2-elf/lib\libnosys.a(nosys_write.o)
 .data          0x00029ddc        0x0 c:/altera/13.1/nios2eds/bin/gnu/h-i686-mingw32/bin/../lib/gcc/nios2-elf/4.7.3/../../../../../H-i686-mingw32/nios2-elf/lib\libnosys.a(_zero_bss.o)
 .data          0x00029ddc        0x0 c:/altera/13.1/nios2eds/bin/gnu/h-i686-mingw32/bin/../lib/gcc/nios2-elf/4.7.3/../../../../../H-i686-mingw32/nios2-elf/lib\libstack.a(_stack.o)
                0x00031dcc                _gp = ABSOLUTE ((. + 0x7ff0))
                0x00031dcc                PROVIDE (gp, _gp)
 *(.rwdata .rwdata.*)
 *(.sdata .sdata.* .gnu.linkonce.s.*)
 .sdata         0x00029ddc        0x8 altera_avalon_sgdma.o
                0x00029ddc                alt_sgdma_list
 .sdata         0x00029de4        0x1 altera_avalon_tse.o
                0x00029de4                max_mac_system
 *fill*         0x00029de5        0x3 
 .sdata         0x00029de8       0x14 alt_dev.o
                0x00029de8                alt_max_fd
                0x00029dec                alt_dev_list
                0x00029df4                alt_fs_list
 .sdata         0x00029dfc        0x4 alt_errno.o
                0x00029dfc                alt_errno
 .sdata         0x00029e00       0x10 tcp.o
                0x00029e00                tcp_persist_backoff
 .sdata         0x00029e10        0x2 udp.o
 *fill*         0x00029e12        0x2 
 .sdata         0x00029e14        0x4 dhcp.o
 .sdata         0x00029e18        0x8 ip_addr.o
                0x00029e18                ip_addr_broadcast
                0x00029e1c                ip_addr_any
 .sdata         0x00029e20        0xc etharp.o
                0x00029e20                ethzero
                0x00029e26                ethbroadcast
 .sdata         0x00029e2c       0x3c Os_Lcfg.o
                0x00029e2c                tmin_status_il
                0x00029e30                _ostkpt
                0x00029e34                _ostk
                0x00029e38                _ostksz
                0x00029e3c                tnum_intno
                0x00029e40                tnum_implscheduletable
                0x00029e44                tnum_scheduletable
                0x00029e48                tnum_appmode
                0x00029e4c                tnum_exttask
                0x00029e50                tnum_task
                0x00029e54                tnum_stdresource
                0x00029e58                tnum_isr2
                0x00029e5c                tnum_hardcounter
                0x00029e60                tnum_counter
                0x00029e64                tnum_alarm
 .sdata         0x00029e68        0x8 c:/altera/13.1/nios2eds/bin/gnu/h-i686-mingw32/bin/../lib/gcc/nios2-elf/4.7.3/../../../../../H-i686-mingw32/nios2-elf/lib\libc.a(lib_a-impure.o)
                0x00029e68                _global_impure_ptr
                0x00029e6c                _impure_ptr
 .sdata         0x00029e70        0x8 c:/altera/13.1/nios2eds/bin/gnu/h-i686-mingw32/bin/../lib/gcc/nios2-elf/4.7.3/../../../../../H-i686-mingw32/nios2-elf/lib\libc.a(lib_a-mallocr.o)
                0x00029e70                __malloc_sbrk_base
                0x00029e74                __malloc_trim_threshold
 .sdata         0x00029e78        0x4 c:/altera/13.1/nios2eds/bin/gnu/h-i686-mingw32/bin/../lib/gcc/nios2-elf/4.7.3/../../../../../H-i686-mingw32/nios2-elf/lib\libc.a(lib_a-locale.o)
                0x00029e78                __mb_cur_max
 *(.sdata2 .sdata2.* .gnu.linkonce.s2.*)
                0x00029e7c                . = ALIGN (0x4)
                0x00029e7c                _edata = ABSOLUTE (.)
                0x00029e7c                PROVIDE (edata, ABSOLUTE (.))
                0x00029e7c                PROVIDE (__ram_rwdata_end, ABSOLUTE (.))
                0x00029180                PROVIDE (__flash_rwdata_start, LOADADDR (.rwdata))

.bss            0x00029e7c     0xed6c
                0x00029e7c                __bss_start = ABSOLUTE (.)
                0x00029e7c                PROVIDE (__sbss_start, ABSOLUTE (.))
                0x00029e7c                PROVIDE (___sbss_start, ABSOLUTE (.))
 *(.dynsbss)
 *(.sbss .sbss.* .gnu.linkonce.sb.*)
 .sbss          0x00029e7c        0x4 altera_avalon_tse.o
                0x00029e7c                mac_group_count
                0x00029e7d                phy_profile_count
 .sbss          0x00029e80        0x4 altera_vic_irq_init.o
                0x00029e80                alt_vic_dev_list
 .sbss          0x00029e84        0xc alt_main.o
                0x00029e84                alt_envp
                0x00029e88                alt_argv
                0x00029e8c                alt_argc
 .sbss          0x00029e90        0xc mem.o
 .sbss          0x00029e9c        0xc netif.o
                0x00029e9c                netif_default
                0x00029ea0                netif_list
 .sbss          0x00029ea8        0x1 pbuf.o
                0x00029ea8                pbuf_free_ooseq_pending
 *fill*         0x00029ea9        0x3 
 .sbss          0x00029eac        0x4 raw.o
 .sbss          0x00029eb0       0x20 tcp.o
                0x00029eb0                tcp_active_pcbs_changed
                0x00029eb4                tcp_tmp_pcb
                0x00029eb8                tcp_tw_pcbs
                0x00029ebc                tcp_active_pcbs
                0x00029ec0                tcp_listen_pcbs
                0x00029ec4                tcp_bound_pcbs
                0x00029ec8                tcp_ticks
 .sbss          0x00029ed0       0x20 tcp_in.o
                0x00029ed0                tcp_input_pcb
 .sbss          0x00029ef0        0x4 udp.o
                0x00029ef0                udp_pcbs
 .sbss          0x00029ef4       0x14 ip.o
                0x00029ef4                current_iphdr_dest
                0x00029ef8                current_iphdr_src
                0x00029efc                current_header
                0x00029f00                current_netif
 .sbss          0x00029f08        0x8 ip_frag.o
 .sbss          0x00029f10        0x1 etharp.o
 *fill*         0x00029f11        0x3 
 .sbss          0x00029f14        0xc lwip_test.o
                0x00029f14                lwipStaticIp
 .sbss          0x00029f20        0x1 jtag_uart.o
 *fill*         0x00029f21        0x3 
 .sbss          0x00029f24        0x4 syslog.o
 .sbss          0x00029f28        0x2 serial.o
 *fill*         0x00029f2a        0x2 
 .sbss          0x00029f2c        0xc libkernel.a(target_hw_counter.o)
 .sbss          0x00029f38       0x1c libkernel.a(prc_config.o)
                0x00029f38                saved_status_il
                0x00029f3c                nested_lock_os_int_cnt
                0x00029f40                nios2_cpu_exp_sp
                0x00029f44                nios2_cpu_exp_bad_addr
                0x00029f48                nios2_cpu_exp_pc
                0x00029f4c                nios2_cpu_exp_no
                0x00029f50                except_nest_cnt
 .sbss          0x00029f54        0x4 libkernel.a(avalon_timer.o)
 .sbss          0x00029f58       0x14 libkernel.a(osctl_manage.o)
                0x00029f58                fatal_line_num
                0x00029f5c                fatal_file_name
                0x00029f60                kerflg
                0x00029f64                appmodeid
                0x00029f68                callevel_stat
 .sbss          0x00029f6c       0x1c libkernel.a(osctl.o)
                0x00029f6c                errorhook_par3
                0x00029f70                errorhook_par2
                0x00029f74                errorhook_par1
                0x00029f78                _errorhook_par3
                0x00029f7c                _errorhook_par2
                0x00029f80                _errorhook_par1
                0x00029f84                _errorhook_svcid
 .sbss          0x00029f88        0x8 libkernel.a(interrupt.o)
                0x00029f88                sus_os_cnt_ctx
                0x00029f89                sus_os_cnt
                0x00029f8a                sus_all_cnt_ctx
                0x00029f8b                sus_all_cnt
                0x00029f8c                p_runisr
 .sbss          0x00029f90       0x10 libkernel.a(task.o)
                0x00029f90                ready_primap
                0x00029f94                nextpri
                0x00029f98                p_schedtsk
                0x00029f9c                p_runtsk
 .sbss          0x00029fa0        0x4 c:/altera/13.1/nios2eds/bin/gnu/h-i686-mingw32/bin/../lib/gcc/nios2-elf/4.7.3/../../../../../H-i686-mingw32/nios2-elf/lib\libc.a(lib_a-int_errno.o)
                0x00029fa0                errno
 .sbss          0x00029fa4        0xc c:/altera/13.1/nios2eds/bin/gnu/h-i686-mingw32/bin/../lib/gcc/nios2-elf/4.7.3/../../../../../H-i686-mingw32/nios2-elf/lib\libc.a(lib_a-mallocr.o)
                0x00029fa4                __malloc_max_total_mem
                0x00029fa8                __malloc_max_sbrked_mem
                0x00029fac                __malloc_top_pad
 .sbss          0x00029fb0        0xc c:/altera/13.1/nios2eds/bin/gnu/h-i686-mingw32/bin/../lib/gcc/nios2-elf/4.7.3/../../../../../H-i686-mingw32/nios2-elf/lib\libc.a(lib_a-locale.o)
                0x00029fb0                _PathLocale
                0x00029fb4                __mlocale_changed
                0x00029fb8                __nlocale_changed
 .sbss          0x00029fbc        0x4 c:/altera/13.1/nios2eds/bin/gnu/h-i686-mingw32/bin/../lib/gcc/nios2-elf/4.7.3/../../../../../H-i686-mingw32/nios2-elf/lib\libnosys.a(nosys_sbrk.o)
 *(.sbss2 .sbss2.* .gnu.linkonce.sb2.*)
 *(.scommon)
                0x00029fc0                PROVIDE (__sbss_end, ABSOLUTE (.))
                0x00029fc0                PROVIDE (___sbss_end, ABSOLUTE (.))
 *(.dynbss)
 *(.bss .bss.* .gnu.linkonce.b.*)
 .bss           0x00029fc0        0x0 start.o
 .bss           0x00029fc0        0x0 c:/altera/13.1/nios2eds/bin/gnu/h-i686-mingw32/bin/../lib/gcc/nios2-elf/4.7.3/../../../../../H-i686-mingw32/nios2-elf/lib/crt0.o
 .bss           0x00029fc0        0x0 altera_avalon_sgdma.o
 .bss           0x00029fc0        0x0 altera_avalon_tse_system_info.o
 .bss           0x00029fc0       0x40 altera_avalon_tse.o
                0x00029fc0                pmac_groups
                0x00029fe0                pphy_profiles
 .bss           0x0002a000        0x0 altera_vic.o
 .bss           0x0002a000        0x0 altera_vic_irq_init.o
 .bss           0x0002a000        0x0 altera_vic_isr_register.o
 .bss           0x0002a000        0x0 altera_vic_sw_intr.o
 .bss           0x0002a000        0x0 altera_vic_set_level.o
 .bss           0x0002a000        0x0 alt_usleep.o
 .bss           0x0002a000        0x0 alt_busy_sleep.o
 .bss           0x0002a000        0x0 alt_dcache_flush.o
 .bss           0x0002a000        0x0 alt_irq_register.o
 .bss           0x0002a000        0x0 alt_iic.o
 .bss           0x0002a000        0x0 alt_remap_uncached.o
 .bss           0x0002a000        0x0 alt_uncached_malloc.o
 .bss           0x0002a000        0x0 alt_do_ctors.o
 .bss           0x0002a000        0x0 alt_do_dtors.o
 .bss           0x0002a000        0x0 alt_dev.o
 .bss           0x0002a000        0x0 alt_dev_llist_insert.o
 .bss           0x0002a000        0x0 alt_errno.o
 .bss           0x0002a000        0x0 alt_find_dev.o
 .bss           0x0002a000        0x0 alt_io_redirect.o
 .bss           0x0002a000        0x0 alt_main.o
 .bss           0x0002a000        0x0 alt_malloc_lock.o
 .bss           0x0002a000        0x0 alt_release_fd.o
 .bss           0x0002a000        0x0 alt_sys_init.o
 .bss           0x0002a000        0x0 api_lib.o
 .bss           0x0002a000        0x0 api_msg.o
 .bss           0x0002a000        0x0 err.o
 .bss           0x0002a000        0x0 netbuf.o
 .bss           0x0002a000        0x0 netdb.o
 .bss           0x0002a000        0x0 netifapi.o
 .bss           0x0002a000        0x0 sockets.o
 .bss           0x0002a000        0x0 tcpip.o
 .bss           0x0002a000      0x654 mem.o
                0x0002a000                ram_heap
 .bss           0x0002a654     0xcdf4 memp.o
 .bss           0x00037448        0x0 netif.o
 .bss           0x00037448        0x0 pbuf.o
 .bss           0x00037448        0x0 raw.o
 .bss           0x00037448      0x11e stats.o
                0x00037448                lwip_stats
 .bss           0x00037566        0x0 sys.o
 .bss           0x00037566        0x0 tcp.o
 *fill*         0x00037566        0x2 
 .bss           0x00037568       0x10 tcp_in.o
 .bss           0x00037578        0x0 tcp_out.o
 .bss           0x00037578        0x0 udp.o
 .bss           0x00037578        0x0 dns.o
 .bss           0x00037578        0x0 init.o
 .bss           0x00037578       0x34 dhcp.o
                0x00037578                dhcp_rx_options_given
                0x00037584                dhcp_rx_options_val
 .bss           0x000375ac        0x0 def.o
 .bss           0x000375ac        0x0 timers.o
 .bss           0x000375ac        0x0 asn1_dec.o
 .bss           0x000375ac        0x0 asn1_enc.o
 .bss           0x000375ac        0x0 mib2.o
 .bss           0x000375ac        0x0 mib_structs.o
 .bss           0x000375ac        0x0 msg_in.o
 .bss           0x000375ac        0x0 msg_out.o
 .bss           0x000375ac        0x0 autoip.o
 .bss           0x000375ac        0x0 icmp.o
 .bss           0x000375ac        0x0 igmp.o
 .bss           0x000375ac        0x0 inet.o
 .bss           0x000375ac        0x0 inet_chksum.o
 .bss           0x000375ac        0x0 ip.o
 .bss           0x000375ac       0x10 ip_addr.o
 .bss           0x000375bc      0x5e0 ip_frag.o
 .bss           0x00037b9c        0x0 slipif.o
 .bss           0x00037b9c       0xc8 etharp.o
 .bss           0x00037c64        0x0 ethernetif.o
 .bss           0x00037c64        0x0 auth.o
 .bss           0x00037c64        0x0 fsm.o
 .bss           0x00037c64        0x0 ipcp.o
 .bss           0x00037c64        0x0 lcp.o
 .bss           0x00037c64        0x0 magic.o
 .bss           0x00037c64        0x0 ppp.o
 .bss           0x00037c64        0x0 vj.o
 .bss           0x00037c64        0x0 chap.o
 .bss           0x00037c64        0x0 chpms.o
 .bss           0x00037c64        0x0 md5.o
 .bss           0x00037c64        0x0 pap.o
 .bss           0x00037c64        0x0 ppp_oe.o
 .bss           0x00037c64        0x0 randm.o
 .bss           0x00037c64        0x0 alteraTseEthernetif.o
 .bss           0x00037c64        0x0 fs.o
 .bss           0x00037c64        0x0 fsdata.o
 .bss           0x00037c64        0x0 httpd.o
 .bss           0x00037c64      0x100 lwip_tse_mac.o
                0x00037c64                tse
 .bss           0x00037d64        0x0 tse_my_system.o
 .bss           0x00037d64       0x34 lwip_test.o
                0x00037d64                tseNetif
 .bss           0x00037d98        0x0 jtag_uart.o
 .bss           0x00037d98        0x0 banner.o
 .bss           0x00037d98        0x0 syslog.o
 .bss           0x00037d98        0x0 serial.o
 .bss           0x00037d98        0x0 log_output.o
 .bss           0x00037d98        0x0 vasyslog.o
 .bss           0x00037d98        0x0 t_perror.o
 .bss           0x00037d98        0x0 strerror.o
 .bss           0x00037d98      0xc18 Os_Lcfg.o
                0x00037d98                isrcb_table
                0x00037da8                resinib_table
                0x00037da8                schtblcb_table
                0x00037da8                almcb_table
                0x00037da8                schtblinib_table
                0x00037da8                rescb_table
                0x00037dc0                cntcb_table
                0x00037de8                tcb_table
 .bss           0x000389b0        0x0 libkernel.a(prc_support.o)
 .bss           0x000389b0        0x0 libkernel.a(target_config.o)
 .bss           0x000389b0        0x0 libkernel.a(target_hw_counter.o)
 .bss           0x000389b0        0x0 libkernel.a(prc_config.o)
 .bss           0x000389b0        0x0 libkernel.a(vic.o)
 .bss           0x000389b0        0x0 libkernel.a(avalon_timer.o)
 .bss           0x000389b0        0x0 libkernel.a(counter_manage.o)
 .bss           0x000389b0        0x0 libkernel.a(counter.o)
 .bss           0x000389b0        0x0 libkernel.a(alarm.o)
 .bss           0x000389b0        0x0 libkernel.a(osctl_manage.o)
 .bss           0x000389b0        0x0 libkernel.a(osctl.o)
 .bss           0x000389b0        0x0 libkernel.a(task_manage.o)
 .bss           0x000389b0        0x0 libkernel.a(interrupt_manage.o)
 .bss           0x000389b0        0x0 libkernel.a(interrupt.o)
 .bss           0x000389b0       0x80 libkernel.a(task.o)
                0x000389b0                ready_queue
 .bss           0x00038a30        0x0 c:/altera/13.1/nios2eds/bin/gnu/h-i686-mingw32/bin/../lib/gcc/nios2-elf/4.7.3/../../../../../H-i686-mingw32/nios2-elf/lib\libc.a(lib_a-atexit.o)
 .bss           0x00038a30        0x0 c:/altera/13.1/nios2eds/bin/gnu/h-i686-mingw32/bin/../lib/gcc/nios2-elf/4.7.3/../../../../../H-i686-mingw32/nios2-elf/lib\libc.a(lib_a-exit.o)
 .bss           0x00038a30        0x0 c:/altera/13.1/nios2eds/bin/gnu/h-i686-mingw32/bin/../lib/gcc/nios2-elf/4.7.3/../../../../../H-i686-mingw32/nios2-elf/lib\libc.a(lib_a-impure.o)
 .bss           0x00038a30        0x0 c:/altera/13.1/nios2eds/bin/gnu/h-i686-mingw32/bin/../lib/gcc/nios2-elf/4.7.3/../../../../../H-i686-mingw32/nios2-elf/lib\libc.a(lib_a-int_errno.o)
 .bss           0x00038a30        0x0 c:/altera/13.1/nios2eds/bin/gnu/h-i686-mingw32/bin/../lib/gcc/nios2-elf/4.7.3/../../../../../H-i686-mingw32/nios2-elf/lib\libc.a(lib_a-malloc.o)
 .bss           0x00038a30       0x28 c:/altera/13.1/nios2eds/bin/gnu/h-i686-mingw32/bin/../lib/gcc/nios2-elf/4.7.3/../../../../../H-i686-mingw32/nios2-elf/lib\libc.a(lib_a-mallocr.o)
                0x00038a30                __malloc_current_mallinfo
 .bss           0x00038a58        0x0 c:/altera/13.1/nios2eds/bin/gnu/h-i686-mingw32/bin/../lib/gcc/nios2-elf/4.7.3/../../../../../H-i686-mingw32/nios2-elf/lib\libc.a(lib_a-memcmp.o)
 .bss           0x00038a58        0x0 c:/altera/13.1/nios2eds/bin/gnu/h-i686-mingw32/bin/../lib/gcc/nios2-elf/4.7.3/../../../../../H-i686-mingw32/nios2-elf/lib\libc.a(lib_a-memcpy.o)
 .bss           0x00038a58        0x0 c:/altera/13.1/nios2eds/bin/gnu/h-i686-mingw32/bin/../lib/gcc/nios2-elf/4.7.3/../../../../../H-i686-mingw32/nios2-elf/lib\libc.a(lib_a-memset.o)
 .bss           0x00038a58        0x0 c:/altera/13.1/nios2eds/bin/gnu/h-i686-mingw32/bin/../lib/gcc/nios2-elf/4.7.3/../../../../../H-i686-mingw32/nios2-elf/lib\libc.a(lib_a-printf.o)
 .bss           0x00038a58        0x0 c:/altera/13.1/nios2eds/bin/gnu/h-i686-mingw32/bin/../lib/gcc/nios2-elf/4.7.3/../../../../../H-i686-mingw32/nios2-elf/lib\libc.a(lib_a-puts.o)
 .bss           0x00038a58        0x0 c:/altera/13.1/nios2eds/bin/gnu/h-i686-mingw32/bin/../lib/gcc/nios2-elf/4.7.3/../../../../../H-i686-mingw32/nios2-elf/lib\libc.a(lib_a-sbrkr.o)
 .bss           0x00038a58        0x0 c:/altera/13.1/nios2eds/bin/gnu/h-i686-mingw32/bin/../lib/gcc/nios2-elf/4.7.3/../../../../../H-i686-mingw32/nios2-elf/lib\libc.a(lib_a-strcmp.o)
 .bss           0x00038a58        0x0 c:/altera/13.1/nios2eds/bin/gnu/h-i686-mingw32/bin/../lib/gcc/nios2-elf/4.7.3/../../../../../H-i686-mingw32/nios2-elf/lib\libc.a(lib_a-strcpy.o)
 .bss           0x00038a58        0x0 c:/altera/13.1/nios2eds/bin/gnu/h-i686-mingw32/bin/../lib/gcc/nios2-elf/4.7.3/../../../../../H-i686-mingw32/nios2-elf/lib\libc.a(lib_a-strlen.o)
 .bss           0x00038a58        0x0 c:/altera/13.1/nios2eds/bin/gnu/h-i686-mingw32/bin/../lib/gcc/nios2-elf/4.7.3/../../../../../H-i686-mingw32/nios2-elf/lib\libc.a(lib_a-strncmp.o)
 .bss           0x00038a58        0x0 c:/altera/13.1/nios2eds/bin/gnu/h-i686-mingw32/bin/../lib/gcc/nios2-elf/4.7.3/../../../../../H-i686-mingw32/nios2-elf/lib\libc.a(lib_a-vfprintf.o)
 .bss           0x00038a58        0x0 c:/altera/13.1/nios2eds/bin/gnu/h-i686-mingw32/bin/../lib/gcc/nios2-elf/4.7.3/../../../../../H-i686-mingw32/nios2-elf/lib\libc.a(lib_a-wsetup.o)
 .bss           0x00038a58        0x0 c:/altera/13.1/nios2eds/bin/gnu/h-i686-mingw32/bin/../lib/gcc/nios2-elf/4.7.3/../../../../../H-i686-mingw32/nios2-elf/lib\libc.a(lib_a-__atexit.o)
 .bss           0x00038a58        0x0 c:/altera/13.1/nios2eds/bin/gnu/h-i686-mingw32/bin/../lib/gcc/nios2-elf/4.7.3/../../../../../H-i686-mingw32/nios2-elf/lib\libc.a(lib_a-__call_atexit.o)
 .bss           0x00038a58        0x0 c:/altera/13.1/nios2eds/bin/gnu/h-i686-mingw32/bin/../lib/gcc/nios2-elf/4.7.3/../../../../../H-i686-mingw32/nios2-elf/lib\libc.a(lib_a-dtoa.o)
 .bss           0x00038a58        0x0 c:/altera/13.1/nios2eds/bin/gnu/h-i686-mingw32/bin/../lib/gcc/nios2-elf/4.7.3/../../../../../H-i686-mingw32/nios2-elf/lib\libc.a(lib_a-fflush.o)
 .bss           0x00038a58        0x0 c:/altera/13.1/nios2eds/bin/gnu/h-i686-mingw32/bin/../lib/gcc/nios2-elf/4.7.3/../../../../../H-i686-mingw32/nios2-elf/lib\libc.a(lib_a-findfp.o)
 .bss           0x00038a58        0x0 c:/altera/13.1/nios2eds/bin/gnu/h-i686-mingw32/bin/../lib/gcc/nios2-elf/4.7.3/../../../../../H-i686-mingw32/nios2-elf/lib\libc.a(lib_a-freer.o)
 .bss           0x00038a58        0x0 c:/altera/13.1/nios2eds/bin/gnu/h-i686-mingw32/bin/../lib/gcc/nios2-elf/4.7.3/../../../../../H-i686-mingw32/nios2-elf/lib\libc.a(lib_a-fvwrite.o)
 .bss           0x00038a58        0x0 c:/altera/13.1/nios2eds/bin/gnu/h-i686-mingw32/bin/../lib/gcc/nios2-elf/4.7.3/../../../../../H-i686-mingw32/nios2-elf/lib\libc.a(lib_a-fwalk.o)
 .bss           0x00038a58        0x0 c:/altera/13.1/nios2eds/bin/gnu/h-i686-mingw32/bin/../lib/gcc/nios2-elf/4.7.3/../../../../../H-i686-mingw32/nios2-elf/lib\libc.a(lib_a-locale.o)
 .bss           0x00038a58        0x0 c:/altera/13.1/nios2eds/bin/gnu/h-i686-mingw32/bin/../lib/gcc/nios2-elf/4.7.3/../../../../../H-i686-mingw32/nios2-elf/lib\libc.a(lib_a-makebuf.o)
 .bss           0x00038a58        0x0 c:/altera/13.1/nios2eds/bin/gnu/h-i686-mingw32/bin/../lib/gcc/nios2-elf/4.7.3/../../../../../H-i686-mingw32/nios2-elf/lib\libc.a(lib_a-memchr.o)
 .bss           0x00038a58        0x0 c:/altera/13.1/nios2eds/bin/gnu/h-i686-mingw32/bin/../lib/gcc/nios2-elf/4.7.3/../../../../../H-i686-mingw32/nios2-elf/lib\libc.a(lib_a-memmove.o)
 .bss           0x00038a58        0x0 c:/altera/13.1/nios2eds/bin/gnu/h-i686-mingw32/bin/../lib/gcc/nios2-elf/4.7.3/../../../../../H-i686-mingw32/nios2-elf/lib\libc.a(lib_a-mprec.o)
 .bss           0x00038a58        0x0 c:/altera/13.1/nios2eds/bin/gnu/h-i686-mingw32/bin/../lib/gcc/nios2-elf/4.7.3/../../../../../H-i686-mingw32/nios2-elf/lib\libc.a(lib_a-reallocr.o)
 .bss           0x00038a58        0x0 c:/altera/13.1/nios2eds/bin/gnu/h-i686-mingw32/bin/../lib/gcc/nios2-elf/4.7.3/../../../../../H-i686-mingw32/nios2-elf/lib\libc.a(lib_a-s_isinfd.o)
 .bss           0x00038a58        0x0 c:/altera/13.1/nios2eds/bin/gnu/h-i686-mingw32/bin/../lib/gcc/nios2-elf/4.7.3/../../../../../H-i686-mingw32/nios2-elf/lib\libc.a(lib_a-s_isnand.o)
 .bss           0x00038a58        0x0 c:/altera/13.1/nios2eds/bin/gnu/h-i686-mingw32/bin/../lib/gcc/nios2-elf/4.7.3/../../../../../H-i686-mingw32/nios2-elf/lib\libc.a(lib_a-stdio.o)
 .bss           0x00038a58        0x0 c:/altera/13.1/nios2eds/bin/gnu/h-i686-mingw32/bin/../lib/gcc/nios2-elf/4.7.3/../../../../../H-i686-mingw32/nios2-elf/lib\libc.a(lib_a-writer.o)
 .bss           0x00038a58        0x0 c:/altera/13.1/nios2eds/bin/gnu/h-i686-mingw32/bin/../lib/gcc/nios2-elf/4.7.3/../../../../../H-i686-mingw32/nios2-elf/lib\libc.a(lib_a-callocr.o)
 .bss           0x00038a58        0x0 c:/altera/13.1/nios2eds/bin/gnu/h-i686-mingw32/bin/../lib/gcc/nios2-elf/4.7.3/../../../../../H-i686-mingw32/nios2-elf/lib\libc.a(lib_a-closer.o)
 .bss           0x00038a58        0x0 c:/altera/13.1/nios2eds/bin/gnu/h-i686-mingw32/bin/../lib/gcc/nios2-elf/4.7.3/../../../../../H-i686-mingw32/nios2-elf/lib\libc.a(lib_a-fclose.o)
 .bss           0x00038a58        0x0 c:/altera/13.1/nios2eds/bin/gnu/h-i686-mingw32/bin/../lib/gcc/nios2-elf/4.7.3/../../../../../H-i686-mingw32/nios2-elf/lib\libc.a(lib_a-fstatr.o)
 .bss           0x00038a58        0x0 c:/altera/13.1/nios2eds/bin/gnu/h-i686-mingw32/bin/../lib/gcc/nios2-elf/4.7.3/../../../../../H-i686-mingw32/nios2-elf/lib\libc.a(lib_a-isattyr.o)
 .bss           0x00038a58        0x0 c:/altera/13.1/nios2eds/bin/gnu/h-i686-mingw32/bin/../lib/gcc/nios2-elf/4.7.3/../../../../../H-i686-mingw32/nios2-elf/lib\libc.a(lib_a-lseekr.o)
 .bss           0x00038a58        0x0 c:/altera/13.1/nios2eds/bin/gnu/h-i686-mingw32/bin/../lib/gcc/nios2-elf/4.7.3/../../../../../H-i686-mingw32/nios2-elf/lib\libc.a(lib_a-readr.o)
 .bss           0x00038a58        0x0 c:/altera/13.1/nios2eds/bin/gnu/h-i686-mingw32/bin/../lib/gcc/nios2-elf/4.7.3\libgcc.a(_udivdi3.o)
 .bss           0x00038a58        0x0 c:/altera/13.1/nios2eds/bin/gnu/h-i686-mingw32/bin/../lib/gcc/nios2-elf/4.7.3\libgcc.a(_umoddi3.o)
 .bss           0x00038a58        0x0 c:/altera/13.1/nios2eds/bin/gnu/h-i686-mingw32/bin/../lib/gcc/nios2-elf/4.7.3\libgcc.a(_addsub_df.o)
 .bss           0x00038a58        0x0 c:/altera/13.1/nios2eds/bin/gnu/h-i686-mingw32/bin/../lib/gcc/nios2-elf/4.7.3\libgcc.a(_mul_df.o)
 .bss           0x00038a58        0x0 c:/altera/13.1/nios2eds/bin/gnu/h-i686-mingw32/bin/../lib/gcc/nios2-elf/4.7.3\libgcc.a(_div_df.o)
 .bss           0x00038a58        0x0 c:/altera/13.1/nios2eds/bin/gnu/h-i686-mingw32/bin/../lib/gcc/nios2-elf/4.7.3\libgcc.a(_eq_df.o)
 .bss           0x00038a58        0x0 c:/altera/13.1/nios2eds/bin/gnu/h-i686-mingw32/bin/../lib/gcc/nios2-elf/4.7.3\libgcc.a(_ne_df.o)
 .bss           0x00038a58        0x0 c:/altera/13.1/nios2eds/bin/gnu/h-i686-mingw32/bin/../lib/gcc/nios2-elf/4.7.3\libgcc.a(_gt_df.o)
 .bss           0x00038a58        0x0 c:/altera/13.1/nios2eds/bin/gnu/h-i686-mingw32/bin/../lib/gcc/nios2-elf/4.7.3\libgcc.a(_ge_df.o)
 .bss           0x00038a58        0x0 c:/altera/13.1/nios2eds/bin/gnu/h-i686-mingw32/bin/../lib/gcc/nios2-elf/4.7.3\libgcc.a(_lt_df.o)
 .bss           0x00038a58        0x0 c:/altera/13.1/nios2eds/bin/gnu/h-i686-mingw32/bin/../lib/gcc/nios2-elf/4.7.3\libgcc.a(_si_to_df.o)
 .bss           0x00038a58        0x0 c:/altera/13.1/nios2eds/bin/gnu/h-i686-mingw32/bin/../lib/gcc/nios2-elf/4.7.3\libgcc.a(_df_to_si.o)
 .bss           0x00038a58        0x0 c:/altera/13.1/nios2eds/bin/gnu/h-i686-mingw32/bin/../lib/gcc/nios2-elf/4.7.3\libgcc.a(_thenan_df.o)
 .bss           0x00038a58        0x0 c:/altera/13.1/nios2eds/bin/gnu/h-i686-mingw32/bin/../lib/gcc/nios2-elf/4.7.3\libgcc.a(_usi_to_df.o)
 .bss           0x00038a58        0x0 c:/altera/13.1/nios2eds/bin/gnu/h-i686-mingw32/bin/../lib/gcc/nios2-elf/4.7.3\libgcc.a(lib2-divmod.o)
 .bss           0x00038a58        0x0 c:/altera/13.1/nios2eds/bin/gnu/h-i686-mingw32/bin/../lib/gcc/nios2-elf/4.7.3\libgcc.a(_muldi3.o)
 .bss           0x00038a58        0x0 c:/altera/13.1/nios2eds/bin/gnu/h-i686-mingw32/bin/../lib/gcc/nios2-elf/4.7.3\libgcc.a(_clz.o)
 .bss           0x00038a58        0x0 c:/altera/13.1/nios2eds/bin/gnu/h-i686-mingw32/bin/../lib/gcc/nios2-elf/4.7.3\libgcc.a(_clzsi2.o)
 .bss           0x00038a58        0x0 c:/altera/13.1/nios2eds/bin/gnu/h-i686-mingw32/bin/../lib/gcc/nios2-elf/4.7.3\libgcc.a(_pack_df.o)
 .bss           0x00038a58        0x0 c:/altera/13.1/nios2eds/bin/gnu/h-i686-mingw32/bin/../lib/gcc/nios2-elf/4.7.3\libgcc.a(_unpack_df.o)
 .bss           0x00038a58        0x0 c:/altera/13.1/nios2eds/bin/gnu/h-i686-mingw32/bin/../lib/gcc/nios2-elf/4.7.3\libgcc.a(_fpcmp_parts_df.o)
 .bss           0x00038a58        0x0 c:/altera/13.1/nios2eds/bin/gnu/h-i686-mingw32/bin/../lib/gcc/nios2-elf/4.7.3\libgcc.a(_lshrdi3.o)
 .bss           0x00038a58        0x0 c:/altera/13.1/nios2eds/bin/gnu/h-i686-mingw32/bin/../lib/gcc/nios2-elf/4.7.3\libgcc.a(_ashldi3.o)
 .bss           0x00038a58        0x0 c:/altera/13.1/nios2eds/bin/gnu/h-i686-mingw32/bin/../lib/gcc/nios2-elf/4.7.3/../../../../../H-i686-mingw32/nios2-elf/lib\libnosys.a(nosys_sbrk.o)
 .bss           0x00038a58        0x0 c:/altera/13.1/nios2eds/bin/gnu/h-i686-mingw32/bin/../lib/gcc/nios2-elf/4.7.3/../../../../../H-i686-mingw32/nios2-elf/lib\libnosys.a(nosys_close.o)
 .bss           0x00038a58        0x0 c:/altera/13.1/nios2eds/bin/gnu/h-i686-mingw32/bin/../lib/gcc/nios2-elf/4.7.3/../../../../../H-i686-mingw32/nios2-elf/lib\libnosys.a(nosys_crt0.o)
 .bss           0x00038a58        0x0 c:/altera/13.1/nios2eds/bin/gnu/h-i686-mingw32/bin/../lib/gcc/nios2-elf/4.7.3/../../../../../H-i686-mingw32/nios2-elf/lib\libnosys.a(nosys_exit.o)
 .bss           0x00038a58        0x0 c:/altera/13.1/nios2eds/bin/gnu/h-i686-mingw32/bin/../lib/gcc/nios2-elf/4.7.3/../../../../../H-i686-mingw32/nios2-elf/lib\libnosys.a(nosys_fstat.o)
 .bss           0x00038a58        0x0 c:/altera/13.1/nios2eds/bin/gnu/h-i686-mingw32/bin/../lib/gcc/nios2-elf/4.7.3/../../../../../H-i686-mingw32/nios2-elf/lib\libnosys.a(nosys_isatty.o)
 .bss           0x00038a58        0x0 c:/altera/13.1/nios2eds/bin/gnu/h-i686-mingw32/bin/../lib/gcc/nios2-elf/4.7.3/../../../../../H-i686-mingw32/nios2-elf/lib\libnosys.a(nosys_lseek.o)
 .bss           0x00038a58        0x0 c:/altera/13.1/nios2eds/bin/gnu/h-i686-mingw32/bin/../lib/gcc/nios2-elf/4.7.3/../../../../../H-i686-mingw32/nios2-elf/lib\libnosys.a(nosys_open.o)
 .bss           0x00038a58        0x0 c:/altera/13.1/nios2eds/bin/gnu/h-i686-mingw32/bin/../lib/gcc/nios2-elf/4.7.3/../../../../../H-i686-mingw32/nios2-elf/lib\libnosys.a(nosys_read.o)
 .bss           0x00038a58        0x0 c:/altera/13.1/nios2eds/bin/gnu/h-i686-mingw32/bin/../lib/gcc/nios2-elf/4.7.3/../../../../../H-i686-mingw32/nios2-elf/lib\libnosys.a(nosys_write.o)
 .bss           0x00038a58        0x0 c:/altera/13.1/nios2eds/bin/gnu/h-i686-mingw32/bin/../lib/gcc/nios2-elf/4.7.3/../../../../../H-i686-mingw32/nios2-elf/lib\libnosys.a(_zero_bss.o)
 .bss           0x00038a58        0x0 c:/altera/13.1/nios2eds/bin/gnu/h-i686-mingw32/bin/../lib/gcc/nios2-elf/4.7.3/../../../../../H-i686-mingw32/nios2-elf/lib\libstack.a(_stack.o)
 *(COMMON)
 COMMON         0x00038a58      0x190 c:/altera/13.1/nios2eds/bin/gnu/h-i686-mingw32/bin/../lib/gcc/nios2-elf/4.7.3/../../../../../H-i686-mingw32/nios2-elf/lib\libc.a(lib_a-atexit.o)
                0x00038a58                _atexit0
                0x00038be8                . = ALIGN (0x4)
                0x00038be8                __bss_end = ABSOLUTE (.)

.ext_flash      0x04000000        0x0
                0x04000000                PROVIDE (_alt_partition_ext_flash_start, ABSOLUTE (.))
 *(.ext_flash .ext_flash. ext_flash.*)
                0x04000000                . = ALIGN (0x4)
                0x04000000                PROVIDE (_alt_partition_ext_flash_end, ABSOLUTE (.))
                0x04000000                PROVIDE (_alt_partition_ext_flash_load_addr, LOADADDR (.ext_flash))

.sram           0x05000020        0x0
                0x05000020                PROVIDE (_alt_partition_sram_start, ABSOLUTE (.))
 *(.sram .sram. sram.*)
                0x05000020                . = ALIGN (0x4)
                0x05000020                PROVIDE (_alt_partition_sram_end, ABSOLUTE (.))
                0x05000020                _end = ABSOLUTE (.)
                0x05000020                PROVIDE (end, ABSOLUTE (.))
                0x05000020                PROVIDE (_alt_partition_sram_load_addr, LOADADDR (.sram))

.sdram          0x00038be8        0x0
                0x00038be8                PROVIDE (_alt_partition_sdram_start, ABSOLUTE (.))
 *(.sdram)
                0x00038be8                . = ALIGN (0x4)
                0x00038be8                PROVIDE (_alt_partition_sdram_end, ABSOLUTE (.))
                0x00038be8                _end = ABSOLUTE (.)
                0x00038be8                PROVIDE (end, ABSOLUTE (.))
                0x00038be8                __alt_stack_base = ABSOLUTE (.)
                0x00038be8                PROVIDE (_alt_partition_sdram_load_addr, LOADADDR (.sdram))

.nlsdram        0x00038be8        0x0
                0x00038be8                PROVIDE (_alt_partition_nlsdram_start, ABSOLUTE (.))
 *(.nlsdram)
                0x00038be8                . = ALIGN (0x4)
                0x00038be8                PROVIDE (_alt_partition_nlsdram_end, ABSOLUTE (.))
                0x00038be8                _end = ABSOLUTE (.)
                0x00038be8                PROVIDE (end, ABSOLUTE (.))

.descriptor_memory
                0x02001000        0x0
                0x02001000                PROVIDE (_alt_partition_descriptor_memory_start, ABSOLUTE (.))
 *(.descriptor_memory .descriptor_memory. descriptor_memory.*)
                0x02001000                . = ALIGN (0x4)
                0x02001000                PROVIDE (_alt_partition_descriptor_memory_end, ABSOLUTE (.))
                0x02001000                PROVIDE (_alt_partition_descriptor_memory_load_addr, LOADADDR (.descriptor_memory))

.onchip_memory2
                0x0a000000        0x0
                0x0a000000                PROVIDE (_alt_partition_onchip_memory2_start, ABSOLUTE (.))
 *(.onchip_memory2 .onchip_memory2. onchip_memory2.*)
                0x0a000000                . = ALIGN (0x4)
                0x0a000000                PROVIDE (_alt_partition_onchip_memory2_end, ABSOLUTE (.))
                0x0a000000                PROVIDE (_alt_partition_onchip_memory2_load_addr, LOADADDR (.onchip_memory2))

.stab
 *(.stab)

.stabstr
 *(.stabstr)

.stab.excl
 *(.stab.excl)

.stab.exclstr
 *(.stab.exclstr)

.stab.index
 *(.stab.index)

.stab.indexstr
 *(.stab.indexstr)

.comment        0x00000000       0x23
 *(.comment)
 .comment       0x00000000       0x23 altera_avalon_sgdma.o
                                 0x24 (size before relaxing)
 .comment       0x00000000       0x24 altera_avalon_tse_system_info.o
 .comment       0x00000000       0x24 altera_avalon_tse.o
 .comment       0x00000000       0x24 altera_vic.o
 .comment       0x00000000       0x24 altera_vic_irq_init.o
 .comment       0x00000000       0x24 altera_vic_isr_register.o
 .comment       0x00000000       0x24 altera_vic_sw_intr.o
 .comment       0x00000000       0x24 altera_vic_set_level.o
 .comment       0x00000000       0x24 alt_usleep.o
 .comment       0x00000000       0x24 alt_busy_sleep.o
 .comment       0x00000000       0x24 alt_dcache_flush.o
 .comment       0x00000000       0x24 alt_irq_register.o
 .comment       0x00000000       0x24 alt_iic.o
 .comment       0x00000000       0x24 alt_remap_uncached.o
 .comment       0x00000000       0x24 alt_uncached_malloc.o
 .comment       0x00000000       0x24 alt_do_ctors.o
 .comment       0x00000000       0x24 alt_do_dtors.o
 .comment       0x00000000       0x24 alt_dev.o
 .comment       0x00000000       0x24 alt_dev_llist_insert.o
 .comment       0x00000000       0x24 alt_errno.o
 .comment       0x00000000       0x24 alt_find_dev.o
 .comment       0x00000000       0x24 alt_io_redirect.o
 .comment       0x00000000       0x24 alt_main.o
 .comment       0x00000000       0x24 alt_malloc_lock.o
 .comment       0x00000000       0x24 alt_release_fd.o
 .comment       0x00000000       0x24 alt_sys_init.o
 .comment       0x00000000       0x24 api_lib.o
 .comment       0x00000000       0x24 api_msg.o
 .comment       0x00000000       0x24 err.o
 .comment       0x00000000       0x24 netbuf.o
 .comment       0x00000000       0x24 netdb.o
 .comment       0x00000000       0x24 netifapi.o
 .comment       0x00000000       0x24 sockets.o
 .comment       0x00000000       0x24 tcpip.o
 .comment       0x00000000       0x24 mem.o
 .comment       0x00000000       0x24 memp.o
 .comment       0x00000000       0x24 netif.o
 .comment       0x00000000       0x24 pbuf.o
 .comment       0x00000000       0x24 raw.o
 .comment       0x00000000       0x24 stats.o
 .comment       0x00000000       0x24 sys.o
 .comment       0x00000000       0x24 tcp.o
 .comment       0x00000000       0x24 tcp_in.o
 .comment       0x00000000       0x24 tcp_out.o
 .comment       0x00000000       0x24 udp.o
 .comment       0x00000000       0x24 dns.o
 .comment       0x00000000       0x24 init.o
 .comment       0x00000000       0x24 dhcp.o
 .comment       0x00000000       0x24 def.o
 .comment       0x00000000       0x24 timers.o
 .comment       0x00000000       0x24 asn1_dec.o
 .comment       0x00000000       0x24 asn1_enc.o
 .comment       0x00000000       0x24 mib2.o
 .comment       0x00000000       0x24 mib_structs.o
 .comment       0x00000000       0x24 msg_in.o
 .comment       0x00000000       0x24 msg_out.o
 .comment       0x00000000       0x24 autoip.o
 .comment       0x00000000       0x24 icmp.o
 .comment       0x00000000       0x24 igmp.o
 .comment       0x00000000       0x24 inet.o
 .comment       0x00000000       0x24 inet_chksum.o
 .comment       0x00000000       0x24 ip.o
 .comment       0x00000000       0x24 ip_addr.o
 .comment       0x00000000       0x24 ip_frag.o
 .comment       0x00000000       0x24 slipif.o
 .comment       0x00000000       0x24 etharp.o
 .comment       0x00000000       0x24 ethernetif.o
 .comment       0x00000000       0x24 auth.o
 .comment       0x00000000       0x24 fsm.o
 .comment       0x00000000       0x24 ipcp.o
 .comment       0x00000000       0x24 lcp.o
 .comment       0x00000000       0x24 magic.o
 .comment       0x00000000       0x24 ppp.o
 .comment       0x00000000       0x24 vj.o
 .comment       0x00000000       0x24 chap.o
 .comment       0x00000000       0x24 chpms.o
 .comment       0x00000000       0x24 md5.o
 .comment       0x00000000       0x24 pap.o
 .comment       0x00000000       0x24 ppp_oe.o
 .comment       0x00000000       0x24 randm.o
 .comment       0x00000000       0x24 alteraTseEthernetif.o
 .comment       0x00000000       0x24 fs.o
 .comment       0x00000000       0x24 fsdata.o
 .comment       0x00000000       0x24 httpd.o
 .comment       0x00000000       0x24 lwip_tse_mac.o
 .comment       0x00000000       0x24 tse_my_system.o
 .comment       0x00000000       0x24 lwip_test.o
 .comment       0x00000000       0x24 jtag_uart.o
 .comment       0x00000000       0x24 banner.o
 .comment       0x00000000       0x24 syslog.o
 .comment       0x00000000       0x24 serial.o
 .comment       0x00000000       0x24 log_output.o
 .comment       0x00000000       0x24 vasyslog.o
 .comment       0x00000000       0x24 t_perror.o
 .comment       0x00000000       0x24 strerror.o
 .comment       0x00000000       0x24 Os_Lcfg.o
 .comment       0x00000000       0x24 libkernel.a(target_config.o)
 .comment       0x00000000       0x24 libkernel.a(target_hw_counter.o)
 .comment       0x00000000       0x24 libkernel.a(prc_config.o)
 .comment       0x00000000       0x24 libkernel.a(vic.o)
 .comment       0x00000000       0x24 libkernel.a(avalon_timer.o)
 .comment       0x00000000       0x24 libkernel.a(counter_manage.o)
 .comment       0x00000000       0x24 libkernel.a(counter.o)
 .comment       0x00000000       0x24 libkernel.a(alarm.o)
 .comment       0x00000000       0x24 libkernel.a(osctl_manage.o)
 .comment       0x00000000       0x24 libkernel.a(osctl.o)
 .comment       0x00000000       0x24 libkernel.a(task_manage.o)
 .comment       0x00000000       0x24 libkernel.a(interrupt_manage.o)
 .comment       0x00000000       0x24 libkernel.a(interrupt.o)
 .comment       0x00000000       0x24 libkernel.a(task.o)
 .comment       0x00000000       0x24 c:/altera/13.1/nios2eds/bin/gnu/h-i686-mingw32/bin/../lib/gcc/nios2-elf/4.7.3/../../../../../H-i686-mingw32/nios2-elf/lib\libc.a(lib_a-atexit.o)
 .comment       0x00000000       0x24 c:/altera/13.1/nios2eds/bin/gnu/h-i686-mingw32/bin/../lib/gcc/nios2-elf/4.7.3/../../../../../H-i686-mingw32/nios2-elf/lib\libc.a(lib_a-exit.o)
 .comment       0x00000000       0x24 c:/altera/13.1/nios2eds/bin/gnu/h-i686-mingw32/bin/../lib/gcc/nios2-elf/4.7.3/../../../../../H-i686-mingw32/nios2-elf/lib\libc.a(lib_a-impure.o)
 .comment       0x00000000       0x24 c:/altera/13.1/nios2eds/bin/gnu/h-i686-mingw32/bin/../lib/gcc/nios2-elf/4.7.3/../../../../../H-i686-mingw32/nios2-elf/lib\libc.a(lib_a-int_errno.o)
 .comment       0x00000000       0x24 c:/altera/13.1/nios2eds/bin/gnu/h-i686-mingw32/bin/../lib/gcc/nios2-elf/4.7.3/../../../../../H-i686-mingw32/nios2-elf/lib\libc.a(lib_a-malloc.o)
 .comment       0x00000000       0x24 c:/altera/13.1/nios2eds/bin/gnu/h-i686-mingw32/bin/../lib/gcc/nios2-elf/4.7.3/../../../../../H-i686-mingw32/nios2-elf/lib\libc.a(lib_a-mallocr.o)
 .comment       0x00000000       0x24 c:/altera/13.1/nios2eds/bin/gnu/h-i686-mingw32/bin/../lib/gcc/nios2-elf/4.7.3/../../../../../H-i686-mingw32/nios2-elf/lib\libc.a(lib_a-memcmp.o)
 .comment       0x00000000       0x24 c:/altera/13.1/nios2eds/bin/gnu/h-i686-mingw32/bin/../lib/gcc/nios2-elf/4.7.3/../../../../../H-i686-mingw32/nios2-elf/lib\libc.a(lib_a-memcpy.o)
 .comment       0x00000000       0x24 c:/altera/13.1/nios2eds/bin/gnu/h-i686-mingw32/bin/../lib/gcc/nios2-elf/4.7.3/../../../../../H-i686-mingw32/nios2-elf/lib\libc.a(lib_a-memset.o)
 .comment       0x00000000       0x24 c:/altera/13.1/nios2eds/bin/gnu/h-i686-mingw32/bin/../lib/gcc/nios2-elf/4.7.3/../../../../../H-i686-mingw32/nios2-elf/lib\libc.a(lib_a-printf.o)
 .comment       0x00000000       0x24 c:/altera/13.1/nios2eds/bin/gnu/h-i686-mingw32/bin/../lib/gcc/nios2-elf/4.7.3/../../../../../H-i686-mingw32/nios2-elf/lib\libc.a(lib_a-puts.o)
 .comment       0x00000000       0x24 c:/altera/13.1/nios2eds/bin/gnu/h-i686-mingw32/bin/../lib/gcc/nios2-elf/4.7.3/../../../../../H-i686-mingw32/nios2-elf/lib\libc.a(lib_a-sbrkr.o)
 .comment       0x00000000       0x24 c:/altera/13.1/nios2eds/bin/gnu/h-i686-mingw32/bin/../lib/gcc/nios2-elf/4.7.3/../../../../../H-i686-mingw32/nios2-elf/lib\libc.a(lib_a-strcmp.o)
 .comment       0x00000000       0x24 c:/altera/13.1/nios2eds/bin/gnu/h-i686-mingw32/bin/../lib/gcc/nios2-elf/4.7.3/../../../../../H-i686-mingw32/nios2-elf/lib\libc.a(lib_a-strcpy.o)
 .comment       0x00000000       0x24 c:/altera/13.1/nios2eds/bin/gnu/h-i686-mingw32/bin/../lib/gcc/nios2-elf/4.7.3/../../../../../H-i686-mingw32/nios2-elf/lib\libc.a(lib_a-strlen.o)
 .comment       0x00000000       0x24 c:/altera/13.1/nios2eds/bin/gnu/h-i686-mingw32/bin/../lib/gcc/nios2-elf/4.7.3/../../../../../H-i686-mingw32/nios2-elf/lib\libc.a(lib_a-strncmp.o)
 .comment       0x00000000       0x24 c:/altera/13.1/nios2eds/bin/gnu/h-i686-mingw32/bin/../lib/gcc/nios2-elf/4.7.3/../../../../../H-i686-mingw32/nios2-elf/lib\libc.a(lib_a-vfprintf.o)
 .comment       0x00000000       0x24 c:/altera/13.1/nios2eds/bin/gnu/h-i686-mingw32/bin/../lib/gcc/nios2-elf/4.7.3/../../../../../H-i686-mingw32/nios2-elf/lib\libc.a(lib_a-wsetup.o)
 .comment       0x00000000       0x24 c:/altera/13.1/nios2eds/bin/gnu/h-i686-mingw32/bin/../lib/gcc/nios2-elf/4.7.3/../../../../../H-i686-mingw32/nios2-elf/lib\libc.a(lib_a-__atexit.o)
 .comment       0x00000000       0x24 c:/altera/13.1/nios2eds/bin/gnu/h-i686-mingw32/bin/../lib/gcc/nios2-elf/4.7.3/../../../../../H-i686-mingw32/nios2-elf/lib\libc.a(lib_a-__call_atexit.o)
 .comment       0x00000000       0x24 c:/altera/13.1/nios2eds/bin/gnu/h-i686-mingw32/bin/../lib/gcc/nios2-elf/4.7.3/../../../../../H-i686-mingw32/nios2-elf/lib\libc.a(lib_a-dtoa.o)
 .comment       0x00000000       0x24 c:/altera/13.1/nios2eds/bin/gnu/h-i686-mingw32/bin/../lib/gcc/nios2-elf/4.7.3/../../../../../H-i686-mingw32/nios2-elf/lib\libc.a(lib_a-fflush.o)
 .comment       0x00000000       0x24 c:/altera/13.1/nios2eds/bin/gnu/h-i686-mingw32/bin/../lib/gcc/nios2-elf/4.7.3/../../../../../H-i686-mingw32/nios2-elf/lib\libc.a(lib_a-findfp.o)
 .comment       0x00000000       0x24 c:/altera/13.1/nios2eds/bin/gnu/h-i686-mingw32/bin/../lib/gcc/nios2-elf/4.7.3/../../../../../H-i686-mingw32/nios2-elf/lib\libc.a(lib_a-freer.o)
 .comment       0x00000000       0x24 c:/altera/13.1/nios2eds/bin/gnu/h-i686-mingw32/bin/../lib/gcc/nios2-elf/4.7.3/../../../../../H-i686-mingw32/nios2-elf/lib\libc.a(lib_a-fvwrite.o)
 .comment       0x00000000       0x24 c:/altera/13.1/nios2eds/bin/gnu/h-i686-mingw32/bin/../lib/gcc/nios2-elf/4.7.3/../../../../../H-i686-mingw32/nios2-elf/lib\libc.a(lib_a-fwalk.o)
 .comment       0x00000000       0x24 c:/altera/13.1/nios2eds/bin/gnu/h-i686-mingw32/bin/../lib/gcc/nios2-elf/4.7.3/../../../../../H-i686-mingw32/nios2-elf/lib\libc.a(lib_a-locale.o)
 .comment       0x00000000       0x24 c:/altera/13.1/nios2eds/bin/gnu/h-i686-mingw32/bin/../lib/gcc/nios2-elf/4.7.3/../../../../../H-i686-mingw32/nios2-elf/lib\libc.a(lib_a-makebuf.o)
 .comment       0x00000000       0x24 c:/altera/13.1/nios2eds/bin/gnu/h-i686-mingw32/bin/../lib/gcc/nios2-elf/4.7.3/../../../../../H-i686-mingw32/nios2-elf/lib\libc.a(lib_a-memchr.o)
 .comment       0x00000000       0x24 c:/altera/13.1/nios2eds/bin/gnu/h-i686-mingw32/bin/../lib/gcc/nios2-elf/4.7.3/../../../../../H-i686-mingw32/nios2-elf/lib\libc.a(lib_a-memmove.o)
 .comment       0x00000000       0x24 c:/altera/13.1/nios2eds/bin/gnu/h-i686-mingw32/bin/../lib/gcc/nios2-elf/4.7.3/../../../../../H-i686-mingw32/nios2-elf/lib\libc.a(lib_a-mprec.o)
 .comment       0x00000000       0x24 c:/altera/13.1/nios2eds/bin/gnu/h-i686-mingw32/bin/../lib/gcc/nios2-elf/4.7.3/../../../../../H-i686-mingw32/nios2-elf/lib\libc.a(lib_a-reallocr.o)
 .comment       0x00000000       0x24 c:/altera/13.1/nios2eds/bin/gnu/h-i686-mingw32/bin/../lib/gcc/nios2-elf/4.7.3/../../../../../H-i686-mingw32/nios2-elf/lib\libc.a(lib_a-s_isinfd.o)
 .comment       0x00000000       0x24 c:/altera/13.1/nios2eds/bin/gnu/h-i686-mingw32/bin/../lib/gcc/nios2-elf/4.7.3/../../../../../H-i686-mingw32/nios2-elf/lib\libc.a(lib_a-s_isnand.o)
 .comment       0x00000000       0x24 c:/altera/13.1/nios2eds/bin/gnu/h-i686-mingw32/bin/../lib/gcc/nios2-elf/4.7.3/../../../../../H-i686-mingw32/nios2-elf/lib\libc.a(lib_a-stdio.o)
 .comment       0x00000000       0x24 c:/altera/13.1/nios2eds/bin/gnu/h-i686-mingw32/bin/../lib/gcc/nios2-elf/4.7.3/../../../../../H-i686-mingw32/nios2-elf/lib\libc.a(lib_a-writer.o)
 .comment       0x00000000       0x24 c:/altera/13.1/nios2eds/bin/gnu/h-i686-mingw32/bin/../lib/gcc/nios2-elf/4.7.3/../../../../../H-i686-mingw32/nios2-elf/lib\libc.a(lib_a-callocr.o)
 .comment       0x00000000       0x24 c:/altera/13.1/nios2eds/bin/gnu/h-i686-mingw32/bin/../lib/gcc/nios2-elf/4.7.3/../../../../../H-i686-mingw32/nios2-elf/lib\libc.a(lib_a-closer.o)
 .comment       0x00000000       0x24 c:/altera/13.1/nios2eds/bin/gnu/h-i686-mingw32/bin/../lib/gcc/nios2-elf/4.7.3/../../../../../H-i686-mingw32/nios2-elf/lib\libc.a(lib_a-fclose.o)
 .comment       0x00000000       0x24 c:/altera/13.1/nios2eds/bin/gnu/h-i686-mingw32/bin/../lib/gcc/nios2-elf/4.7.3/../../../../../H-i686-mingw32/nios2-elf/lib\libc.a(lib_a-fstatr.o)
 .comment       0x00000000       0x24 c:/altera/13.1/nios2eds/bin/gnu/h-i686-mingw32/bin/../lib/gcc/nios2-elf/4.7.3/../../../../../H-i686-mingw32/nios2-elf/lib\libc.a(lib_a-isattyr.o)
 .comment       0x00000000       0x24 c:/altera/13.1/nios2eds/bin/gnu/h-i686-mingw32/bin/../lib/gcc/nios2-elf/4.7.3/../../../../../H-i686-mingw32/nios2-elf/lib\libc.a(lib_a-lseekr.o)
 .comment       0x00000000       0x24 c:/altera/13.1/nios2eds/bin/gnu/h-i686-mingw32/bin/../lib/gcc/nios2-elf/4.7.3/../../../../../H-i686-mingw32/nios2-elf/lib\libc.a(lib_a-readr.o)
 .comment       0x00000000       0x24 c:/altera/13.1/nios2eds/bin/gnu/h-i686-mingw32/bin/../lib/gcc/nios2-elf/4.7.3\libgcc.a(_udivdi3.o)
 .comment       0x00000000       0x24 c:/altera/13.1/nios2eds/bin/gnu/h-i686-mingw32/bin/../lib/gcc/nios2-elf/4.7.3\libgcc.a(_umoddi3.o)
 .comment       0x00000000       0x24 c:/altera/13.1/nios2eds/bin/gnu/h-i686-mingw32/bin/../lib/gcc/nios2-elf/4.7.3\libgcc.a(_addsub_df.o)
 .comment       0x00000000       0x24 c:/altera/13.1/nios2eds/bin/gnu/h-i686-mingw32/bin/../lib/gcc/nios2-elf/4.7.3\libgcc.a(_mul_df.o)
 .comment       0x00000000       0x24 c:/altera/13.1/nios2eds/bin/gnu/h-i686-mingw32/bin/../lib/gcc/nios2-elf/4.7.3\libgcc.a(_div_df.o)
 .comment       0x00000000       0x24 c:/altera/13.1/nios2eds/bin/gnu/h-i686-mingw32/bin/../lib/gcc/nios2-elf/4.7.3\libgcc.a(_eq_df.o)
 .comment       0x00000000       0x24 c:/altera/13.1/nios2eds/bin/gnu/h-i686-mingw32/bin/../lib/gcc/nios2-elf/4.7.3\libgcc.a(_ne_df.o)
 .comment       0x00000000       0x24 c:/altera/13.1/nios2eds/bin/gnu/h-i686-mingw32/bin/../lib/gcc/nios2-elf/4.7.3\libgcc.a(_gt_df.o)
 .comment       0x00000000       0x24 c:/altera/13.1/nios2eds/bin/gnu/h-i686-mingw32/bin/../lib/gcc/nios2-elf/4.7.3\libgcc.a(_ge_df.o)
 .comment       0x00000000       0x24 c:/altera/13.1/nios2eds/bin/gnu/h-i686-mingw32/bin/../lib/gcc/nios2-elf/4.7.3\libgcc.a(_lt_df.o)
 .comment       0x00000000       0x24 c:/altera/13.1/nios2eds/bin/gnu/h-i686-mingw32/bin/../lib/gcc/nios2-elf/4.7.3\libgcc.a(_si_to_df.o)
 .comment       0x00000000       0x24 c:/altera/13.1/nios2eds/bin/gnu/h-i686-mingw32/bin/../lib/gcc/nios2-elf/4.7.3\libgcc.a(_df_to_si.o)
 .comment       0x00000000       0x24 c:/altera/13.1/nios2eds/bin/gnu/h-i686-mingw32/bin/../lib/gcc/nios2-elf/4.7.3\libgcc.a(_thenan_df.o)
 .comment       0x00000000       0x24 c:/altera/13.1/nios2eds/bin/gnu/h-i686-mingw32/bin/../lib/gcc/nios2-elf/4.7.3\libgcc.a(_usi_to_df.o)
 .comment       0x00000000       0x24 c:/altera/13.1/nios2eds/bin/gnu/h-i686-mingw32/bin/../lib/gcc/nios2-elf/4.7.3\libgcc.a(lib2-divmod.o)
 .comment       0x00000000       0x24 c:/altera/13.1/nios2eds/bin/gnu/h-i686-mingw32/bin/../lib/gcc/nios2-elf/4.7.3\libgcc.a(_muldi3.o)
 .comment       0x00000000       0x24 c:/altera/13.1/nios2eds/bin/gnu/h-i686-mingw32/bin/../lib/gcc/nios2-elf/4.7.3\libgcc.a(_clz.o)
 .comment       0x00000000       0x24 c:/altera/13.1/nios2eds/bin/gnu/h-i686-mingw32/bin/../lib/gcc/nios2-elf/4.7.3\libgcc.a(_clzsi2.o)
 .comment       0x00000000       0x24 c:/altera/13.1/nios2eds/bin/gnu/h-i686-mingw32/bin/../lib/gcc/nios2-elf/4.7.3\libgcc.a(_pack_df.o)
 .comment       0x00000000       0x24 c:/altera/13.1/nios2eds/bin/gnu/h-i686-mingw32/bin/../lib/gcc/nios2-elf/4.7.3\libgcc.a(_unpack_df.o)
 .comment       0x00000000       0x24 c:/altera/13.1/nios2eds/bin/gnu/h-i686-mingw32/bin/../lib/gcc/nios2-elf/4.7.3\libgcc.a(_fpcmp_parts_df.o)
 .comment       0x00000000       0x24 c:/altera/13.1/nios2eds/bin/gnu/h-i686-mingw32/bin/../lib/gcc/nios2-elf/4.7.3\libgcc.a(_lshrdi3.o)
 .comment       0x00000000       0x24 c:/altera/13.1/nios2eds/bin/gnu/h-i686-mingw32/bin/../lib/gcc/nios2-elf/4.7.3\libgcc.a(_ashldi3.o)
 .comment       0x00000000       0x24 c:/altera/13.1/nios2eds/bin/gnu/h-i686-mingw32/bin/../lib/gcc/nios2-elf/4.7.3/../../../../../H-i686-mingw32/nios2-elf/lib\libnosys.a(nosys_sbrk.o)
 .comment       0x00000000       0x24 c:/altera/13.1/nios2eds/bin/gnu/h-i686-mingw32/bin/../lib/gcc/nios2-elf/4.7.3/../../../../../H-i686-mingw32/nios2-elf/lib\libnosys.a(nosys_close.o)
 .comment       0x00000000       0x24 c:/altera/13.1/nios2eds/bin/gnu/h-i686-mingw32/bin/../lib/gcc/nios2-elf/4.7.3/../../../../../H-i686-mingw32/nios2-elf/lib\libnosys.a(nosys_crt0.o)
 .comment       0x00000000       0x24 c:/altera/13.1/nios2eds/bin/gnu/h-i686-mingw32/bin/../lib/gcc/nios2-elf/4.7.3/../../../../../H-i686-mingw32/nios2-elf/lib\libnosys.a(nosys_exit.o)
 .comment       0x00000000       0x24 c:/altera/13.1/nios2eds/bin/gnu/h-i686-mingw32/bin/../lib/gcc/nios2-elf/4.7.3/../../../../../H-i686-mingw32/nios2-elf/lib\libnosys.a(nosys_fstat.o)
 .comment       0x00000000       0x24 c:/altera/13.1/nios2eds/bin/gnu/h-i686-mingw32/bin/../lib/gcc/nios2-elf/4.7.3/../../../../../H-i686-mingw32/nios2-elf/lib\libnosys.a(nosys_isatty.o)
 .comment       0x00000000       0x24 c:/altera/13.1/nios2eds/bin/gnu/h-i686-mingw32/bin/../lib/gcc/nios2-elf/4.7.3/../../../../../H-i686-mingw32/nios2-elf/lib\libnosys.a(nosys_lseek.o)
 .comment       0x00000000       0x24 c:/altera/13.1/nios2eds/bin/gnu/h-i686-mingw32/bin/../lib/gcc/nios2-elf/4.7.3/../../../../../H-i686-mingw32/nios2-elf/lib\libnosys.a(nosys_open.o)
 .comment       0x00000000       0x24 c:/altera/13.1/nios2eds/bin/gnu/h-i686-mingw32/bin/../lib/gcc/nios2-elf/4.7.3/../../../../../H-i686-mingw32/nios2-elf/lib\libnosys.a(nosys_read.o)
 .comment       0x00000000       0x24 c:/altera/13.1/nios2eds/bin/gnu/h-i686-mingw32/bin/../lib/gcc/nios2-elf/4.7.3/../../../../../H-i686-mingw32/nios2-elf/lib\libnosys.a(nosys_write.o)
 .comment       0x00000000       0x24 c:/altera/13.1/nios2eds/bin/gnu/h-i686-mingw32/bin/../lib/gcc/nios2-elf/4.7.3/../../../../../H-i686-mingw32/nios2-elf/lib\libnosys.a(_zero_bss.o)

.debug
 *(.debug)

.line
 *(.line)

.debug_srcinfo
 *(.debug_srcinfo)

.debug_sfnames
 *(.debug_sfnames)

.debug_aranges  0x00000000     0x1658
 *(.debug_aranges)
 .debug_aranges
                0x00000000       0x28 start.o
 .debug_aranges
                0x00000028       0x20 c:/altera/13.1/nios2eds/bin/gnu/h-i686-mingw32/bin/../lib/gcc/nios2-elf/4.7.3/../../../../../H-i686-mingw32/nios2-elf/lib/crt0.o
 .debug_aranges
                0x00000048       0x20 altera_avalon_sgdma.o
 .debug_aranges
                0x00000068       0x18 altera_avalon_tse_system_info.o
 .debug_aranges
                0x00000080       0x20 altera_avalon_tse.o
 .debug_aranges
                0x000000a0       0x20 altera_vic.o
 .debug_aranges
                0x000000c0       0x20 altera_vic_irq_init.o
 .debug_aranges
                0x000000e0       0x20 altera_vic_isr_register.o
 .debug_aranges
                0x00000100       0x20 altera_vic_sw_intr.o
 .debug_aranges
                0x00000120       0x20 altera_vic_set_level.o
 .debug_aranges
                0x00000140       0x20 alt_usleep.o
 .debug_aranges
                0x00000160       0x20 alt_busy_sleep.o
 .debug_aranges
                0x00000180       0x20 alt_dcache_flush.o
 .debug_aranges
                0x000001a0       0x18 alt_irq_register.o
 .debug_aranges
                0x000001b8       0x20 alt_remap_uncached.o
 .debug_aranges
                0x000001d8       0x20 alt_uncached_malloc.o
 .debug_aranges
                0x000001f8       0x20 alt_do_ctors.o
 .debug_aranges
                0x00000218       0x20 alt_do_dtors.o
 .debug_aranges
                0x00000238       0x20 alt_dev.o
 .debug_aranges
                0x00000258       0x20 alt_dev_llist_insert.o
 .debug_aranges
                0x00000278       0x18 alt_errno.o
 .debug_aranges
                0x00000290       0x20 alt_find_dev.o
 .debug_aranges
                0x000002b0       0x20 alt_io_redirect.o
 .debug_aranges
                0x000002d0       0x20 alt_main.o
 .debug_aranges
                0x000002f0       0x20 alt_malloc_lock.o
 .debug_aranges
                0x00000310       0x20 alt_release_fd.o
 .debug_aranges
                0x00000330       0x20 alt_sys_init.o
 .debug_aranges
                0x00000350       0x18 api_lib.o
 .debug_aranges
                0x00000368       0x18 api_msg.o
 .debug_aranges
                0x00000380       0x18 err.o
 .debug_aranges
                0x00000398       0x18 netbuf.o
 .debug_aranges
                0x000003b0       0x18 netdb.o
 .debug_aranges
                0x000003c8       0x18 netifapi.o
 .debug_aranges
                0x000003e0       0x18 sockets.o
 .debug_aranges
                0x000003f8       0x18 tcpip.o
 .debug_aranges
                0x00000410       0x20 mem.o
 .debug_aranges
                0x00000430       0x20 memp.o
 .debug_aranges
                0x00000450       0x20 netif.o
 .debug_aranges
                0x00000470       0x20 pbuf.o
 .debug_aranges
                0x00000490       0x20 raw.o
 .debug_aranges
                0x000004b0       0x20 stats.o
 .debug_aranges
                0x000004d0       0x18 sys.o
 .debug_aranges
                0x000004e8       0x20 tcp.o
 .debug_aranges
                0x00000508       0x38 tcp_in.o
 .debug_aranges
                0x00000540       0x20 tcp_out.o
 .debug_aranges
                0x00000560       0x20 udp.o
 .debug_aranges
                0x00000580       0x18 dns.o
 .debug_aranges
                0x00000598       0x20 init.o
 .debug_aranges
                0x000005b8       0x20 dhcp.o
 .debug_aranges
                0x000005d8       0x18 def.o
 .debug_aranges
                0x000005f0       0x20 timers.o
 .debug_aranges
                0x00000610       0x18 asn1_dec.o
 .debug_aranges
                0x00000628       0x18 asn1_enc.o
 .debug_aranges
                0x00000640       0x18 mib2.o
 .debug_aranges
                0x00000658       0x18 mib_structs.o
 .debug_aranges
                0x00000670       0x18 msg_in.o
 .debug_aranges
                0x00000688       0x18 msg_out.o
 .debug_aranges
                0x000006a0       0x18 autoip.o
 .debug_aranges
                0x000006b8       0x20 icmp.o
 .debug_aranges
                0x000006d8       0x18 igmp.o
 .debug_aranges
                0x000006f0       0x18 inet.o
 .debug_aranges
                0x00000708       0x20 inet_chksum.o
 .debug_aranges
                0x00000728       0x20 ip.o
 .debug_aranges
                0x00000748       0x20 ip_addr.o
 .debug_aranges
                0x00000768       0x20 ip_frag.o
 .debug_aranges
                0x00000788       0x18 slipif.o
 .debug_aranges
                0x000007a0       0x20 etharp.o
 .debug_aranges
                0x000007c0       0x18 ethernetif.o
 .debug_aranges
                0x000007d8       0x18 auth.o
 .debug_aranges
                0x000007f0       0x18 fsm.o
 .debug_aranges
                0x00000808       0x18 ipcp.o
 .debug_aranges
                0x00000820       0x18 lcp.o
 .debug_aranges
                0x00000838       0x18 magic.o
 .debug_aranges
                0x00000850       0x18 ppp.o
 .debug_aranges
                0x00000868       0x18 vj.o
 .debug_aranges
                0x00000880       0x18 chap.o
 .debug_aranges
                0x00000898       0x18 chpms.o
 .debug_aranges
                0x000008b0       0x18 md5.o
 .debug_aranges
                0x000008c8       0x18 pap.o
 .debug_aranges
                0x000008e0       0x18 ppp_oe.o
 .debug_aranges
                0x000008f8       0x18 randm.o
 .debug_aranges
                0x00000910       0x20 alteraTseEthernetif.o
 .debug_aranges
                0x00000930       0x20 fs.o
 .debug_aranges
                0x00000950       0x20 httpd.o
 .debug_aranges
                0x00000970       0x20 lwip_tse_mac.o
 .debug_aranges
                0x00000990       0x18 tse_my_system.o
 .debug_aranges
                0x000009a8       0x28 lwip_test.o
 .debug_aranges
                0x000009d0       0x20 jtag_uart.o
 .debug_aranges
                0x000009f0       0x20 banner.o
 .debug_aranges
                0x00000a10       0x20 syslog.o
 .debug_aranges
                0x00000a30       0x20 serial.o
 .debug_aranges
                0x00000a50       0x20 log_output.o
 .debug_aranges
                0x00000a70       0x20 vasyslog.o
 .debug_aranges
                0x00000a90       0x20 t_perror.o
 .debug_aranges
                0x00000ab0       0x20 strerror.o
 .debug_aranges
                0x00000ad0       0x20 Os_Lcfg.o
 .debug_aranges
                0x00000af0       0x28 libkernel.a(prc_support.o)
 .debug_aranges
                0x00000b18       0x20 libkernel.a(target_config.o)
 .debug_aranges
                0x00000b38       0x20 libkernel.a(target_hw_counter.o)
 .debug_aranges
                0x00000b58       0x20 libkernel.a(prc_config.o)
 .debug_aranges
                0x00000b78       0x20 libkernel.a(vic.o)
 .debug_aranges
                0x00000b98       0x20 libkernel.a(avalon_timer.o)
 .debug_aranges
                0x00000bb8       0x20 libkernel.a(counter_manage.o)
 .debug_aranges
                0x00000bd8       0x20 libkernel.a(counter.o)
 .debug_aranges
                0x00000bf8       0x20 libkernel.a(alarm.o)
 .debug_aranges
                0x00000c18       0x20 libkernel.a(osctl_manage.o)
 .debug_aranges
                0x00000c38       0x20 libkernel.a(osctl.o)
 .debug_aranges
                0x00000c58       0x20 libkernel.a(task_manage.o)
 .debug_aranges
                0x00000c78       0x20 libkernel.a(interrupt_manage.o)
 .debug_aranges
                0x00000c98       0x20 libkernel.a(interrupt.o)
 .debug_aranges
                0x00000cb8       0x20 libkernel.a(task.o)
 .debug_aranges
                0x00000cd8       0x20 c:/altera/13.1/nios2eds/bin/gnu/h-i686-mingw32/bin/../lib/gcc/nios2-elf/4.7.3/../../../../../H-i686-mingw32/nios2-elf/lib\libc.a(lib_a-atexit.o)
 .debug_aranges
                0x00000cf8       0x20 c:/altera/13.1/nios2eds/bin/gnu/h-i686-mingw32/bin/../lib/gcc/nios2-elf/4.7.3/../../../../../H-i686-mingw32/nios2-elf/lib\libc.a(lib_a-exit.o)
 .debug_aranges
                0x00000d18       0x18 c:/altera/13.1/nios2eds/bin/gnu/h-i686-mingw32/bin/../lib/gcc/nios2-elf/4.7.3/../../../../../H-i686-mingw32/nios2-elf/lib\libc.a(lib_a-impure.o)
 .debug_aranges
                0x00000d30       0x18 c:/altera/13.1/nios2eds/bin/gnu/h-i686-mingw32/bin/../lib/gcc/nios2-elf/4.7.3/../../../../../H-i686-mingw32/nios2-elf/lib\libc.a(lib_a-int_errno.o)
 .debug_aranges
                0x00000d48       0x20 c:/altera/13.1/nios2eds/bin/gnu/h-i686-mingw32/bin/../lib/gcc/nios2-elf/4.7.3/../../../../../H-i686-mingw32/nios2-elf/lib\libc.a(lib_a-malloc.o)
 .debug_aranges
                0x00000d68       0x20 c:/altera/13.1/nios2eds/bin/gnu/h-i686-mingw32/bin/../lib/gcc/nios2-elf/4.7.3/../../../../../H-i686-mingw32/nios2-elf/lib\libc.a(lib_a-mallocr.o)
 .debug_aranges
                0x00000d88       0x20 c:/altera/13.1/nios2eds/bin/gnu/h-i686-mingw32/bin/../lib/gcc/nios2-elf/4.7.3/../../../../../H-i686-mingw32/nios2-elf/lib\libc.a(lib_a-memcmp.o)
 .debug_aranges
                0x00000da8       0x20 c:/altera/13.1/nios2eds/bin/gnu/h-i686-mingw32/bin/../lib/gcc/nios2-elf/4.7.3/../../../../../H-i686-mingw32/nios2-elf/lib\libc.a(lib_a-memcpy.o)
 .debug_aranges
                0x00000dc8       0x20 c:/altera/13.1/nios2eds/bin/gnu/h-i686-mingw32/bin/../lib/gcc/nios2-elf/4.7.3/../../../../../H-i686-mingw32/nios2-elf/lib\libc.a(lib_a-memset.o)
 .debug_aranges
                0x00000de8       0x20 c:/altera/13.1/nios2eds/bin/gnu/h-i686-mingw32/bin/../lib/gcc/nios2-elf/4.7.3/../../../../../H-i686-mingw32/nios2-elf/lib\libc.a(lib_a-printf.o)
 .debug_aranges
                0x00000e08       0x20 c:/altera/13.1/nios2eds/bin/gnu/h-i686-mingw32/bin/../lib/gcc/nios2-elf/4.7.3/../../../../../H-i686-mingw32/nios2-elf/lib\libc.a(lib_a-puts.o)
 .debug_aranges
                0x00000e28       0x20 c:/altera/13.1/nios2eds/bin/gnu/h-i686-mingw32/bin/../lib/gcc/nios2-elf/4.7.3/../../../../../H-i686-mingw32/nios2-elf/lib\libc.a(lib_a-sbrkr.o)
 .debug_aranges
                0x00000e48       0x20 c:/altera/13.1/nios2eds/bin/gnu/h-i686-mingw32/bin/../lib/gcc/nios2-elf/4.7.3/../../../../../H-i686-mingw32/nios2-elf/lib\libc.a(lib_a-strcmp.o)
 .debug_aranges
                0x00000e68       0x20 c:/altera/13.1/nios2eds/bin/gnu/h-i686-mingw32/bin/../lib/gcc/nios2-elf/4.7.3/../../../../../H-i686-mingw32/nios2-elf/lib\libc.a(lib_a-strcpy.o)
 .debug_aranges
                0x00000e88       0x20 c:/altera/13.1/nios2eds/bin/gnu/h-i686-mingw32/bin/../lib/gcc/nios2-elf/4.7.3/../../../../../H-i686-mingw32/nios2-elf/lib\libc.a(lib_a-strlen.o)
 .debug_aranges
                0x00000ea8       0x20 c:/altera/13.1/nios2eds/bin/gnu/h-i686-mingw32/bin/../lib/gcc/nios2-elf/4.7.3/../../../../../H-i686-mingw32/nios2-elf/lib\libc.a(lib_a-strncmp.o)
 .debug_aranges
                0x00000ec8       0x20 c:/altera/13.1/nios2eds/bin/gnu/h-i686-mingw32/bin/../lib/gcc/nios2-elf/4.7.3/../../../../../H-i686-mingw32/nios2-elf/lib\libc.a(lib_a-vfprintf.o)
 .debug_aranges
                0x00000ee8       0x20 c:/altera/13.1/nios2eds/bin/gnu/h-i686-mingw32/bin/../lib/gcc/nios2-elf/4.7.3/../../../../../H-i686-mingw32/nios2-elf/lib\libc.a(lib_a-wsetup.o)
 .debug_aranges
                0x00000f08       0x20 c:/altera/13.1/nios2eds/bin/gnu/h-i686-mingw32/bin/../lib/gcc/nios2-elf/4.7.3/../../../../../H-i686-mingw32/nios2-elf/lib\libc.a(lib_a-__atexit.o)
 .debug_aranges
                0x00000f28       0x20 c:/altera/13.1/nios2eds/bin/gnu/h-i686-mingw32/bin/../lib/gcc/nios2-elf/4.7.3/../../../../../H-i686-mingw32/nios2-elf/lib\libc.a(lib_a-__call_atexit.o)
 .debug_aranges
                0x00000f48       0x20 c:/altera/13.1/nios2eds/bin/gnu/h-i686-mingw32/bin/../lib/gcc/nios2-elf/4.7.3/../../../../../H-i686-mingw32/nios2-elf/lib\libc.a(lib_a-dtoa.o)
 .debug_aranges
                0x00000f68       0x20 c:/altera/13.1/nios2eds/bin/gnu/h-i686-mingw32/bin/../lib/gcc/nios2-elf/4.7.3/../../../../../H-i686-mingw32/nios2-elf/lib\libc.a(lib_a-fflush.o)
 .debug_aranges
                0x00000f88       0x20 c:/altera/13.1/nios2eds/bin/gnu/h-i686-mingw32/bin/../lib/gcc/nios2-elf/4.7.3/../../../../../H-i686-mingw32/nios2-elf/lib\libc.a(lib_a-findfp.o)
 .debug_aranges
                0x00000fa8       0x20 c:/altera/13.1/nios2eds/bin/gnu/h-i686-mingw32/bin/../lib/gcc/nios2-elf/4.7.3/../../../../../H-i686-mingw32/nios2-elf/lib\libc.a(lib_a-freer.o)
 .debug_aranges
                0x00000fc8       0x20 c:/altera/13.1/nios2eds/bin/gnu/h-i686-mingw32/bin/../lib/gcc/nios2-elf/4.7.3/../../../../../H-i686-mingw32/nios2-elf/lib\libc.a(lib_a-fvwrite.o)
 .debug_aranges
                0x00000fe8       0x20 c:/altera/13.1/nios2eds/bin/gnu/h-i686-mingw32/bin/../lib/gcc/nios2-elf/4.7.3/../../../../../H-i686-mingw32/nios2-elf/lib\libc.a(lib_a-fwalk.o)
 .debug_aranges
                0x00001008       0x20 c:/altera/13.1/nios2eds/bin/gnu/h-i686-mingw32/bin/../lib/gcc/nios2-elf/4.7.3/../../../../../H-i686-mingw32/nios2-elf/lib\libc.a(lib_a-locale.o)
 .debug_aranges
                0x00001028       0x20 c:/altera/13.1/nios2eds/bin/gnu/h-i686-mingw32/bin/../lib/gcc/nios2-elf/4.7.3/../../../../../H-i686-mingw32/nios2-elf/lib\libc.a(lib_a-makebuf.o)
 .debug_aranges
                0x00001048       0x20 c:/altera/13.1/nios2eds/bin/gnu/h-i686-mingw32/bin/../lib/gcc/nios2-elf/4.7.3/../../../../../H-i686-mingw32/nios2-elf/lib\libc.a(lib_a-memchr.o)
 .debug_aranges
                0x00001068       0x20 c:/altera/13.1/nios2eds/bin/gnu/h-i686-mingw32/bin/../lib/gcc/nios2-elf/4.7.3/../../../../../H-i686-mingw32/nios2-elf/lib\libc.a(lib_a-memmove.o)
 .debug_aranges
                0x00001088       0x20 c:/altera/13.1/nios2eds/bin/gnu/h-i686-mingw32/bin/../lib/gcc/nios2-elf/4.7.3/../../../../../H-i686-mingw32/nios2-elf/lib\libc.a(lib_a-mprec.o)
 .debug_aranges
                0x000010a8       0x20 c:/altera/13.1/nios2eds/bin/gnu/h-i686-mingw32/bin/../lib/gcc/nios2-elf/4.7.3/../../../../../H-i686-mingw32/nios2-elf/lib\libc.a(lib_a-reallocr.o)
 .debug_aranges
                0x000010c8       0x20 c:/altera/13.1/nios2eds/bin/gnu/h-i686-mingw32/bin/../lib/gcc/nios2-elf/4.7.3/../../../../../H-i686-mingw32/nios2-elf/lib\libc.a(lib_a-s_isinfd.o)
 .debug_aranges
                0x000010e8       0x20 c:/altera/13.1/nios2eds/bin/gnu/h-i686-mingw32/bin/../lib/gcc/nios2-elf/4.7.3/../../../../../H-i686-mingw32/nios2-elf/lib\libc.a(lib_a-s_isnand.o)
 .debug_aranges
                0x00001108       0x20 c:/altera/13.1/nios2eds/bin/gnu/h-i686-mingw32/bin/../lib/gcc/nios2-elf/4.7.3/../../../../../H-i686-mingw32/nios2-elf/lib\libc.a(lib_a-stdio.o)
 .debug_aranges
                0x00001128       0x20 c:/altera/13.1/nios2eds/bin/gnu/h-i686-mingw32/bin/../lib/gcc/nios2-elf/4.7.3/../../../../../H-i686-mingw32/nios2-elf/lib\libc.a(lib_a-writer.o)
 .debug_aranges
                0x00001148       0x20 c:/altera/13.1/nios2eds/bin/gnu/h-i686-mingw32/bin/../lib/gcc/nios2-elf/4.7.3/../../../../../H-i686-mingw32/nios2-elf/lib\libc.a(lib_a-callocr.o)
 .debug_aranges
                0x00001168       0x20 c:/altera/13.1/nios2eds/bin/gnu/h-i686-mingw32/bin/../lib/gcc/nios2-elf/4.7.3/../../../../../H-i686-mingw32/nios2-elf/lib\libc.a(lib_a-closer.o)
 .debug_aranges
                0x00001188       0x20 c:/altera/13.1/nios2eds/bin/gnu/h-i686-mingw32/bin/../lib/gcc/nios2-elf/4.7.3/../../../../../H-i686-mingw32/nios2-elf/lib\libc.a(lib_a-fclose.o)
 .debug_aranges
                0x000011a8       0x20 c:/altera/13.1/nios2eds/bin/gnu/h-i686-mingw32/bin/../lib/gcc/nios2-elf/4.7.3/../../../../../H-i686-mingw32/nios2-elf/lib\libc.a(lib_a-fstatr.o)
 .debug_aranges
                0x000011c8       0x20 c:/altera/13.1/nios2eds/bin/gnu/h-i686-mingw32/bin/../lib/gcc/nios2-elf/4.7.3/../../../../../H-i686-mingw32/nios2-elf/lib\libc.a(lib_a-isattyr.o)
 .debug_aranges
                0x000011e8       0x20 c:/altera/13.1/nios2eds/bin/gnu/h-i686-mingw32/bin/../lib/gcc/nios2-elf/4.7.3/../../../../../H-i686-mingw32/nios2-elf/lib\libc.a(lib_a-lseekr.o)
 .debug_aranges
                0x00001208       0x20 c:/altera/13.1/nios2eds/bin/gnu/h-i686-mingw32/bin/../lib/gcc/nios2-elf/4.7.3/../../../../../H-i686-mingw32/nios2-elf/lib\libc.a(lib_a-readr.o)
 .debug_aranges
                0x00001228       0x20 c:/altera/13.1/nios2eds/bin/gnu/h-i686-mingw32/bin/../lib/gcc/nios2-elf/4.7.3\libgcc.a(_udivdi3.o)
 .debug_aranges
                0x00001248       0x20 c:/altera/13.1/nios2eds/bin/gnu/h-i686-mingw32/bin/../lib/gcc/nios2-elf/4.7.3\libgcc.a(_umoddi3.o)
 .debug_aranges
                0x00001268       0x20 c:/altera/13.1/nios2eds/bin/gnu/h-i686-mingw32/bin/../lib/gcc/nios2-elf/4.7.3\libgcc.a(_addsub_df.o)
 .debug_aranges
                0x00001288       0x20 c:/altera/13.1/nios2eds/bin/gnu/h-i686-mingw32/bin/../lib/gcc/nios2-elf/4.7.3\libgcc.a(_mul_df.o)
 .debug_aranges
                0x000012a8       0x20 c:/altera/13.1/nios2eds/bin/gnu/h-i686-mingw32/bin/../lib/gcc/nios2-elf/4.7.3\libgcc.a(_div_df.o)
 .debug_aranges
                0x000012c8       0x20 c:/altera/13.1/nios2eds/bin/gnu/h-i686-mingw32/bin/../lib/gcc/nios2-elf/4.7.3\libgcc.a(_eq_df.o)
 .debug_aranges
                0x000012e8       0x20 c:/altera/13.1/nios2eds/bin/gnu/h-i686-mingw32/bin/../lib/gcc/nios2-elf/4.7.3\libgcc.a(_ne_df.o)
 .debug_aranges
                0x00001308       0x20 c:/altera/13.1/nios2eds/bin/gnu/h-i686-mingw32/bin/../lib/gcc/nios2-elf/4.7.3\libgcc.a(_gt_df.o)
 .debug_aranges
                0x00001328       0x20 c:/altera/13.1/nios2eds/bin/gnu/h-i686-mingw32/bin/../lib/gcc/nios2-elf/4.7.3\libgcc.a(_ge_df.o)
 .debug_aranges
                0x00001348       0x20 c:/altera/13.1/nios2eds/bin/gnu/h-i686-mingw32/bin/../lib/gcc/nios2-elf/4.7.3\libgcc.a(_lt_df.o)
 .debug_aranges
                0x00001368       0x20 c:/altera/13.1/nios2eds/bin/gnu/h-i686-mingw32/bin/../lib/gcc/nios2-elf/4.7.3\libgcc.a(_si_to_df.o)
 .debug_aranges
                0x00001388       0x20 c:/altera/13.1/nios2eds/bin/gnu/h-i686-mingw32/bin/../lib/gcc/nios2-elf/4.7.3\libgcc.a(_df_to_si.o)
 .debug_aranges
                0x000013a8       0x18 c:/altera/13.1/nios2eds/bin/gnu/h-i686-mingw32/bin/../lib/gcc/nios2-elf/4.7.3\libgcc.a(_thenan_df.o)
 .debug_aranges
                0x000013c0       0x20 c:/altera/13.1/nios2eds/bin/gnu/h-i686-mingw32/bin/../lib/gcc/nios2-elf/4.7.3\libgcc.a(_usi_to_df.o)
 .debug_aranges
                0x000013e0       0x20 c:/altera/13.1/nios2eds/bin/gnu/h-i686-mingw32/bin/../lib/gcc/nios2-elf/4.7.3\libgcc.a(lib2-divmod.o)
 .debug_aranges
                0x00001400       0x20 c:/altera/13.1/nios2eds/bin/gnu/h-i686-mingw32/bin/../lib/gcc/nios2-elf/4.7.3\libgcc.a(_muldi3.o)
 .debug_aranges
                0x00001420       0x18 c:/altera/13.1/nios2eds/bin/gnu/h-i686-mingw32/bin/../lib/gcc/nios2-elf/4.7.3\libgcc.a(_clz.o)
 .debug_aranges
                0x00001438       0x20 c:/altera/13.1/nios2eds/bin/gnu/h-i686-mingw32/bin/../lib/gcc/nios2-elf/4.7.3\libgcc.a(_clzsi2.o)
 .debug_aranges
                0x00001458       0x20 c:/altera/13.1/nios2eds/bin/gnu/h-i686-mingw32/bin/../lib/gcc/nios2-elf/4.7.3\libgcc.a(_pack_df.o)
 .debug_aranges
                0x00001478       0x20 c:/altera/13.1/nios2eds/bin/gnu/h-i686-mingw32/bin/../lib/gcc/nios2-elf/4.7.3\libgcc.a(_unpack_df.o)
 .debug_aranges
                0x00001498       0x20 c:/altera/13.1/nios2eds/bin/gnu/h-i686-mingw32/bin/../lib/gcc/nios2-elf/4.7.3\libgcc.a(_fpcmp_parts_df.o)
 .debug_aranges
                0x000014b8       0x20 c:/altera/13.1/nios2eds/bin/gnu/h-i686-mingw32/bin/../lib/gcc/nios2-elf/4.7.3\libgcc.a(_lshrdi3.o)
 .debug_aranges
                0x000014d8       0x20 c:/altera/13.1/nios2eds/bin/gnu/h-i686-mingw32/bin/../lib/gcc/nios2-elf/4.7.3\libgcc.a(_ashldi3.o)
 .debug_aranges
                0x000014f8       0x20 c:/altera/13.1/nios2eds/bin/gnu/h-i686-mingw32/bin/../lib/gcc/nios2-elf/4.7.3/../../../../../H-i686-mingw32/nios2-elf/lib\libnosys.a(nosys_sbrk.o)
 .debug_aranges
                0x00001518       0x20 c:/altera/13.1/nios2eds/bin/gnu/h-i686-mingw32/bin/../lib/gcc/nios2-elf/4.7.3/../../../../../H-i686-mingw32/nios2-elf/lib\libnosys.a(nosys_close.o)
 .debug_aranges
                0x00001538       0x20 c:/altera/13.1/nios2eds/bin/gnu/h-i686-mingw32/bin/../lib/gcc/nios2-elf/4.7.3/../../../../../H-i686-mingw32/nios2-elf/lib\libnosys.a(nosys_crt0.o)
 .debug_aranges
                0x00001558       0x20 c:/altera/13.1/nios2eds/bin/gnu/h-i686-mingw32/bin/../lib/gcc/nios2-elf/4.7.3/../../../../../H-i686-mingw32/nios2-elf/lib\libnosys.a(nosys_exit.o)
 .debug_aranges
                0x00001578       0x20 c:/altera/13.1/nios2eds/bin/gnu/h-i686-mingw32/bin/../lib/gcc/nios2-elf/4.7.3/../../../../../H-i686-mingw32/nios2-elf/lib\libnosys.a(nosys_fstat.o)
 .debug_aranges
                0x00001598       0x20 c:/altera/13.1/nios2eds/bin/gnu/h-i686-mingw32/bin/../lib/gcc/nios2-elf/4.7.3/../../../../../H-i686-mingw32/nios2-elf/lib\libnosys.a(nosys_isatty.o)
 .debug_aranges
                0x000015b8       0x20 c:/altera/13.1/nios2eds/bin/gnu/h-i686-mingw32/bin/../lib/gcc/nios2-elf/4.7.3/../../../../../H-i686-mingw32/nios2-elf/lib\libnosys.a(nosys_lseek.o)
 .debug_aranges
                0x000015d8       0x20 c:/altera/13.1/nios2eds/bin/gnu/h-i686-mingw32/bin/../lib/gcc/nios2-elf/4.7.3/../../../../../H-i686-mingw32/nios2-elf/lib\libnosys.a(nosys_open.o)
 .debug_aranges
                0x000015f8       0x20 c:/altera/13.1/nios2eds/bin/gnu/h-i686-mingw32/bin/../lib/gcc/nios2-elf/4.7.3/../../../../../H-i686-mingw32/nios2-elf/lib\libnosys.a(nosys_read.o)
 .debug_aranges
                0x00001618       0x20 c:/altera/13.1/nios2eds/bin/gnu/h-i686-mingw32/bin/../lib/gcc/nios2-elf/4.7.3/../../../../../H-i686-mingw32/nios2-elf/lib\libnosys.a(nosys_write.o)
 .debug_aranges
                0x00001638       0x20 c:/altera/13.1/nios2eds/bin/gnu/h-i686-mingw32/bin/../lib/gcc/nios2-elf/4.7.3/../../../../../H-i686-mingw32/nios2-elf/lib\libnosys.a(_zero_bss.o)

.debug_pubnames
 *(.debug_pubnames)

.debug_info     0x00000000    0x4c871
 *(.debug_info .gnu.linkonce.wi.*)
 .debug_info    0x00000000       0x7b start.o
 .debug_info    0x0000007b       0xec c:/altera/13.1/nios2eds/bin/gnu/h-i686-mingw32/bin/../lib/gcc/nios2-elf/4.7.3/../../../../../H-i686-mingw32/nios2-elf/lib/crt0.o
 .debug_info    0x00000167     0x10a4 altera_avalon_sgdma.o
 .debug_info    0x0000120b      0x98a altera_avalon_tse_system_info.o
 .debug_info    0x00001b95     0x4ae7 altera_avalon_tse.o
 .debug_info    0x0000667c      0x343 altera_vic.o
 .debug_info    0x000069bf      0x1a8 altera_vic_irq_init.o
 .debug_info    0x00006b67      0x296 altera_vic_isr_register.o
 .debug_info    0x00006dfd      0x233 altera_vic_sw_intr.o
 .debug_info    0x00007030      0x25e altera_vic_set_level.o
 .debug_info    0x0000728e       0xd7 alt_usleep.o
 .debug_info    0x00007365       0xd3 alt_busy_sleep.o
 .debug_info    0x00007438       0xb7 alt_dcache_flush.o
 .debug_info    0x000074ef       0x72 alt_irq_register.o
 .debug_info    0x00007561       0xf7 alt_remap_uncached.o
 .debug_info    0x00007658      0x12d alt_uncached_malloc.o
 .debug_info    0x00007785       0x8e alt_do_ctors.o
 .debug_info    0x00007813       0x8e alt_do_dtors.o
 .debug_info    0x000078a1      0x4df alt_dev.o
 .debug_info    0x00007d80      0x1c4 alt_dev_llist_insert.o
 .debug_info    0x00007f44       0xa3 alt_errno.o
 .debug_info    0x00007fe7      0x387 alt_find_dev.o
 .debug_info    0x0000836e      0x5cc alt_io_redirect.o
 .debug_info    0x0000893a      0x251 alt_main.o
 .debug_info    0x00008b8b      0x94c alt_malloc_lock.o
 .debug_info    0x000094d7      0x2dd alt_release_fd.o
 .debug_info    0x000097b4      0x326 alt_sys_init.o
 .debug_info    0x00009ada       0x72 api_lib.o
 .debug_info    0x00009b4c       0x72 api_msg.o
 .debug_info    0x00009bbe       0x72 err.o
 .debug_info    0x00009c30       0x72 netbuf.o
 .debug_info    0x00009ca2       0x72 netdb.o
 .debug_info    0x00009d14       0x72 netifapi.o
 .debug_info    0x00009d86       0x72 sockets.o
 .debug_info    0x00009df8       0x72 tcpip.o
 .debug_info    0x00009e6a      0x847 mem.o
 .debug_info    0x0000a6b1      0x54d memp.o
 .debug_info    0x0000abfe     0x1240 netif.o
 .debug_info    0x0000be3e     0x1823 pbuf.o
 .debug_info    0x0000d661      0xa68 raw.o
 .debug_info    0x0000e0c9      0x31e stats.o
 .debug_info    0x0000e3e7       0x72 sys.o
 .debug_info    0x0000e459     0x24cc tcp.o
 .debug_info    0x00010925     0x1dab tcp_in.o
 .debug_info    0x000126d0     0x1ed0 tcp_out.o
 .debug_info    0x000145a0     0x1384 udp.o
 .debug_info    0x00015924       0x72 dns.o
 .debug_info    0x00015996      0x10a init.o
 .debug_info    0x00015aa0     0x2b57 dhcp.o
 .debug_info    0x000185f7       0x72 def.o
 .debug_info    0x00018669       0x90 timers.o
 .debug_info    0x000186f9       0x72 asn1_dec.o
 .debug_info    0x0001876b       0x72 asn1_enc.o
 .debug_info    0x000187dd       0x72 mib2.o
 .debug_info    0x0001884f       0x72 mib_structs.o
 .debug_info    0x000188c1       0x72 msg_in.o
 .debug_info    0x00018933       0x72 msg_out.o
 .debug_info    0x000189a5       0x72 autoip.o
 .debug_info    0x00018a17      0xde3 icmp.o
 .debug_info    0x000197fa       0x72 igmp.o
 .debug_info    0x0001986c       0x72 inet.o
 .debug_info    0x000198de      0x46b inet_chksum.o
 .debug_info    0x00019d49     0x1078 ip.o
 .debug_info    0x0001adc1      0x630 ip_addr.o
 .debug_info    0x0001b3f1     0x1423 ip_frag.o
 .debug_info    0x0001c814       0x72 slipif.o
 .debug_info    0x0001c886     0x1d5f etharp.o
 .debug_info    0x0001e5e5       0x72 ethernetif.o
 .debug_info    0x0001e657       0x72 auth.o
 .debug_info    0x0001e6c9       0x72 fsm.o
 .debug_info    0x0001e73b       0x72 ipcp.o
 .debug_info    0x0001e7ad       0x72 lcp.o
 .debug_info    0x0001e81f       0x72 magic.o
 .debug_info    0x0001e891       0x72 ppp.o
 .debug_info    0x0001e903       0x72 vj.o
 .debug_info    0x0001e975       0x72 chap.o
 .debug_info    0x0001e9e7       0x72 chpms.o
 .debug_info    0x0001ea59       0x72 md5.o
 .debug_info    0x0001eacb       0x72 pap.o
 .debug_info    0x0001eb3d       0x72 ppp_oe.o
 .debug_info    0x0001ebaf       0x72 randm.o
 .debug_info    0x0001ec21      0xb1a alteraTseEthernetif.o
 .debug_info    0x0001f73b      0x254 fs.o
 .debug_info    0x0001f98f      0xfc7 httpd.o
 .debug_info    0x00020956     0x1edb lwip_tse_mac.o
 .debug_info    0x00022831       0xc7 tse_my_system.o
 .debug_info    0x000228f8     0x145f lwip_test.o
 .debug_info    0x00023d57      0x242 jtag_uart.o
 .debug_info    0x00023f99      0x22e banner.o
 .debug_info    0x000241c7      0x2b5 syslog.o
 .debug_info    0x0002447c      0x1b3 serial.o
 .debug_info    0x0002462f      0x454 log_output.o
 .debug_info    0x00024a83      0x20c vasyslog.o
 .debug_info    0x00024c8f      0x2c1 t_perror.o
 .debug_info    0x00024f50      0x107 strerror.o
 .debug_info    0x00025057      0xe83 Os_Lcfg.o
 .debug_info    0x00025eda       0x81 libkernel.a(prc_support.o)
 .debug_info    0x00025f5b      0x3d5 libkernel.a(target_config.o)
 .debug_info    0x00026330     0x13e9 libkernel.a(target_hw_counter.o)
 .debug_info    0x00027719      0x399 libkernel.a(prc_config.o)
 .debug_info    0x00027ab2      0x196 libkernel.a(vic.o)
 .debug_info    0x00027c48      0x78b libkernel.a(avalon_timer.o)
 .debug_info    0x000283d3     0x10e6 libkernel.a(counter_manage.o)
 .debug_info    0x000294b9     0x1031 libkernel.a(counter.o)
 .debug_info    0x0002a4ea     0x1527 libkernel.a(alarm.o)
 .debug_info    0x0002ba11      0x9dc libkernel.a(osctl_manage.o)
 .debug_info    0x0002c3ed      0x969 libkernel.a(osctl.o)
 .debug_info    0x0002cd56     0x1107 libkernel.a(task_manage.o)
 .debug_info    0x0002de5d      0xc32 libkernel.a(interrupt_manage.o)
 .debug_info    0x0002ea8f      0x766 libkernel.a(interrupt.o)
 .debug_info    0x0002f1f5      0xb41 libkernel.a(task.o)
 .debug_info    0x0002fd36      0x1e6 c:/altera/13.1/nios2eds/bin/gnu/h-i686-mingw32/bin/../lib/gcc/nios2-elf/4.7.3/../../../../../H-i686-mingw32/nios2-elf/lib\libc.a(lib_a-atexit.o)
 .debug_info    0x0002ff1c      0x993 c:/altera/13.1/nios2eds/bin/gnu/h-i686-mingw32/bin/../lib/gcc/nios2-elf/4.7.3/../../../../../H-i686-mingw32/nios2-elf/lib\libc.a(lib_a-exit.o)
 .debug_info    0x000308af      0x938 c:/altera/13.1/nios2eds/bin/gnu/h-i686-mingw32/bin/../lib/gcc/nios2-elf/4.7.3/../../../../../H-i686-mingw32/nios2-elf/lib\libc.a(lib_a-impure.o)
 .debug_info    0x000311e7       0x84 c:/altera/13.1/nios2eds/bin/gnu/h-i686-mingw32/bin/../lib/gcc/nios2-elf/4.7.3/../../../../../H-i686-mingw32/nios2-elf/lib\libc.a(lib_a-int_errno.o)
 .debug_info    0x0003126b      0x9c9 c:/altera/13.1/nios2eds/bin/gnu/h-i686-mingw32/bin/../lib/gcc/nios2-elf/4.7.3/../../../../../H-i686-mingw32/nios2-elf/lib\libc.a(lib_a-malloc.o)
 .debug_info    0x00031c34      0xe44 c:/altera/13.1/nios2eds/bin/gnu/h-i686-mingw32/bin/../lib/gcc/nios2-elf/4.7.3/../../../../../H-i686-mingw32/nios2-elf/lib\libc.a(lib_a-mallocr.o)
 .debug_info    0x00032a78      0x117 c:/altera/13.1/nios2eds/bin/gnu/h-i686-mingw32/bin/../lib/gcc/nios2-elf/4.7.3/../../../../../H-i686-mingw32/nios2-elf/lib\libc.a(lib_a-memcmp.o)
 .debug_info    0x00032b8f      0x10e c:/altera/13.1/nios2eds/bin/gnu/h-i686-mingw32/bin/../lib/gcc/nios2-elf/4.7.3/../../../../../H-i686-mingw32/nios2-elf/lib\libc.a(lib_a-memcpy.o)
 .debug_info    0x00032c9d      0x117 c:/altera/13.1/nios2eds/bin/gnu/h-i686-mingw32/bin/../lib/gcc/nios2-elf/4.7.3/../../../../../H-i686-mingw32/nios2-elf/lib\libc.a(lib_a-memset.o)
 .debug_info    0x00032db4      0xa6c c:/altera/13.1/nios2eds/bin/gnu/h-i686-mingw32/bin/../lib/gcc/nios2-elf/4.7.3/../../../../../H-i686-mingw32/nios2-elf/lib\libc.a(lib_a-printf.o)
 .debug_info    0x00033820      0xab7 c:/altera/13.1/nios2eds/bin/gnu/h-i686-mingw32/bin/../lib/gcc/nios2-elf/4.7.3/../../../../../H-i686-mingw32/nios2-elf/lib\libc.a(lib_a-puts.o)
 .debug_info    0x000342d7      0x9a3 c:/altera/13.1/nios2eds/bin/gnu/h-i686-mingw32/bin/../lib/gcc/nios2-elf/4.7.3/../../../../../H-i686-mingw32/nios2-elf/lib\libc.a(lib_a-sbrkr.o)
 .debug_info    0x00034c7a       0xe1 c:/altera/13.1/nios2eds/bin/gnu/h-i686-mingw32/bin/../lib/gcc/nios2-elf/4.7.3/../../../../../H-i686-mingw32/nios2-elf/lib\libc.a(lib_a-strcmp.o)
 .debug_info    0x00034d5b      0x114 c:/altera/13.1/nios2eds/bin/gnu/h-i686-mingw32/bin/../lib/gcc/nios2-elf/4.7.3/../../../../../H-i686-mingw32/nios2-elf/lib\libc.a(lib_a-strcpy.o)
 .debug_info    0x00034e6f       0xdf c:/altera/13.1/nios2eds/bin/gnu/h-i686-mingw32/bin/../lib/gcc/nios2-elf/4.7.3/../../../../../H-i686-mingw32/nios2-elf/lib\libc.a(lib_a-strlen.o)
 .debug_info    0x00034f4e       0xf9 c:/altera/13.1/nios2eds/bin/gnu/h-i686-mingw32/bin/../lib/gcc/nios2-elf/4.7.3/../../../../../H-i686-mingw32/nios2-elf/lib\libc.a(lib_a-strncmp.o)
 .debug_info    0x00035047     0x195a c:/altera/13.1/nios2eds/bin/gnu/h-i686-mingw32/bin/../lib/gcc/nios2-elf/4.7.3/../../../../../H-i686-mingw32/nios2-elf/lib\libc.a(lib_a-vfprintf.o)
 .debug_info    0x000369a1      0x9d4 c:/altera/13.1/nios2eds/bin/gnu/h-i686-mingw32/bin/../lib/gcc/nios2-elf/4.7.3/../../../../../H-i686-mingw32/nios2-elf/lib\libc.a(lib_a-wsetup.o)
 .debug_info    0x00037375      0x9f9 c:/altera/13.1/nios2eds/bin/gnu/h-i686-mingw32/bin/../lib/gcc/nios2-elf/4.7.3/../../../../../H-i686-mingw32/nios2-elf/lib\libc.a(lib_a-__atexit.o)
 .debug_info    0x00037d6e      0xa07 c:/altera/13.1/nios2eds/bin/gnu/h-i686-mingw32/bin/../lib/gcc/nios2-elf/4.7.3/../../../../../H-i686-mingw32/nios2-elf/lib\libc.a(lib_a-__call_atexit.o)
 .debug_info    0x00038775     0x1408 c:/altera/13.1/nios2eds/bin/gnu/h-i686-mingw32/bin/../lib/gcc/nios2-elf/4.7.3/../../../../../H-i686-mingw32/nios2-elf/lib\libc.a(lib_a-dtoa.o)
 .debug_info    0x00039b7d      0xad0 c:/altera/13.1/nios2eds/bin/gnu/h-i686-mingw32/bin/../lib/gcc/nios2-elf/4.7.3/../../../../../H-i686-mingw32/nios2-elf/lib\libc.a(lib_a-fflush.o)
 .debug_info    0x0003a64d      0xd6f c:/altera/13.1/nios2eds/bin/gnu/h-i686-mingw32/bin/../lib/gcc/nios2-elf/4.7.3/../../../../../H-i686-mingw32/nios2-elf/lib\libc.a(lib_a-findfp.o)
 .debug_info    0x0003b3bc      0xcf9 c:/altera/13.1/nios2eds/bin/gnu/h-i686-mingw32/bin/../lib/gcc/nios2-elf/4.7.3/../../../../../H-i686-mingw32/nios2-elf/lib\libc.a(lib_a-freer.o)
 .debug_info    0x0003c0b5      0xd05 c:/altera/13.1/nios2eds/bin/gnu/h-i686-mingw32/bin/../lib/gcc/nios2-elf/4.7.3/../../../../../H-i686-mingw32/nios2-elf/lib\libc.a(lib_a-fvwrite.o)
 .debug_info    0x0003cdba      0xb72 c:/altera/13.1/nios2eds/bin/gnu/h-i686-mingw32/bin/../lib/gcc/nios2-elf/4.7.3/../../../../../H-i686-mingw32/nios2-elf/lib\libc.a(lib_a-fwalk.o)
 .debug_info    0x0003d92c      0xc10 c:/altera/13.1/nios2eds/bin/gnu/h-i686-mingw32/bin/../lib/gcc/nios2-elf/4.7.3/../../../../../H-i686-mingw32/nios2-elf/lib\libc.a(lib_a-locale.o)
 .debug_info    0x0003e53c      0xbc2 c:/altera/13.1/nios2eds/bin/gnu/h-i686-mingw32/bin/../lib/gcc/nios2-elf/4.7.3/../../../../../H-i686-mingw32/nios2-elf/lib\libc.a(lib_a-makebuf.o)
 .debug_info    0x0003f0fe      0x13e c:/altera/13.1/nios2eds/bin/gnu/h-i686-mingw32/bin/../lib/gcc/nios2-elf/4.7.3/../../../../../H-i686-mingw32/nios2-elf/lib\libc.a(lib_a-memchr.o)
 .debug_info    0x0003f23c      0x146 c:/altera/13.1/nios2eds/bin/gnu/h-i686-mingw32/bin/../lib/gcc/nios2-elf/4.7.3/../../../../../H-i686-mingw32/nios2-elf/lib\libc.a(lib_a-memmove.o)
 .debug_info    0x0003f382     0x172a c:/altera/13.1/nios2eds/bin/gnu/h-i686-mingw32/bin/../lib/gcc/nios2-elf/4.7.3/../../../../../H-i686-mingw32/nios2-elf/lib\libc.a(lib_a-mprec.o)
 .debug_info    0x00040aac      0xd8e c:/altera/13.1/nios2eds/bin/gnu/h-i686-mingw32/bin/../lib/gcc/nios2-elf/4.7.3/../../../../../H-i686-mingw32/nios2-elf/lib\libc.a(lib_a-reallocr.o)
 .debug_info    0x0004183a       0xe8 c:/altera/13.1/nios2eds/bin/gnu/h-i686-mingw32/bin/../lib/gcc/nios2-elf/4.7.3/../../../../../H-i686-mingw32/nios2-elf/lib\libc.a(lib_a-s_isinfd.o)
 .debug_info    0x00041922       0xe8 c:/altera/13.1/nios2eds/bin/gnu/h-i686-mingw32/bin/../lib/gcc/nios2-elf/4.7.3/../../../../../H-i686-mingw32/nios2-elf/lib\libc.a(lib_a-s_isnand.o)
 .debug_info    0x00041a0a      0xbfd c:/altera/13.1/nios2eds/bin/gnu/h-i686-mingw32/bin/../lib/gcc/nios2-elf/4.7.3/../../../../../H-i686-mingw32/nios2-elf/lib\libc.a(lib_a-stdio.o)
 .debug_info    0x00042607      0x9d2 c:/altera/13.1/nios2eds/bin/gnu/h-i686-mingw32/bin/../lib/gcc/nios2-elf/4.7.3/../../../../../H-i686-mingw32/nios2-elf/lib\libc.a(lib_a-writer.o)
 .debug_info    0x00042fd9      0xa9b c:/altera/13.1/nios2eds/bin/gnu/h-i686-mingw32/bin/../lib/gcc/nios2-elf/4.7.3/../../../../../H-i686-mingw32/nios2-elf/lib\libc.a(lib_a-callocr.o)
 .debug_info    0x00043a74      0x97f c:/altera/13.1/nios2eds/bin/gnu/h-i686-mingw32/bin/../lib/gcc/nios2-elf/4.7.3/../../../../../H-i686-mingw32/nios2-elf/lib\libc.a(lib_a-closer.o)
 .debug_info    0x000443f3      0xa97 c:/altera/13.1/nios2eds/bin/gnu/h-i686-mingw32/bin/../lib/gcc/nios2-elf/4.7.3/../../../../../H-i686-mingw32/nios2-elf/lib\libc.a(lib_a-fclose.o)
 .debug_info    0x00044e8a      0xb2f c:/altera/13.1/nios2eds/bin/gnu/h-i686-mingw32/bin/../lib/gcc/nios2-elf/4.7.3/../../../../../H-i686-mingw32/nios2-elf/lib\libc.a(lib_a-fstatr.o)
 .debug_info    0x000459b9      0x97f c:/altera/13.1/nios2eds/bin/gnu/h-i686-mingw32/bin/../lib/gcc/nios2-elf/4.7.3/../../../../../H-i686-mingw32/nios2-elf/lib\libc.a(lib_a-isattyr.o)
 .debug_info    0x00046338      0x9cb c:/altera/13.1/nios2eds/bin/gnu/h-i686-mingw32/bin/../lib/gcc/nios2-elf/4.7.3/../../../../../H-i686-mingw32/nios2-elf/lib\libc.a(lib_a-lseekr.o)
 .debug_info    0x00046d03      0x9cb c:/altera/13.1/nios2eds/bin/gnu/h-i686-mingw32/bin/../lib/gcc/nios2-elf/4.7.3/../../../../../H-i686-mingw32/nios2-elf/lib\libc.a(lib_a-readr.o)
 .debug_info    0x000476ce      0x718 c:/altera/13.1/nios2eds/bin/gnu/h-i686-mingw32/bin/../lib/gcc/nios2-elf/4.7.3\libgcc.a(_udivdi3.o)
 .debug_info    0x00047de6      0x771 c:/altera/13.1/nios2eds/bin/gnu/h-i686-mingw32/bin/../lib/gcc/nios2-elf/4.7.3\libgcc.a(_umoddi3.o)
 .debug_info    0x00048557      0x588 c:/altera/13.1/nios2eds/bin/gnu/h-i686-mingw32/bin/../lib/gcc/nios2-elf/4.7.3\libgcc.a(_addsub_df.o)
 .debug_info    0x00048adf      0x519 c:/altera/13.1/nios2eds/bin/gnu/h-i686-mingw32/bin/../lib/gcc/nios2-elf/4.7.3\libgcc.a(_mul_df.o)
 .debug_info    0x00048ff8      0x443 c:/altera/13.1/nios2eds/bin/gnu/h-i686-mingw32/bin/../lib/gcc/nios2-elf/4.7.3\libgcc.a(_div_df.o)
 .debug_info    0x0004943b      0x320 c:/altera/13.1/nios2eds/bin/gnu/h-i686-mingw32/bin/../lib/gcc/nios2-elf/4.7.3\libgcc.a(_eq_df.o)
 .debug_info    0x0004975b      0x320 c:/altera/13.1/nios2eds/bin/gnu/h-i686-mingw32/bin/../lib/gcc/nios2-elf/4.7.3\libgcc.a(_ne_df.o)
 .debug_info    0x00049a7b      0x320 c:/altera/13.1/nios2eds/bin/gnu/h-i686-mingw32/bin/../lib/gcc/nios2-elf/4.7.3\libgcc.a(_gt_df.o)
 .debug_info    0x00049d9b      0x320 c:/altera/13.1/nios2eds/bin/gnu/h-i686-mingw32/bin/../lib/gcc/nios2-elf/4.7.3\libgcc.a(_ge_df.o)
 .debug_info    0x0004a0bb      0x320 c:/altera/13.1/nios2eds/bin/gnu/h-i686-mingw32/bin/../lib/gcc/nios2-elf/4.7.3\libgcc.a(_lt_df.o)
 .debug_info    0x0004a3db      0x261 c:/altera/13.1/nios2eds/bin/gnu/h-i686-mingw32/bin/../lib/gcc/nios2-elf/4.7.3\libgcc.a(_si_to_df.o)
 .debug_info    0x0004a63c      0x30b c:/altera/13.1/nios2eds/bin/gnu/h-i686-mingw32/bin/../lib/gcc/nios2-elf/4.7.3\libgcc.a(_df_to_si.o)
 .debug_info    0x0004a947      0x155 c:/altera/13.1/nios2eds/bin/gnu/h-i686-mingw32/bin/../lib/gcc/nios2-elf/4.7.3\libgcc.a(_thenan_df.o)
 .debug_info    0x0004aa9c      0x284 c:/altera/13.1/nios2eds/bin/gnu/h-i686-mingw32/bin/../lib/gcc/nios2-elf/4.7.3\libgcc.a(_usi_to_df.o)
 .debug_info    0x0004ad20      0x289 c:/altera/13.1/nios2eds/bin/gnu/h-i686-mingw32/bin/../lib/gcc/nios2-elf/4.7.3\libgcc.a(lib2-divmod.o)
 .debug_info    0x0004afa9      0x1ea c:/altera/13.1/nios2eds/bin/gnu/h-i686-mingw32/bin/../lib/gcc/nios2-elf/4.7.3\libgcc.a(_muldi3.o)
 .debug_info    0x0004b193       0xac c:/altera/13.1/nios2eds/bin/gnu/h-i686-mingw32/bin/../lib/gcc/nios2-elf/4.7.3\libgcc.a(_clz.o)
 .debug_info    0x0004b23f      0x123 c:/altera/13.1/nios2eds/bin/gnu/h-i686-mingw32/bin/../lib/gcc/nios2-elf/4.7.3\libgcc.a(_clzsi2.o)
 .debug_info    0x0004b362      0x2f7 c:/altera/13.1/nios2eds/bin/gnu/h-i686-mingw32/bin/../lib/gcc/nios2-elf/4.7.3\libgcc.a(_pack_df.o)
 .debug_info    0x0004b659      0x265 c:/altera/13.1/nios2eds/bin/gnu/h-i686-mingw32/bin/../lib/gcc/nios2-elf/4.7.3\libgcc.a(_unpack_df.o)
 .debug_info    0x0004b8be      0x226 c:/altera/13.1/nios2eds/bin/gnu/h-i686-mingw32/bin/../lib/gcc/nios2-elf/4.7.3\libgcc.a(_fpcmp_parts_df.o)
 .debug_info    0x0004bae4      0x185 c:/altera/13.1/nios2eds/bin/gnu/h-i686-mingw32/bin/../lib/gcc/nios2-elf/4.7.3\libgcc.a(_lshrdi3.o)
 .debug_info    0x0004bc69      0x185 c:/altera/13.1/nios2eds/bin/gnu/h-i686-mingw32/bin/../lib/gcc/nios2-elf/4.7.3\libgcc.a(_ashldi3.o)
 .debug_info    0x0004bdee       0xe5 c:/altera/13.1/nios2eds/bin/gnu/h-i686-mingw32/bin/../lib/gcc/nios2-elf/4.7.3/../../../../../H-i686-mingw32/nios2-elf/lib\libnosys.a(nosys_sbrk.o)
 .debug_info    0x0004bed3       0xb2 c:/altera/13.1/nios2eds/bin/gnu/h-i686-mingw32/bin/../lib/gcc/nios2-elf/4.7.3/../../../../../H-i686-mingw32/nios2-elf/lib\libnosys.a(nosys_close.o)
 .debug_info    0x0004bf85      0x12b c:/altera/13.1/nios2eds/bin/gnu/h-i686-mingw32/bin/../lib/gcc/nios2-elf/4.7.3/../../../../../H-i686-mingw32/nios2-elf/lib\libnosys.a(nosys_crt0.o)
 .debug_info    0x0004c0b0       0x70 c:/altera/13.1/nios2eds/bin/gnu/h-i686-mingw32/bin/../lib/gcc/nios2-elf/4.7.3/../../../../../H-i686-mingw32/nios2-elf/lib\libnosys.a(nosys_exit.o)
 .debug_info    0x0004c120      0x253 c:/altera/13.1/nios2eds/bin/gnu/h-i686-mingw32/bin/../lib/gcc/nios2-elf/4.7.3/../../../../../H-i686-mingw32/nios2-elf/lib\libnosys.a(nosys_fstat.o)
 .debug_info    0x0004c373       0xb2 c:/altera/13.1/nios2eds/bin/gnu/h-i686-mingw32/bin/../lib/gcc/nios2-elf/4.7.3/../../../../../H-i686-mingw32/nios2-elf/lib\libnosys.a(nosys_isatty.o)
 .debug_info    0x0004c425       0xcc c:/altera/13.1/nios2eds/bin/gnu/h-i686-mingw32/bin/../lib/gcc/nios2-elf/4.7.3/../../../../../H-i686-mingw32/nios2-elf/lib\libnosys.a(nosys_lseek.o)
 .debug_info    0x0004c4f1       0xd2 c:/altera/13.1/nios2eds/bin/gnu/h-i686-mingw32/bin/../lib/gcc/nios2-elf/4.7.3/../../../../../H-i686-mingw32/nios2-elf/lib\libnosys.a(nosys_open.o)
 .debug_info    0x0004c5c3       0xd2 c:/altera/13.1/nios2eds/bin/gnu/h-i686-mingw32/bin/../lib/gcc/nios2-elf/4.7.3/../../../../../H-i686-mingw32/nios2-elf/lib\libnosys.a(nosys_read.o)
 .debug_info    0x0004c695       0xd2 c:/altera/13.1/nios2eds/bin/gnu/h-i686-mingw32/bin/../lib/gcc/nios2-elf/4.7.3/../../../../../H-i686-mingw32/nios2-elf/lib\libnosys.a(nosys_write.o)
 .debug_info    0x0004c767      0x10a c:/altera/13.1/nios2eds/bin/gnu/h-i686-mingw32/bin/../lib/gcc/nios2-elf/4.7.3/../../../../../H-i686-mingw32/nios2-elf/lib\libnosys.a(_zero_bss.o)

.debug_abbrev   0x00000000    0x10114
 *(.debug_abbrev)
 .debug_abbrev  0x00000000       0x12 start.o
 .debug_abbrev  0x00000012       0x14 c:/altera/13.1/nios2eds/bin/gnu/h-i686-mingw32/bin/../lib/gcc/nios2-elf/4.7.3/../../../../../H-i686-mingw32/nios2-elf/lib/crt0.o
 .debug_abbrev  0x00000026      0x33f altera_avalon_sgdma.o
 .debug_abbrev  0x00000365       0xf0 altera_avalon_tse_system_info.o
 .debug_abbrev  0x00000455      0x436 altera_avalon_tse.o
 .debug_abbrev  0x0000088b      0x166 altera_vic.o
 .debug_abbrev  0x000009f1       0xd4 altera_vic_irq_init.o
 .debug_abbrev  0x00000ac5      0x18c altera_vic_isr_register.o
 .debug_abbrev  0x00000c51       0xcf altera_vic_sw_intr.o
 .debug_abbrev  0x00000d20      0x157 altera_vic_set_level.o
 .debug_abbrev  0x00000e77       0x96 alt_usleep.o
 .debug_abbrev  0x00000f0d       0x8d alt_busy_sleep.o
 .debug_abbrev  0x00000f9a       0x74 alt_dcache_flush.o
 .debug_abbrev  0x0000100e       0x26 alt_irq_register.o
 .debug_abbrev  0x00001034       0xa6 alt_remap_uncached.o
 .debug_abbrev  0x000010da       0xd7 alt_uncached_malloc.o
 .debug_abbrev  0x000011b1       0x79 alt_do_ctors.o
 .debug_abbrev  0x0000122a       0x79 alt_do_dtors.o
 .debug_abbrev  0x000012a3       0xd9 alt_dev.o
 .debug_abbrev  0x0000137c      0x11e alt_dev_llist_insert.o
 .debug_abbrev  0x0000149a       0x5a alt_errno.o
 .debug_abbrev  0x000014f4      0x12e alt_find_dev.o
 .debug_abbrev  0x00001622      0x1a3 alt_io_redirect.o
 .debug_abbrev  0x000017c5      0x148 alt_main.o
 .debug_abbrev  0x0000190d      0x187 alt_malloc_lock.o
 .debug_abbrev  0x00001a94       0xde alt_release_fd.o
 .debug_abbrev  0x00001b72       0xfd alt_sys_init.o
 .debug_abbrev  0x00001c6f       0x26 api_lib.o
 .debug_abbrev  0x00001c95       0x26 api_msg.o
 .debug_abbrev  0x00001cbb       0x26 err.o
 .debug_abbrev  0x00001ce1       0x26 netbuf.o
 .debug_abbrev  0x00001d07       0x26 netdb.o
 .debug_abbrev  0x00001d2d       0x26 netifapi.o
 .debug_abbrev  0x00001d53       0x26 sockets.o
 .debug_abbrev  0x00001d79       0x26 tcpip.o
 .debug_abbrev  0x00001d9f      0x246 mem.o
 .debug_abbrev  0x00001fe5      0x1aa memp.o
 .debug_abbrev  0x0000218f      0x38c netif.o
 .debug_abbrev  0x0000251b      0x3cf pbuf.o
 .debug_abbrev  0x000028ea      0x2b4 raw.o
 .debug_abbrev  0x00002b9e       0xc4 stats.o
 .debug_abbrev  0x00002c62       0x26 sys.o
 .debug_abbrev  0x00002c88      0x507 tcp.o
 .debug_abbrev  0x0000318f      0x3a5 tcp_in.o
 .debug_abbrev  0x00003534      0x464 tcp_out.o
 .debug_abbrev  0x00003998      0x32c udp.o
 .debug_abbrev  0x00003cc4       0x26 dns.o
 .debug_abbrev  0x00003cea       0x7f init.o
 .debug_abbrev  0x00003d69      0x428 dhcp.o
 .debug_abbrev  0x00004191       0x26 def.o
 .debug_abbrev  0x000041b7       0x42 timers.o
 .debug_abbrev  0x000041f9       0x26 asn1_dec.o
 .debug_abbrev  0x0000421f       0x26 asn1_enc.o
 .debug_abbrev  0x00004245       0x26 mib2.o
 .debug_abbrev  0x0000426b       0x26 mib_structs.o
 .debug_abbrev  0x00004291       0x26 msg_in.o
 .debug_abbrev  0x000042b7       0x26 msg_out.o
 .debug_abbrev  0x000042dd       0x26 autoip.o
 .debug_abbrev  0x00004303      0x26f icmp.o
 .debug_abbrev  0x00004572       0x26 igmp.o
 .debug_abbrev  0x00004598       0x26 inet.o
 .debug_abbrev  0x000045be      0x179 inet_chksum.o
 .debug_abbrev  0x00004737      0x267 ip.o
 .debug_abbrev  0x0000499e      0x229 ip_addr.o
 .debug_abbrev  0x00004bc7      0x3c7 ip_frag.o
 .debug_abbrev  0x00004f8e       0x26 slipif.o
 .debug_abbrev  0x00004fb4      0x402 etharp.o
 .debug_abbrev  0x000053b6       0x26 ethernetif.o
 .debug_abbrev  0x000053dc       0x26 auth.o
 .debug_abbrev  0x00005402       0x26 fsm.o
 .debug_abbrev  0x00005428       0x26 ipcp.o
 .debug_abbrev  0x0000544e       0x26 lcp.o
 .debug_abbrev  0x00005474       0x26 magic.o
 .debug_abbrev  0x0000549a       0x26 ppp.o
 .debug_abbrev  0x000054c0       0x26 vj.o
 .debug_abbrev  0x000054e6       0x26 chap.o
 .debug_abbrev  0x0000550c       0x26 chpms.o
 .debug_abbrev  0x00005532       0x26 md5.o
 .debug_abbrev  0x00005558       0x26 pap.o
 .debug_abbrev  0x0000557e       0x26 ppp_oe.o
 .debug_abbrev  0x000055a4       0x26 randm.o
 .debug_abbrev  0x000055ca      0x24c alteraTseEthernetif.o
 .debug_abbrev  0x00005816      0x10d fs.o
 .debug_abbrev  0x00005923      0x2da httpd.o
 .debug_abbrev  0x00005bfd      0x2b4 lwip_tse_mac.o
 .debug_abbrev  0x00005eb1       0x6b tse_my_system.o
 .debug_abbrev  0x00005f1c      0x2bc lwip_test.o
 .debug_abbrev  0x000061d8      0x12b jtag_uart.o
 .debug_abbrev  0x00006303      0x12d banner.o
 .debug_abbrev  0x00006430      0x1b6 syslog.o
 .debug_abbrev  0x000065e6       0xbc serial.o
 .debug_abbrev  0x000066a2      0x185 log_output.o
 .debug_abbrev  0x00006827      0x10c vasyslog.o
 .debug_abbrev  0x00006933      0x161 t_perror.o
 .debug_abbrev  0x00006a94       0xa0 strerror.o
 .debug_abbrev  0x00006b34      0x21f Os_Lcfg.o
 .debug_abbrev  0x00006d53       0x12 libkernel.a(prc_support.o)
 .debug_abbrev  0x00006d65      0x1b7 libkernel.a(target_config.o)
 .debug_abbrev  0x00006f1c      0x218 libkernel.a(target_hw_counter.o)
 .debug_abbrev  0x00007134      0x1cd libkernel.a(prc_config.o)
 .debug_abbrev  0x00007301       0xdb libkernel.a(vic.o)
 .debug_abbrev  0x000073dc      0x212 libkernel.a(avalon_timer.o)
 .debug_abbrev  0x000075ee      0x30a libkernel.a(counter_manage.o)
 .debug_abbrev  0x000078f8      0x37d libkernel.a(counter.o)
 .debug_abbrev  0x00007c75      0x36e libkernel.a(alarm.o)
 .debug_abbrev  0x00007fe3      0x2d3 libkernel.a(osctl_manage.o)
 .debug_abbrev  0x000082b6      0x312 libkernel.a(osctl.o)
 .debug_abbrev  0x000085c8      0x318 libkernel.a(task_manage.o)
 .debug_abbrev  0x000088e0      0x282 libkernel.a(interrupt_manage.o)
 .debug_abbrev  0x00008b62      0x237 libkernel.a(interrupt.o)
 .debug_abbrev  0x00008d99      0x3f5 libkernel.a(task.o)
 .debug_abbrev  0x0000918e      0x106 c:/altera/13.1/nios2eds/bin/gnu/h-i686-mingw32/bin/../lib/gcc/nios2-elf/4.7.3/../../../../../H-i686-mingw32/nios2-elf/lib\libc.a(lib_a-atexit.o)
 .debug_abbrev  0x00009294      0x1c8 c:/altera/13.1/nios2eds/bin/gnu/h-i686-mingw32/bin/../lib/gcc/nios2-elf/4.7.3/../../../../../H-i686-mingw32/nios2-elf/lib\libc.a(lib_a-exit.o)
 .debug_abbrev  0x0000945c      0x162 c:/altera/13.1/nios2eds/bin/gnu/h-i686-mingw32/bin/../lib/gcc/nios2-elf/4.7.3/../../../../../H-i686-mingw32/nios2-elf/lib\libc.a(lib_a-impure.o)
 .debug_abbrev  0x000095be       0x37 c:/altera/13.1/nios2eds/bin/gnu/h-i686-mingw32/bin/../lib/gcc/nios2-elf/4.7.3/../../../../../H-i686-mingw32/nios2-elf/lib\libc.a(lib_a-int_errno.o)
 .debug_abbrev  0x000095f5      0x1dc c:/altera/13.1/nios2eds/bin/gnu/h-i686-mingw32/bin/../lib/gcc/nios2-elf/4.7.3/../../../../../H-i686-mingw32/nios2-elf/lib\libc.a(lib_a-malloc.o)
 .debug_abbrev  0x000097d1      0x284 c:/altera/13.1/nios2eds/bin/gnu/h-i686-mingw32/bin/../lib/gcc/nios2-elf/4.7.3/../../../../../H-i686-mingw32/nios2-elf/lib\libc.a(lib_a-mallocr.o)
 .debug_abbrev  0x00009a55       0x7f c:/altera/13.1/nios2eds/bin/gnu/h-i686-mingw32/bin/../lib/gcc/nios2-elf/4.7.3/../../../../../H-i686-mingw32/nios2-elf/lib\libc.a(lib_a-memcmp.o)
 .debug_abbrev  0x00009ad4       0x9c c:/altera/13.1/nios2eds/bin/gnu/h-i686-mingw32/bin/../lib/gcc/nios2-elf/4.7.3/../../../../../H-i686-mingw32/nios2-elf/lib\libc.a(lib_a-memcpy.o)
 .debug_abbrev  0x00009b70       0xac c:/altera/13.1/nios2eds/bin/gnu/h-i686-mingw32/bin/../lib/gcc/nios2-elf/4.7.3/../../../../../H-i686-mingw32/nios2-elf/lib\libc.a(lib_a-memset.o)
 .debug_abbrev  0x00009c1c      0x209 c:/altera/13.1/nios2eds/bin/gnu/h-i686-mingw32/bin/../lib/gcc/nios2-elf/4.7.3/../../../../../H-i686-mingw32/nios2-elf/lib\libc.a(lib_a-printf.o)
 .debug_abbrev  0x00009e25      0x208 c:/altera/13.1/nios2eds/bin/gnu/h-i686-mingw32/bin/../lib/gcc/nios2-elf/4.7.3/../../../../../H-i686-mingw32/nios2-elf/lib\libc.a(lib_a-puts.o)
 .debug_abbrev  0x0000a02d      0x1df c:/altera/13.1/nios2eds/bin/gnu/h-i686-mingw32/bin/../lib/gcc/nios2-elf/4.7.3/../../../../../H-i686-mingw32/nios2-elf/lib\libc.a(lib_a-sbrkr.o)
 .debug_abbrev  0x0000a20c       0x74 c:/altera/13.1/nios2eds/bin/gnu/h-i686-mingw32/bin/../lib/gcc/nios2-elf/4.7.3/../../../../../H-i686-mingw32/nios2-elf/lib\libc.a(lib_a-strcmp.o)
 .debug_abbrev  0x0000a280       0x83 c:/altera/13.1/nios2eds/bin/gnu/h-i686-mingw32/bin/../lib/gcc/nios2-elf/4.7.3/../../../../../H-i686-mingw32/nios2-elf/lib\libc.a(lib_a-strcpy.o)
 .debug_abbrev  0x0000a303       0x90 c:/altera/13.1/nios2eds/bin/gnu/h-i686-mingw32/bin/../lib/gcc/nios2-elf/4.7.3/../../../../../H-i686-mingw32/nios2-elf/lib\libc.a(lib_a-strlen.o)
 .debug_abbrev  0x0000a393       0x81 c:/altera/13.1/nios2eds/bin/gnu/h-i686-mingw32/bin/../lib/gcc/nios2-elf/4.7.3/../../../../../H-i686-mingw32/nios2-elf/lib\libc.a(lib_a-strncmp.o)
 .debug_abbrev  0x0000a414      0x3d9 c:/altera/13.1/nios2eds/bin/gnu/h-i686-mingw32/bin/../lib/gcc/nios2-elf/4.7.3/../../../../../H-i686-mingw32/nios2-elf/lib\libc.a(lib_a-vfprintf.o)
 .debug_abbrev  0x0000a7ed      0x1d5 c:/altera/13.1/nios2eds/bin/gnu/h-i686-mingw32/bin/../lib/gcc/nios2-elf/4.7.3/../../../../../H-i686-mingw32/nios2-elf/lib\libc.a(lib_a-wsetup.o)
 .debug_abbrev  0x0000a9c2      0x211 c:/altera/13.1/nios2eds/bin/gnu/h-i686-mingw32/bin/../lib/gcc/nios2-elf/4.7.3/../../../../../H-i686-mingw32/nios2-elf/lib\libc.a(lib_a-__atexit.o)
 .debug_abbrev  0x0000abd3      0x203 c:/altera/13.1/nios2eds/bin/gnu/h-i686-mingw32/bin/../lib/gcc/nios2-elf/4.7.3/../../../../../H-i686-mingw32/nios2-elf/lib\libc.a(lib_a-__call_atexit.o)
 .debug_abbrev  0x0000add6      0x2ab c:/altera/13.1/nios2eds/bin/gnu/h-i686-mingw32/bin/../lib/gcc/nios2-elf/4.7.3/../../../../../H-i686-mingw32/nios2-elf/lib\libc.a(lib_a-dtoa.o)
 .debug_abbrev  0x0000b081      0x259 c:/altera/13.1/nios2eds/bin/gnu/h-i686-mingw32/bin/../lib/gcc/nios2-elf/4.7.3/../../../../../H-i686-mingw32/nios2-elf/lib\libc.a(lib_a-fflush.o)
 .debug_abbrev  0x0000b2da      0x317 c:/altera/13.1/nios2eds/bin/gnu/h-i686-mingw32/bin/../lib/gcc/nios2-elf/4.7.3/../../../../../H-i686-mingw32/nios2-elf/lib\libc.a(lib_a-findfp.o)
 .debug_abbrev  0x0000b5f1      0x25d c:/altera/13.1/nios2eds/bin/gnu/h-i686-mingw32/bin/../lib/gcc/nios2-elf/4.7.3/../../../../../H-i686-mingw32/nios2-elf/lib\libc.a(lib_a-freer.o)
 .debug_abbrev  0x0000b84e      0x234 c:/altera/13.1/nios2eds/bin/gnu/h-i686-mingw32/bin/../lib/gcc/nios2-elf/4.7.3/../../../../../H-i686-mingw32/nios2-elf/lib\libc.a(lib_a-fvwrite.o)
 .debug_abbrev  0x0000ba82      0x224 c:/altera/13.1/nios2eds/bin/gnu/h-i686-mingw32/bin/../lib/gcc/nios2-elf/4.7.3/../../../../../H-i686-mingw32/nios2-elf/lib\libc.a(lib_a-fwalk.o)
 .debug_abbrev  0x0000bca6      0x29f c:/altera/13.1/nios2eds/bin/gnu/h-i686-mingw32/bin/../lib/gcc/nios2-elf/4.7.3/../../../../../H-i686-mingw32/nios2-elf/lib\libc.a(lib_a-locale.o)
 .debug_abbrev  0x0000bf45      0x1e8 c:/altera/13.1/nios2eds/bin/gnu/h-i686-mingw32/bin/../lib/gcc/nios2-elf/4.7.3/../../../../../H-i686-mingw32/nios2-elf/lib\libc.a(lib_a-makebuf.o)
 .debug_abbrev  0x0000c12d       0xab c:/altera/13.1/nios2eds/bin/gnu/h-i686-mingw32/bin/../lib/gcc/nios2-elf/4.7.3/../../../../../H-i686-mingw32/nios2-elf/lib\libc.a(lib_a-memchr.o)
 .debug_abbrev  0x0000c1d8       0x9c c:/altera/13.1/nios2eds/bin/gnu/h-i686-mingw32/bin/../lib/gcc/nios2-elf/4.7.3/../../../../../H-i686-mingw32/nios2-elf/lib\libc.a(lib_a-memmove.o)
 .debug_abbrev  0x0000c274      0x394 c:/altera/13.1/nios2eds/bin/gnu/h-i686-mingw32/bin/../lib/gcc/nios2-elf/4.7.3/../../../../../H-i686-mingw32/nios2-elf/lib\libc.a(lib_a-mprec.o)
 .debug_abbrev  0x0000c608      0x242 c:/altera/13.1/nios2eds/bin/gnu/h-i686-mingw32/bin/../lib/gcc/nios2-elf/4.7.3/../../../../../H-i686-mingw32/nios2-elf/lib\libc.a(lib_a-reallocr.o)
 .debug_abbrev  0x0000c84a       0x6f c:/altera/13.1/nios2eds/bin/gnu/h-i686-mingw32/bin/../lib/gcc/nios2-elf/4.7.3/../../../../../H-i686-mingw32/nios2-elf/lib\libc.a(lib_a-s_isinfd.o)
 .debug_abbrev  0x0000c8b9       0x6f c:/altera/13.1/nios2eds/bin/gnu/h-i686-mingw32/bin/../lib/gcc/nios2-elf/4.7.3/../../../../../H-i686-mingw32/nios2-elf/lib\libc.a(lib_a-s_isnand.o)
 .debug_abbrev  0x0000c928      0x226 c:/altera/13.1/nios2eds/bin/gnu/h-i686-mingw32/bin/../lib/gcc/nios2-elf/4.7.3/../../../../../H-i686-mingw32/nios2-elf/lib\libc.a(lib_a-stdio.o)
 .debug_abbrev  0x0000cb4e      0x1c0 c:/altera/13.1/nios2eds/bin/gnu/h-i686-mingw32/bin/../lib/gcc/nios2-elf/4.7.3/../../../../../H-i686-mingw32/nios2-elf/lib\libc.a(lib_a-writer.o)
 .debug_abbrev  0x0000cd0e      0x1f5 c:/altera/13.1/nios2eds/bin/gnu/h-i686-mingw32/bin/../lib/gcc/nios2-elf/4.7.3/../../../../../H-i686-mingw32/nios2-elf/lib\libc.a(lib_a-callocr.o)
 .debug_abbrev  0x0000cf03      0x1bb c:/altera/13.1/nios2eds/bin/gnu/h-i686-mingw32/bin/../lib/gcc/nios2-elf/4.7.3/../../../../../H-i686-mingw32/nios2-elf/lib\libc.a(lib_a-closer.o)
 .debug_abbrev  0x0000d0be      0x24e c:/altera/13.1/nios2eds/bin/gnu/h-i686-mingw32/bin/../lib/gcc/nios2-elf/4.7.3/../../../../../H-i686-mingw32/nios2-elf/lib\libc.a(lib_a-fclose.o)
 .debug_abbrev  0x0000d30c      0x1ca c:/altera/13.1/nios2eds/bin/gnu/h-i686-mingw32/bin/../lib/gcc/nios2-elf/4.7.3/../../../../../H-i686-mingw32/nios2-elf/lib\libc.a(lib_a-fstatr.o)
 .debug_abbrev  0x0000d4d6      0x1bb c:/altera/13.1/nios2eds/bin/gnu/h-i686-mingw32/bin/../lib/gcc/nios2-elf/4.7.3/../../../../../H-i686-mingw32/nios2-elf/lib\libc.a(lib_a-isattyr.o)
 .debug_abbrev  0x0000d691      0x1ca c:/altera/13.1/nios2eds/bin/gnu/h-i686-mingw32/bin/../lib/gcc/nios2-elf/4.7.3/../../../../../H-i686-mingw32/nios2-elf/lib\libc.a(lib_a-lseekr.o)
 .debug_abbrev  0x0000d85b      0x1bb c:/altera/13.1/nios2eds/bin/gnu/h-i686-mingw32/bin/../lib/gcc/nios2-elf/4.7.3/../../../../../H-i686-mingw32/nios2-elf/lib\libc.a(lib_a-readr.o)
 .debug_abbrev  0x0000da16      0x170 c:/altera/13.1/nios2eds/bin/gnu/h-i686-mingw32/bin/../lib/gcc/nios2-elf/4.7.3\libgcc.a(_udivdi3.o)
 .debug_abbrev  0x0000db86      0x193 c:/altera/13.1/nios2eds/bin/gnu/h-i686-mingw32/bin/../lib/gcc/nios2-elf/4.7.3\libgcc.a(_umoddi3.o)
 .debug_abbrev  0x0000dd19      0x22d c:/altera/13.1/nios2eds/bin/gnu/h-i686-mingw32/bin/../lib/gcc/nios2-elf/4.7.3\libgcc.a(_addsub_df.o)
 .debug_abbrev  0x0000df46      0x240 c:/altera/13.1/nios2eds/bin/gnu/h-i686-mingw32/bin/../lib/gcc/nios2-elf/4.7.3\libgcc.a(_mul_df.o)
 .debug_abbrev  0x0000e186      0x245 c:/altera/13.1/nios2eds/bin/gnu/h-i686-mingw32/bin/../lib/gcc/nios2-elf/4.7.3\libgcc.a(_div_df.o)
 .debug_abbrev  0x0000e3cb      0x1a5 c:/altera/13.1/nios2eds/bin/gnu/h-i686-mingw32/bin/../lib/gcc/nios2-elf/4.7.3\libgcc.a(_eq_df.o)
 .debug_abbrev  0x0000e570      0x1a5 c:/altera/13.1/nios2eds/bin/gnu/h-i686-mingw32/bin/../lib/gcc/nios2-elf/4.7.3\libgcc.a(_ne_df.o)
 .debug_abbrev  0x0000e715      0x1a5 c:/altera/13.1/nios2eds/bin/gnu/h-i686-mingw32/bin/../lib/gcc/nios2-elf/4.7.3\libgcc.a(_gt_df.o)
 .debug_abbrev  0x0000e8ba      0x1a5 c:/altera/13.1/nios2eds/bin/gnu/h-i686-mingw32/bin/../lib/gcc/nios2-elf/4.7.3\libgcc.a(_ge_df.o)
 .debug_abbrev  0x0000ea5f      0x1a5 c:/altera/13.1/nios2eds/bin/gnu/h-i686-mingw32/bin/../lib/gcc/nios2-elf/4.7.3\libgcc.a(_lt_df.o)
 .debug_abbrev  0x0000ec04      0x19c c:/altera/13.1/nios2eds/bin/gnu/h-i686-mingw32/bin/../lib/gcc/nios2-elf/4.7.3\libgcc.a(_si_to_df.o)
 .debug_abbrev  0x0000eda0      0x1ae c:/altera/13.1/nios2eds/bin/gnu/h-i686-mingw32/bin/../lib/gcc/nios2-elf/4.7.3\libgcc.a(_df_to_si.o)
 .debug_abbrev  0x0000ef4e       0xb6 c:/altera/13.1/nios2eds/bin/gnu/h-i686-mingw32/bin/../lib/gcc/nios2-elf/4.7.3\libgcc.a(_thenan_df.o)
 .debug_abbrev  0x0000f004      0x1bf c:/altera/13.1/nios2eds/bin/gnu/h-i686-mingw32/bin/../lib/gcc/nios2-elf/4.7.3\libgcc.a(_usi_to_df.o)
 .debug_abbrev  0x0000f1c3      0x112 c:/altera/13.1/nios2eds/bin/gnu/h-i686-mingw32/bin/../lib/gcc/nios2-elf/4.7.3\libgcc.a(lib2-divmod.o)
 .debug_abbrev  0x0000f2d5       0xe0 c:/altera/13.1/nios2eds/bin/gnu/h-i686-mingw32/bin/../lib/gcc/nios2-elf/4.7.3\libgcc.a(_muldi3.o)
 .debug_abbrev  0x0000f3b5       0x5d c:/altera/13.1/nios2eds/bin/gnu/h-i686-mingw32/bin/../lib/gcc/nios2-elf/4.7.3\libgcc.a(_clz.o)
 .debug_abbrev  0x0000f412       0xbe c:/altera/13.1/nios2eds/bin/gnu/h-i686-mingw32/bin/../lib/gcc/nios2-elf/4.7.3\libgcc.a(_clzsi2.o)
 .debug_abbrev  0x0000f4d0      0x1b6 c:/altera/13.1/nios2eds/bin/gnu/h-i686-mingw32/bin/../lib/gcc/nios2-elf/4.7.3\libgcc.a(_pack_df.o)
 .debug_abbrev  0x0000f686      0x15d c:/altera/13.1/nios2eds/bin/gnu/h-i686-mingw32/bin/../lib/gcc/nios2-elf/4.7.3\libgcc.a(_unpack_df.o)
 .debug_abbrev  0x0000f7e3      0x146 c:/altera/13.1/nios2eds/bin/gnu/h-i686-mingw32/bin/../lib/gcc/nios2-elf/4.7.3\libgcc.a(_fpcmp_parts_df.o)
 .debug_abbrev  0x0000f929       0xf1 c:/altera/13.1/nios2eds/bin/gnu/h-i686-mingw32/bin/../lib/gcc/nios2-elf/4.7.3\libgcc.a(_lshrdi3.o)
 .debug_abbrev  0x0000fa1a       0xf1 c:/altera/13.1/nios2eds/bin/gnu/h-i686-mingw32/bin/../lib/gcc/nios2-elf/4.7.3\libgcc.a(_ashldi3.o)
 .debug_abbrev  0x0000fb0b       0x9a c:/altera/13.1/nios2eds/bin/gnu/h-i686-mingw32/bin/../lib/gcc/nios2-elf/4.7.3/../../../../../H-i686-mingw32/nios2-elf/lib\libnosys.a(nosys_sbrk.o)
 .debug_abbrev  0x0000fba5       0x66 c:/altera/13.1/nios2eds/bin/gnu/h-i686-mingw32/bin/../lib/gcc/nios2-elf/4.7.3/../../../../../H-i686-mingw32/nios2-elf/lib\libnosys.a(nosys_close.o)
 .debug_abbrev  0x0000fc0b       0xf7 c:/altera/13.1/nios2eds/bin/gnu/h-i686-mingw32/bin/../lib/gcc/nios2-elf/4.7.3/../../../../../H-i686-mingw32/nios2-elf/lib\libnosys.a(nosys_crt0.o)
 .debug_abbrev  0x0000fd02       0x67 c:/altera/13.1/nios2eds/bin/gnu/h-i686-mingw32/bin/../lib/gcc/nios2-elf/4.7.3/../../../../../H-i686-mingw32/nios2-elf/lib\libnosys.a(nosys_exit.o)
 .debug_abbrev  0x0000fd69       0xbb c:/altera/13.1/nios2eds/bin/gnu/h-i686-mingw32/bin/../lib/gcc/nios2-elf/4.7.3/../../../../../H-i686-mingw32/nios2-elf/lib\libnosys.a(nosys_fstat.o)
 .debug_abbrev  0x0000fe24       0x66 c:/altera/13.1/nios2eds/bin/gnu/h-i686-mingw32/bin/../lib/gcc/nios2-elf/4.7.3/../../../../../H-i686-mingw32/nios2-elf/lib\libnosys.a(nosys_isatty.o)
 .debug_abbrev  0x0000fe8a       0x75 c:/altera/13.1/nios2eds/bin/gnu/h-i686-mingw32/bin/../lib/gcc/nios2-elf/4.7.3/../../../../../H-i686-mingw32/nios2-elf/lib\libnosys.a(nosys_lseek.o)
 .debug_abbrev  0x0000feff       0x6f c:/altera/13.1/nios2eds/bin/gnu/h-i686-mingw32/bin/../lib/gcc/nios2-elf/4.7.3/../../../../../H-i686-mingw32/nios2-elf/lib\libnosys.a(nosys_open.o)
 .debug_abbrev  0x0000ff6e       0x7e c:/altera/13.1/nios2eds/bin/gnu/h-i686-mingw32/bin/../lib/gcc/nios2-elf/4.7.3/../../../../../H-i686-mingw32/nios2-elf/lib\libnosys.a(nosys_read.o)
 .debug_abbrev  0x0000ffec       0x7e c:/altera/13.1/nios2eds/bin/gnu/h-i686-mingw32/bin/../lib/gcc/nios2-elf/4.7.3/../../../../../H-i686-mingw32/nios2-elf/lib\libnosys.a(nosys_write.o)
 .debug_abbrev  0x0001006a       0xaa c:/altera/13.1/nios2eds/bin/gnu/h-i686-mingw32/bin/../lib/gcc/nios2-elf/4.7.3/../../../../../H-i686-mingw32/nios2-elf/lib\libnosys.a(_zero_bss.o)

.debug_line     0x00000000    0x145b3
 *(.debug_line)
 .debug_line    0x00000000       0x75 start.o
 .debug_line    0x00000075       0x6c c:/altera/13.1/nios2eds/bin/gnu/h-i686-mingw32/bin/../lib/gcc/nios2-elf/4.7.3/../../../../../H-i686-mingw32/nios2-elf/lib/crt0.o
 .debug_line    0x000000e1      0x309 altera_avalon_sgdma.o
 .debug_line    0x000003ea      0x117 altera_avalon_tse_system_info.o
 .debug_line    0x00000501      0xfbf altera_avalon_tse.o
 .debug_line    0x000014c0      0x13f altera_vic.o
 .debug_line    0x000015ff       0xfc altera_vic_irq_init.o
 .debug_line    0x000016fb      0x131 altera_vic_isr_register.o
 .debug_line    0x0000182c       0xe8 altera_vic_sw_intr.o
 .debug_line    0x00001914      0x120 altera_vic_set_level.o
 .debug_line    0x00001a34      0x116 alt_usleep.o
 .debug_line    0x00001b4a       0xbd alt_busy_sleep.o
 .debug_line    0x00001c07       0x89 alt_dcache_flush.o
 .debug_line    0x00001c90       0x1d alt_irq_register.o
 .debug_line    0x00001cad        0x0 alt_iic.o
 .debug_line    0x00001cad       0xbd alt_remap_uncached.o
 .debug_line    0x00001d6a      0x1a7 alt_uncached_malloc.o
 .debug_line    0x00001f11       0x73 alt_do_ctors.o
 .debug_line    0x00001f84       0x73 alt_do_dtors.o
 .debug_line    0x00001ff7      0x14f alt_dev.o
 .debug_line    0x00002146      0x105 alt_dev_llist_insert.o
 .debug_line    0x0000224b       0x77 alt_errno.o
 .debug_line    0x000022c2      0x1dd alt_find_dev.o
 .debug_line    0x0000249f      0x1b5 alt_io_redirect.o
 .debug_line    0x00002654      0x1e1 alt_main.o
 .debug_line    0x00002835      0x152 alt_malloc_lock.o
 .debug_line    0x00002987       0xf6 alt_release_fd.o
 .debug_line    0x00002a7d      0x12d alt_sys_init.o
 .debug_line    0x00002baa       0x1d api_lib.o
 .debug_line    0x00002bc7       0x1d api_msg.o
 .debug_line    0x00002be4       0x1d err.o
 .debug_line    0x00002c01       0x1d netbuf.o
 .debug_line    0x00002c1e       0x1d netdb.o
 .debug_line    0x00002c3b       0x1d netifapi.o
 .debug_line    0x00002c58       0x1d sockets.o
 .debug_line    0x00002c75       0x1d tcpip.o
 .debug_line    0x00002c92      0x2a8 mem.o
 .debug_line    0x00002f3a      0x1ef memp.o
 .debug_line    0x00003129      0x336 netif.o
 .debug_line    0x0000345f      0x672 pbuf.o
 .debug_line    0x00003ad1      0x296 raw.o
 .debug_line    0x00003d67       0xca stats.o
 .debug_line    0x00003e31       0x1d sys.o
 .debug_line    0x00003e4e      0x834 tcp.o
 .debug_line    0x00004682      0x891 tcp_in.o
 .debug_line    0x00004f13      0x7d1 tcp_out.o
 .debug_line    0x000056e4      0x482 udp.o
 .debug_line    0x00005b66       0x1d dns.o
 .debug_line    0x00005b83       0xd0 init.o
 .debug_line    0x00005c53      0x88a dhcp.o
 .debug_line    0x000064dd       0x1d def.o
 .debug_line    0x000064fa       0x5b timers.o
 .debug_line    0x00006555       0x1d asn1_dec.o
 .debug_line    0x00006572       0x1d asn1_enc.o
 .debug_line    0x0000658f       0x1d mib2.o
 .debug_line    0x000065ac       0x1d mib_structs.o
 .debug_line    0x000065c9       0x1d msg_in.o
 .debug_line    0x000065e6       0x1d msg_out.o
 .debug_line    0x00006603       0x1d autoip.o
 .debug_line    0x00006620      0x2d9 icmp.o
 .debug_line    0x000068f9       0x1d igmp.o
 .debug_line    0x00006916       0x1d inet.o
 .debug_line    0x00006933      0x251 inet_chksum.o
 .debug_line    0x00006b84      0x3cf ip.o
 .debug_line    0x00006f53      0x2aa ip_addr.o
 .debug_line    0x000071fd      0x4c2 ip_frag.o
 .debug_line    0x000076bf       0x1d slipif.o
 .debug_line    0x000076dc      0x69e etharp.o
 .debug_line    0x00007d7a       0x1d ethernetif.o
 .debug_line    0x00007d97       0x1d auth.o
 .debug_line    0x00007db4       0x1d fsm.o
 .debug_line    0x00007dd1       0x1d ipcp.o
 .debug_line    0x00007dee       0x1d lcp.o
 .debug_line    0x00007e0b       0x1d magic.o
 .debug_line    0x00007e28       0x1d ppp.o
 .debug_line    0x00007e45       0x1d vj.o
 .debug_line    0x00007e62       0x1d chap.o
 .debug_line    0x00007e7f       0x1d chpms.o
 .debug_line    0x00007e9c       0x1d md5.o
 .debug_line    0x00007eb9       0x1d pap.o
 .debug_line    0x00007ed6       0x1d ppp_oe.o
 .debug_line    0x00007ef3       0x1d randm.o
 .debug_line    0x00007f10      0x2f3 alteraTseEthernetif.o
 .debug_line    0x00008203       0xfb fs.o
 .debug_line    0x000082fe        0x0 fsdata.o
 .debug_line    0x000082fe      0x2fe httpd.o
 .debug_line    0x000085fc      0x52a lwip_tse_mac.o
 .debug_line    0x00008b26       0x59 tse_my_system.o
 .debug_line    0x00008b7f      0x490 lwip_test.o
 .debug_line    0x0000900f       0xba jtag_uart.o
 .debug_line    0x000090c9       0xca banner.o
 .debug_line    0x00009193      0x123 syslog.o
 .debug_line    0x000092b6       0xb9 serial.o
 .debug_line    0x0000936f      0x1a5 log_output.o
 .debug_line    0x00009514      0x157 vasyslog.o
 .debug_line    0x0000966b       0xe6 t_perror.o
 .debug_line    0x00009751       0x95 strerror.o
 .debug_line    0x000097e6      0x159 Os_Lcfg.o
 .debug_line    0x0000993f      0x202 libkernel.a(prc_support.o)
 .debug_line    0x00009b41      0x142 libkernel.a(target_config.o)
 .debug_line    0x00009c83      0x29e libkernel.a(target_hw_counter.o)
 .debug_line    0x00009f21      0x141 libkernel.a(prc_config.o)
 .debug_line    0x0000a062       0xa1 libkernel.a(vic.o)
 .debug_line    0x0000a103      0x197 libkernel.a(avalon_timer.o)
 .debug_line    0x0000a29a      0x40b libkernel.a(counter_manage.o)
 .debug_line    0x0000a6a5      0x47c libkernel.a(counter.o)
 .debug_line    0x0000ab21      0x4d5 libkernel.a(alarm.o)
 .debug_line    0x0000aff6      0x2b5 libkernel.a(osctl_manage.o)
 .debug_line    0x0000b2ab      0x22a libkernel.a(osctl.o)
 .debug_line    0x0000b4d5      0x4b8 libkernel.a(task_manage.o)
 .debug_line    0x0000b98d      0x3ea libkernel.a(interrupt_manage.o)
 .debug_line    0x0000bd77      0x260 libkernel.a(interrupt.o)
 .debug_line    0x0000bfd7      0x2d8 libkernel.a(task.o)
 .debug_line    0x0000c2af      0x16d c:/altera/13.1/nios2eds/bin/gnu/h-i686-mingw32/bin/../lib/gcc/nios2-elf/4.7.3/../../../../../H-i686-mingw32/nios2-elf/lib\libc.a(lib_a-atexit.o)
 .debug_line    0x0000c41c      0x219 c:/altera/13.1/nios2eds/bin/gnu/h-i686-mingw32/bin/../lib/gcc/nios2-elf/4.7.3/../../../../../H-i686-mingw32/nios2-elf/lib\libc.a(lib_a-exit.o)
 .debug_line    0x0000c635      0x173 c:/altera/13.1/nios2eds/bin/gnu/h-i686-mingw32/bin/../lib/gcc/nios2-elf/4.7.3/../../../../../H-i686-mingw32/nios2-elf/lib\libc.a(lib_a-impure.o)
 .debug_line    0x0000c7a8       0x5d c:/altera/13.1/nios2eds/bin/gnu/h-i686-mingw32/bin/../lib/gcc/nios2-elf/4.7.3/../../../../../H-i686-mingw32/nios2-elf/lib\libc.a(lib_a-int_errno.o)
 .debug_line    0x0000c805      0x207 c:/altera/13.1/nios2eds/bin/gnu/h-i686-mingw32/bin/../lib/gcc/nios2-elf/4.7.3/../../../../../H-i686-mingw32/nios2-elf/lib\libc.a(lib_a-malloc.o)
 .debug_line    0x0000ca0c      0x421 c:/altera/13.1/nios2eds/bin/gnu/h-i686-mingw32/bin/../lib/gcc/nios2-elf/4.7.3/../../../../../H-i686-mingw32/nios2-elf/lib\libc.a(lib_a-mallocr.o)
 .debug_line    0x0000ce2d      0x18d c:/altera/13.1/nios2eds/bin/gnu/h-i686-mingw32/bin/../lib/gcc/nios2-elf/4.7.3/../../../../../H-i686-mingw32/nios2-elf/lib\libc.a(lib_a-memcmp.o)
 .debug_line    0x0000cfba      0x13d c:/altera/13.1/nios2eds/bin/gnu/h-i686-mingw32/bin/../lib/gcc/nios2-elf/4.7.3/../../../../../H-i686-mingw32/nios2-elf/lib\libc.a(lib_a-memcpy.o)
 .debug_line    0x0000d0f7      0x1f1 c:/altera/13.1/nios2eds/bin/gnu/h-i686-mingw32/bin/../lib/gcc/nios2-elf/4.7.3/../../../../../H-i686-mingw32/nios2-elf/lib\libc.a(lib_a-memset.o)
 .debug_line    0x0000d2e8      0x218 c:/altera/13.1/nios2eds/bin/gnu/h-i686-mingw32/bin/../lib/gcc/nios2-elf/4.7.3/../../../../../H-i686-mingw32/nios2-elf/lib\libc.a(lib_a-printf.o)
 .debug_line    0x0000d500      0x235 c:/altera/13.1/nios2eds/bin/gnu/h-i686-mingw32/bin/../lib/gcc/nios2-elf/4.7.3/../../../../../H-i686-mingw32/nios2-elf/lib\libc.a(lib_a-puts.o)
 .debug_line    0x0000d735      0x212 c:/altera/13.1/nios2eds/bin/gnu/h-i686-mingw32/bin/../lib/gcc/nios2-elf/4.7.3/../../../../../H-i686-mingw32/nios2-elf/lib\libc.a(lib_a-sbrkr.o)
 .debug_line    0x0000d947      0x110 c:/altera/13.1/nios2eds/bin/gnu/h-i686-mingw32/bin/../lib/gcc/nios2-elf/4.7.3/../../../../../H-i686-mingw32/nios2-elf/lib\libc.a(lib_a-strcmp.o)
 .debug_line    0x0000da57      0x10b c:/altera/13.1/nios2eds/bin/gnu/h-i686-mingw32/bin/../lib/gcc/nios2-elf/4.7.3/../../../../../H-i686-mingw32/nios2-elf/lib\libc.a(lib_a-strcpy.o)
 .debug_line    0x0000db62      0x182 c:/altera/13.1/nios2eds/bin/gnu/h-i686-mingw32/bin/../lib/gcc/nios2-elf/4.7.3/../../../../../H-i686-mingw32/nios2-elf/lib\libc.a(lib_a-strlen.o)
 .debug_line    0x0000dce4      0x1c8 c:/altera/13.1/nios2eds/bin/gnu/h-i686-mingw32/bin/../lib/gcc/nios2-elf/4.7.3/../../../../../H-i686-mingw32/nios2-elf/lib\libc.a(lib_a-strncmp.o)
 .debug_line    0x0000deac      0xaf9 c:/altera/13.1/nios2eds/bin/gnu/h-i686-mingw32/bin/../lib/gcc/nios2-elf/4.7.3/../../../../../H-i686-mingw32/nios2-elf/lib\libc.a(lib_a-vfprintf.o)
 .debug_line    0x0000e9a5      0x26b c:/altera/13.1/nios2eds/bin/gnu/h-i686-mingw32/bin/../lib/gcc/nios2-elf/4.7.3/../../../../../H-i686-mingw32/nios2-elf/lib\libc.a(lib_a-wsetup.o)
 .debug_line    0x0000ec10      0x250 c:/altera/13.1/nios2eds/bin/gnu/h-i686-mingw32/bin/../lib/gcc/nios2-elf/4.7.3/../../../../../H-i686-mingw32/nios2-elf/lib\libc.a(lib_a-__atexit.o)
 .debug_line    0x0000ee60      0x264 c:/altera/13.1/nios2eds/bin/gnu/h-i686-mingw32/bin/../lib/gcc/nios2-elf/4.7.3/../../../../../H-i686-mingw32/nios2-elf/lib\libc.a(lib_a-__call_atexit.o)
 .debug_line    0x0000f0c4      0x876 c:/altera/13.1/nios2eds/bin/gnu/h-i686-mingw32/bin/../lib/gcc/nios2-elf/4.7.3/../../../../../H-i686-mingw32/nios2-elf/lib\libc.a(lib_a-dtoa.o)
 .debug_line    0x0000f93a      0x29c c:/altera/13.1/nios2eds/bin/gnu/h-i686-mingw32/bin/../lib/gcc/nios2-elf/4.7.3/../../../../../H-i686-mingw32/nios2-elf/lib\libc.a(lib_a-fflush.o)
 .debug_line    0x0000fbd6      0x2e6 c:/altera/13.1/nios2eds/bin/gnu/h-i686-mingw32/bin/../lib/gcc/nios2-elf/4.7.3/../../../../../H-i686-mingw32/nios2-elf/lib\libc.a(lib_a-findfp.o)
 .debug_line    0x0000febc      0x311 c:/altera/13.1/nios2eds/bin/gnu/h-i686-mingw32/bin/../lib/gcc/nios2-elf/4.7.3/../../../../../H-i686-mingw32/nios2-elf/lib\libc.a(lib_a-freer.o)
 .debug_line    0x000101cd      0x360 c:/altera/13.1/nios2eds/bin/gnu/h-i686-mingw32/bin/../lib/gcc/nios2-elf/4.7.3/../../../../../H-i686-mingw32/nios2-elf/lib\libc.a(lib_a-fvwrite.o)
 .debug_line    0x0001052d      0x259 c:/altera/13.1/nios2eds/bin/gnu/h-i686-mingw32/bin/../lib/gcc/nios2-elf/4.7.3/../../../../../H-i686-mingw32/nios2-elf/lib\libc.a(lib_a-fwalk.o)
 .debug_line    0x00010786      0x231 c:/altera/13.1/nios2eds/bin/gnu/h-i686-mingw32/bin/../lib/gcc/nios2-elf/4.7.3/../../../../../H-i686-mingw32/nios2-elf/lib\libc.a(lib_a-locale.o)
 .debug_line    0x000109b7      0x293 c:/altera/13.1/nios2eds/bin/gnu/h-i686-mingw32/bin/../lib/gcc/nios2-elf/4.7.3/../../../../../H-i686-mingw32/nios2-elf/lib\libc.a(lib_a-makebuf.o)
 .debug_line    0x00010c4a      0x1f1 c:/altera/13.1/nios2eds/bin/gnu/h-i686-mingw32/bin/../lib/gcc/nios2-elf/4.7.3/../../../../../H-i686-mingw32/nios2-elf/lib\libc.a(lib_a-memchr.o)
 .debug_line    0x00010e3b      0x1ed c:/altera/13.1/nios2eds/bin/gnu/h-i686-mingw32/bin/../lib/gcc/nios2-elf/4.7.3/../../../../../H-i686-mingw32/nios2-elf/lib\libc.a(lib_a-memmove.o)
 .debug_line    0x00011028      0x725 c:/altera/13.1/nios2eds/bin/gnu/h-i686-mingw32/bin/../lib/gcc/nios2-elf/4.7.3/../../../../../H-i686-mingw32/nios2-elf/lib\libc.a(lib_a-mprec.o)
 .debug_line    0x0001174d      0x330 c:/altera/13.1/nios2eds/bin/gnu/h-i686-mingw32/bin/../lib/gcc/nios2-elf/4.7.3/../../../../../H-i686-mingw32/nios2-elf/lib\libc.a(lib_a-reallocr.o)
 .debug_line    0x00011a7d      0x170 c:/altera/13.1/nios2eds/bin/gnu/h-i686-mingw32/bin/../lib/gcc/nios2-elf/4.7.3/../../../../../H-i686-mingw32/nios2-elf/lib\libc.a(lib_a-s_isinfd.o)
 .debug_line    0x00011bed      0x170 c:/altera/13.1/nios2eds/bin/gnu/h-i686-mingw32/bin/../lib/gcc/nios2-elf/4.7.3/../../../../../H-i686-mingw32/nios2-elf/lib\libc.a(lib_a-s_isnand.o)
 .debug_line    0x00011d5d      0x245 c:/altera/13.1/nios2eds/bin/gnu/h-i686-mingw32/bin/../lib/gcc/nios2-elf/4.7.3/../../../../../H-i686-mingw32/nios2-elf/lib\libc.a(lib_a-stdio.o)
 .debug_line    0x00011fa2      0x213 c:/altera/13.1/nios2eds/bin/gnu/h-i686-mingw32/bin/../lib/gcc/nios2-elf/4.7.3/../../../../../H-i686-mingw32/nios2-elf/lib\libc.a(lib_a-writer.o)
 .debug_line    0x000121b5      0x1c9 c:/altera/13.1/nios2eds/bin/gnu/h-i686-mingw32/bin/../lib/gcc/nios2-elf/4.7.3/../../../../../H-i686-mingw32/nios2-elf/lib\libc.a(lib_a-callocr.o)
 .debug_line    0x0001237e      0x213 c:/altera/13.1/nios2eds/bin/gnu/h-i686-mingw32/bin/../lib/gcc/nios2-elf/4.7.3/../../../../../H-i686-mingw32/nios2-elf/lib\libc.a(lib_a-closer.o)
 .debug_line    0x00012591      0x266 c:/altera/13.1/nios2eds/bin/gnu/h-i686-mingw32/bin/../lib/gcc/nios2-elf/4.7.3/../../../../../H-i686-mingw32/nios2-elf/lib\libc.a(lib_a-fclose.o)
 .debug_line    0x000127f7      0x21c c:/altera/13.1/nios2eds/bin/gnu/h-i686-mingw32/bin/../lib/gcc/nios2-elf/4.7.3/../../../../../H-i686-mingw32/nios2-elf/lib\libc.a(lib_a-fstatr.o)
 .debug_line    0x00012a13      0x214 c:/altera/13.1/nios2eds/bin/gnu/h-i686-mingw32/bin/../lib/gcc/nios2-elf/4.7.3/../../../../../H-i686-mingw32/nios2-elf/lib\libc.a(lib_a-isattyr.o)
 .debug_line    0x00012c27      0x21e c:/altera/13.1/nios2eds/bin/gnu/h-i686-mingw32/bin/../lib/gcc/nios2-elf/4.7.3/../../../../../H-i686-mingw32/nios2-elf/lib\libc.a(lib_a-lseekr.o)
 .debug_line    0x00012e45      0x212 c:/altera/13.1/nios2eds/bin/gnu/h-i686-mingw32/bin/../lib/gcc/nios2-elf/4.7.3/../../../../../H-i686-mingw32/nios2-elf/lib\libc.a(lib_a-readr.o)
 .debug_line    0x00013057      0x119 c:/altera/13.1/nios2eds/bin/gnu/h-i686-mingw32/bin/../lib/gcc/nios2-elf/4.7.3\libgcc.a(_udivdi3.o)
 .debug_line    0x00013170      0x121 c:/altera/13.1/nios2eds/bin/gnu/h-i686-mingw32/bin/../lib/gcc/nios2-elf/4.7.3\libgcc.a(_umoddi3.o)
 .debug_line    0x00013291      0x131 c:/altera/13.1/nios2eds/bin/gnu/h-i686-mingw32/bin/../lib/gcc/nios2-elf/4.7.3\libgcc.a(_addsub_df.o)
 .debug_line    0x000133c2      0x114 c:/altera/13.1/nios2eds/bin/gnu/h-i686-mingw32/bin/../lib/gcc/nios2-elf/4.7.3\libgcc.a(_mul_df.o)
 .debug_line    0x000134d6       0xce c:/altera/13.1/nios2eds/bin/gnu/h-i686-mingw32/bin/../lib/gcc/nios2-elf/4.7.3\libgcc.a(_div_df.o)
 .debug_line    0x000135a4       0x6d c:/altera/13.1/nios2eds/bin/gnu/h-i686-mingw32/bin/../lib/gcc/nios2-elf/4.7.3\libgcc.a(_eq_df.o)
 .debug_line    0x00013611       0x6d c:/altera/13.1/nios2eds/bin/gnu/h-i686-mingw32/bin/../lib/gcc/nios2-elf/4.7.3\libgcc.a(_ne_df.o)
 .debug_line    0x0001367e       0x6e c:/altera/13.1/nios2eds/bin/gnu/h-i686-mingw32/bin/../lib/gcc/nios2-elf/4.7.3\libgcc.a(_gt_df.o)
 .debug_line    0x000136ec       0x6e c:/altera/13.1/nios2eds/bin/gnu/h-i686-mingw32/bin/../lib/gcc/nios2-elf/4.7.3\libgcc.a(_ge_df.o)
 .debug_line    0x0001375a       0x6d c:/altera/13.1/nios2eds/bin/gnu/h-i686-mingw32/bin/../lib/gcc/nios2-elf/4.7.3\libgcc.a(_lt_df.o)
 .debug_line    0x000137c7       0x94 c:/altera/13.1/nios2eds/bin/gnu/h-i686-mingw32/bin/../lib/gcc/nios2-elf/4.7.3\libgcc.a(_si_to_df.o)
 .debug_line    0x0001385b       0x8d c:/altera/13.1/nios2eds/bin/gnu/h-i686-mingw32/bin/../lib/gcc/nios2-elf/4.7.3\libgcc.a(_df_to_si.o)
 .debug_line    0x000138e8       0x51 c:/altera/13.1/nios2eds/bin/gnu/h-i686-mingw32/bin/../lib/gcc/nios2-elf/4.7.3\libgcc.a(_thenan_df.o)
 .debug_line    0x00013939       0x9e c:/altera/13.1/nios2eds/bin/gnu/h-i686-mingw32/bin/../lib/gcc/nios2-elf/4.7.3\libgcc.a(_usi_to_df.o)
 .debug_line    0x000139d7       0xd3 c:/altera/13.1/nios2eds/bin/gnu/h-i686-mingw32/bin/../lib/gcc/nios2-elf/4.7.3\libgcc.a(lib2-divmod.o)
 .debug_line    0x00013aaa       0x8b c:/altera/13.1/nios2eds/bin/gnu/h-i686-mingw32/bin/../lib/gcc/nios2-elf/4.7.3\libgcc.a(_muldi3.o)
 .debug_line    0x00013b35       0x53 c:/altera/13.1/nios2eds/bin/gnu/h-i686-mingw32/bin/../lib/gcc/nios2-elf/4.7.3\libgcc.a(_clz.o)
 .debug_line    0x00013b88       0x8c c:/altera/13.1/nios2eds/bin/gnu/h-i686-mingw32/bin/../lib/gcc/nios2-elf/4.7.3\libgcc.a(_clzsi2.o)
 .debug_line    0x00013c14       0xc7 c:/altera/13.1/nios2eds/bin/gnu/h-i686-mingw32/bin/../lib/gcc/nios2-elf/4.7.3\libgcc.a(_pack_df.o)
 .debug_line    0x00013cdb       0xa2 c:/altera/13.1/nios2eds/bin/gnu/h-i686-mingw32/bin/../lib/gcc/nios2-elf/4.7.3\libgcc.a(_unpack_df.o)
 .debug_line    0x00013d7d       0x96 c:/altera/13.1/nios2eds/bin/gnu/h-i686-mingw32/bin/../lib/gcc/nios2-elf/4.7.3\libgcc.a(_fpcmp_parts_df.o)
 .debug_line    0x00013e13       0x77 c:/altera/13.1/nios2eds/bin/gnu/h-i686-mingw32/bin/../lib/gcc/nios2-elf/4.7.3\libgcc.a(_lshrdi3.o)
 .debug_line    0x00013e8a       0x75 c:/altera/13.1/nios2eds/bin/gnu/h-i686-mingw32/bin/../lib/gcc/nios2-elf/4.7.3\libgcc.a(_ashldi3.o)
 .debug_line    0x00013eff       0xec c:/altera/13.1/nios2eds/bin/gnu/h-i686-mingw32/bin/../lib/gcc/nios2-elf/4.7.3/../../../../../H-i686-mingw32/nios2-elf/lib\libnosys.a(nosys_sbrk.o)
 .debug_line    0x00013feb       0x6a c:/altera/13.1/nios2eds/bin/gnu/h-i686-mingw32/bin/../lib/gcc/nios2-elf/4.7.3/../../../../../H-i686-mingw32/nios2-elf/lib\libnosys.a(nosys_close.o)
 .debug_line    0x00014055       0x7d c:/altera/13.1/nios2eds/bin/gnu/h-i686-mingw32/bin/../lib/gcc/nios2-elf/4.7.3/../../../../../H-i686-mingw32/nios2-elf/lib\libnosys.a(nosys_crt0.o)
 .debug_line    0x000140d2       0x6d c:/altera/13.1/nios2eds/bin/gnu/h-i686-mingw32/bin/../lib/gcc/nios2-elf/4.7.3/../../../../../H-i686-mingw32/nios2-elf/lib\libnosys.a(nosys_exit.o)
 .debug_line    0x0001413f       0xfb c:/altera/13.1/nios2eds/bin/gnu/h-i686-mingw32/bin/../lib/gcc/nios2-elf/4.7.3/../../../../../H-i686-mingw32/nios2-elf/lib\libnosys.a(nosys_fstat.o)
 .debug_line    0x0001423a       0x6b c:/altera/13.1/nios2eds/bin/gnu/h-i686-mingw32/bin/../lib/gcc/nios2-elf/4.7.3/../../../../../H-i686-mingw32/nios2-elf/lib\libnosys.a(nosys_isatty.o)
 .debug_line    0x000142a5       0x6a c:/altera/13.1/nios2eds/bin/gnu/h-i686-mingw32/bin/../lib/gcc/nios2-elf/4.7.3/../../../../../H-i686-mingw32/nios2-elf/lib\libnosys.a(nosys_lseek.o)
 .debug_line    0x0001430f       0x69 c:/altera/13.1/nios2eds/bin/gnu/h-i686-mingw32/bin/../lib/gcc/nios2-elf/4.7.3/../../../../../H-i686-mingw32/nios2-elf/lib\libnosys.a(nosys_open.o)
 .debug_line    0x00014378       0x69 c:/altera/13.1/nios2eds/bin/gnu/h-i686-mingw32/bin/../lib/gcc/nios2-elf/4.7.3/../../../../../H-i686-mingw32/nios2-elf/lib\libnosys.a(nosys_read.o)
 .debug_line    0x000143e1       0x6a c:/altera/13.1/nios2eds/bin/gnu/h-i686-mingw32/bin/../lib/gcc/nios2-elf/4.7.3/../../../../../H-i686-mingw32/nios2-elf/lib\libnosys.a(nosys_write.o)
 .debug_line    0x0001444b      0x168 c:/altera/13.1/nios2eds/bin/gnu/h-i686-mingw32/bin/../lib/gcc/nios2-elf/4.7.3/../../../../../H-i686-mingw32/nios2-elf/lib\libnosys.a(_zero_bss.o)

.debug_frame    0x00000000     0x3c70
 *(.debug_frame)
 .debug_frame   0x00000000      0x1b0 altera_avalon_sgdma.o
 .debug_frame   0x000001b0      0x45c altera_avalon_tse.o
 .debug_frame   0x0000060c       0x40 altera_vic.o
 .debug_frame   0x0000064c       0x20 altera_vic_irq_init.o
 .debug_frame   0x0000066c       0x20 altera_vic_isr_register.o
 .debug_frame   0x0000068c       0x40 altera_vic_sw_intr.o
 .debug_frame   0x000006cc       0x20 altera_vic_set_level.o
 .debug_frame   0x000006ec       0x20 alt_usleep.o
 .debug_frame   0x0000070c       0x20 alt_busy_sleep.o
 .debug_frame   0x0000072c       0x20 alt_dcache_flush.o
 .debug_frame   0x0000074c       0x28 alt_remap_uncached.o
 .debug_frame   0x00000774       0x2c alt_uncached_malloc.o
 .debug_frame   0x000007a0       0x2c alt_do_ctors.o
 .debug_frame   0x000007cc       0x2c alt_do_dtors.o
 .debug_frame   0x000007f8       0x20 alt_dev.o
 .debug_frame   0x00000818       0x28 alt_dev_llist_insert.o
 .debug_frame   0x00000840       0x30 alt_find_dev.o
 .debug_frame   0x00000870       0x4c alt_io_redirect.o
 .debug_frame   0x000008bc       0x28 alt_main.o
 .debug_frame   0x000008e4       0x30 alt_malloc_lock.o
 .debug_frame   0x00000914       0x20 alt_release_fd.o
 .debug_frame   0x00000934       0x28 alt_sys_init.o
 .debug_frame   0x0000095c       0x88 mem.o
 .debug_frame   0x000009e4       0x50 memp.o
 .debug_frame   0x00000a34      0x118 netif.o
 .debug_frame   0x00000b4c      0x1f8 pbuf.o
 .debug_frame   0x00000d44       0xc0 raw.o
 .debug_frame   0x00000e04       0x20 stats.o
 .debug_frame   0x00000e24      0x34c tcp.o
 .debug_frame   0x00001170       0x88 tcp_in.o
 .debug_frame   0x000011f8      0x1c0 tcp_out.o
 .debug_frame   0x000013b8      0x118 udp.o
 .debug_frame   0x000014d0       0x28 init.o
 .debug_frame   0x000014f8      0x2e0 dhcp.o
 .debug_frame   0x000017d8       0x20 timers.o
 .debug_frame   0x000017f8       0x80 icmp.o
 .debug_frame   0x00001878       0xac inet_chksum.o
 .debug_frame   0x00001924       0x90 ip.o
 .debug_frame   0x000019b4       0x90 ip_addr.o
 .debug_frame   0x00001a44       0xe0 ip_frag.o
 .debug_frame   0x00001b24      0x1a8 etharp.o
 .debug_frame   0x00001ccc       0x50 alteraTseEthernetif.o
 .debug_frame   0x00001d1c       0x2c fs.o
 .debug_frame   0x00001d48       0xe4 httpd.o
 .debug_frame   0x00001e2c       0xb0 lwip_tse_mac.o
 .debug_frame   0x00001edc       0xe4 lwip_test.o
 .debug_frame   0x00001fc0       0x40 jtag_uart.o
 .debug_frame   0x00002000       0x28 banner.o
 .debug_frame   0x00002028       0x48 syslog.o
 .debug_frame   0x00002070       0x68 serial.o
 .debug_frame   0x000020d8       0x68 log_output.o
 .debug_frame   0x00002140       0x2c vasyslog.o
 .debug_frame   0x0000216c       0x34 t_perror.o
 .debug_frame   0x000021a0       0x20 strerror.o
 .debug_frame   0x000021c0       0x98 Os_Lcfg.o
 .debug_frame   0x00002258       0x70 libkernel.a(target_config.o)
 .debug_frame   0x000022c8      0x200 libkernel.a(target_hw_counter.o)
 .debug_frame   0x000024c8       0x70 libkernel.a(prc_config.o)
 .debug_frame   0x00002538       0x20 libkernel.a(vic.o)
 .debug_frame   0x00002558       0x68 libkernel.a(avalon_timer.o)
 .debug_frame   0x000025c0       0xa4 libkernel.a(counter_manage.o)
 .debug_frame   0x00002664       0xf4 libkernel.a(counter.o)
 .debug_frame   0x00002758       0xe4 libkernel.a(alarm.o)
 .debug_frame   0x0000283c       0x74 libkernel.a(osctl_manage.o)
 .debug_frame   0x000028b0       0xd4 libkernel.a(osctl.o)
 .debug_frame   0x00002984       0xc8 libkernel.a(task_manage.o)
 .debug_frame   0x00002a4c       0xac libkernel.a(interrupt_manage.o)
 .debug_frame   0x00002af8       0x70 libkernel.a(interrupt.o)
 .debug_frame   0x00002b68       0xcc libkernel.a(task.o)
 .debug_frame   0x00002c34       0x20 c:/altera/13.1/nios2eds/bin/gnu/h-i686-mingw32/bin/../lib/gcc/nios2-elf/4.7.3/../../../../../H-i686-mingw32/nios2-elf/lib\libc.a(lib_a-atexit.o)
 .debug_frame   0x00002c54       0x28 c:/altera/13.1/nios2eds/bin/gnu/h-i686-mingw32/bin/../lib/gcc/nios2-elf/4.7.3/../../../../../H-i686-mingw32/nios2-elf/lib\libc.a(lib_a-exit.o)
 .debug_frame   0x00002c7c       0x30 c:/altera/13.1/nios2eds/bin/gnu/h-i686-mingw32/bin/../lib/gcc/nios2-elf/4.7.3/../../../../../H-i686-mingw32/nios2-elf/lib\libc.a(lib_a-malloc.o)
 .debug_frame   0x00002cac       0x38 c:/altera/13.1/nios2eds/bin/gnu/h-i686-mingw32/bin/../lib/gcc/nios2-elf/4.7.3/../../../../../H-i686-mingw32/nios2-elf/lib\libc.a(lib_a-mallocr.o)
 .debug_frame   0x00002ce4       0x20 c:/altera/13.1/nios2eds/bin/gnu/h-i686-mingw32/bin/../lib/gcc/nios2-elf/4.7.3/../../../../../H-i686-mingw32/nios2-elf/lib\libc.a(lib_a-memcmp.o)
 .debug_frame   0x00002d04       0x20 c:/altera/13.1/nios2eds/bin/gnu/h-i686-mingw32/bin/../lib/gcc/nios2-elf/4.7.3/../../../../../H-i686-mingw32/nios2-elf/lib\libc.a(lib_a-memcpy.o)
 .debug_frame   0x00002d24       0x20 c:/altera/13.1/nios2eds/bin/gnu/h-i686-mingw32/bin/../lib/gcc/nios2-elf/4.7.3/../../../../../H-i686-mingw32/nios2-elf/lib\libc.a(lib_a-memset.o)
 .debug_frame   0x00002d44       0x40 c:/altera/13.1/nios2eds/bin/gnu/h-i686-mingw32/bin/../lib/gcc/nios2-elf/4.7.3/../../../../../H-i686-mingw32/nios2-elf/lib\libc.a(lib_a-printf.o)
 .debug_frame   0x00002d84       0x3c c:/altera/13.1/nios2eds/bin/gnu/h-i686-mingw32/bin/../lib/gcc/nios2-elf/4.7.3/../../../../../H-i686-mingw32/nios2-elf/lib\libc.a(lib_a-puts.o)
 .debug_frame   0x00002dc0       0x2c c:/altera/13.1/nios2eds/bin/gnu/h-i686-mingw32/bin/../lib/gcc/nios2-elf/4.7.3/../../../../../H-i686-mingw32/nios2-elf/lib\libc.a(lib_a-sbrkr.o)
 .debug_frame   0x00002dec       0x20 c:/altera/13.1/nios2eds/bin/gnu/h-i686-mingw32/bin/../lib/gcc/nios2-elf/4.7.3/../../../../../H-i686-mingw32/nios2-elf/lib\libc.a(lib_a-strcmp.o)
 .debug_frame   0x00002e0c       0x20 c:/altera/13.1/nios2eds/bin/gnu/h-i686-mingw32/bin/../lib/gcc/nios2-elf/4.7.3/../../../../../H-i686-mingw32/nios2-elf/lib\libc.a(lib_a-strcpy.o)
 .debug_frame   0x00002e2c       0x20 c:/altera/13.1/nios2eds/bin/gnu/h-i686-mingw32/bin/../lib/gcc/nios2-elf/4.7.3/../../../../../H-i686-mingw32/nios2-elf/lib\libc.a(lib_a-strlen.o)
 .debug_frame   0x00002e4c       0x20 c:/altera/13.1/nios2eds/bin/gnu/h-i686-mingw32/bin/../lib/gcc/nios2-elf/4.7.3/../../../../../H-i686-mingw32/nios2-elf/lib\libc.a(lib_a-strncmp.o)
 .debug_frame   0x00002e6c       0x64 c:/altera/13.1/nios2eds/bin/gnu/h-i686-mingw32/bin/../lib/gcc/nios2-elf/4.7.3/../../../../../H-i686-mingw32/nios2-elf/lib\libc.a(lib_a-vfprintf.o)
 .debug_frame   0x00002ed0       0x2c c:/altera/13.1/nios2eds/bin/gnu/h-i686-mingw32/bin/../lib/gcc/nios2-elf/4.7.3/../../../../../H-i686-mingw32/nios2-elf/lib\libc.a(lib_a-wsetup.o)
 .debug_frame   0x00002efc       0x2c c:/altera/13.1/nios2eds/bin/gnu/h-i686-mingw32/bin/../lib/gcc/nios2-elf/4.7.3/../../../../../H-i686-mingw32/nios2-elf/lib\libc.a(lib_a-__atexit.o)
 .debug_frame   0x00002f28       0x38 c:/altera/13.1/nios2eds/bin/gnu/h-i686-mingw32/bin/../lib/gcc/nios2-elf/4.7.3/../../../../../H-i686-mingw32/nios2-elf/lib\libc.a(lib_a-__call_atexit.o)
 .debug_frame   0x00002f60       0x64 c:/altera/13.1/nios2eds/bin/gnu/h-i686-mingw32/bin/../lib/gcc/nios2-elf/4.7.3/../../../../../H-i686-mingw32/nios2-elf/lib\libc.a(lib_a-dtoa.o)
 .debug_frame   0x00002fc4       0x40 c:/altera/13.1/nios2eds/bin/gnu/h-i686-mingw32/bin/../lib/gcc/nios2-elf/4.7.3/../../../../../H-i686-mingw32/nios2-elf/lib\libc.a(lib_a-fflush.o)
 .debug_frame   0x00003004      0x100 c:/altera/13.1/nios2eds/bin/gnu/h-i686-mingw32/bin/../lib/gcc/nios2-elf/4.7.3/../../../../../H-i686-mingw32/nios2-elf/lib\libc.a(lib_a-findfp.o)
 .debug_frame   0x00003104       0x4c c:/altera/13.1/nios2eds/bin/gnu/h-i686-mingw32/bin/../lib/gcc/nios2-elf/4.7.3/../../../../../H-i686-mingw32/nios2-elf/lib\libc.a(lib_a-freer.o)
 .debug_frame   0x00003150       0x38 c:/altera/13.1/nios2eds/bin/gnu/h-i686-mingw32/bin/../lib/gcc/nios2-elf/4.7.3/../../../../../H-i686-mingw32/nios2-elf/lib\libc.a(lib_a-fvwrite.o)
 .debug_frame   0x00003188       0x5c c:/altera/13.1/nios2eds/bin/gnu/h-i686-mingw32/bin/../lib/gcc/nios2-elf/4.7.3/../../../../../H-i686-mingw32/nios2-elf/lib\libc.a(lib_a-fwalk.o)
 .debug_frame   0x000031e4       0x6c c:/altera/13.1/nios2eds/bin/gnu/h-i686-mingw32/bin/../lib/gcc/nios2-elf/4.7.3/../../../../../H-i686-mingw32/nios2-elf/lib\libc.a(lib_a-locale.o)
 .debug_frame   0x00003250       0x2c c:/altera/13.1/nios2eds/bin/gnu/h-i686-mingw32/bin/../lib/gcc/nios2-elf/4.7.3/../../../../../H-i686-mingw32/nios2-elf/lib\libc.a(lib_a-makebuf.o)
 .debug_frame   0x0000327c       0x20 c:/altera/13.1/nios2eds/bin/gnu/h-i686-mingw32/bin/../lib/gcc/nios2-elf/4.7.3/../../../../../H-i686-mingw32/nios2-elf/lib\libc.a(lib_a-memchr.o)
 .debug_frame   0x0000329c       0x20 c:/altera/13.1/nios2eds/bin/gnu/h-i686-mingw32/bin/../lib/gcc/nios2-elf/4.7.3/../../../../../H-i686-mingw32/nios2-elf/lib\libc.a(lib_a-memmove.o)
 .debug_frame   0x000032bc      0x204 c:/altera/13.1/nios2eds/bin/gnu/h-i686-mingw32/bin/../lib/gcc/nios2-elf/4.7.3/../../../../../H-i686-mingw32/nios2-elf/lib\libc.a(lib_a-mprec.o)
 .debug_frame   0x000034c0       0x38 c:/altera/13.1/nios2eds/bin/gnu/h-i686-mingw32/bin/../lib/gcc/nios2-elf/4.7.3/../../../../../H-i686-mingw32/nios2-elf/lib\libc.a(lib_a-reallocr.o)
 .debug_frame   0x000034f8       0x20 c:/altera/13.1/nios2eds/bin/gnu/h-i686-mingw32/bin/../lib/gcc/nios2-elf/4.7.3/../../../../../H-i686-mingw32/nios2-elf/lib\libc.a(lib_a-s_isinfd.o)
 .debug_frame   0x00003518       0x20 c:/altera/13.1/nios2eds/bin/gnu/h-i686-mingw32/bin/../lib/gcc/nios2-elf/4.7.3/../../../../../H-i686-mingw32/nios2-elf/lib\libc.a(lib_a-s_isnand.o)
 .debug_frame   0x00003538       0x78 c:/altera/13.1/nios2eds/bin/gnu/h-i686-mingw32/bin/../lib/gcc/nios2-elf/4.7.3/../../../../../H-i686-mingw32/nios2-elf/lib\libc.a(lib_a-stdio.o)
 .debug_frame   0x000035b0       0x2c c:/altera/13.1/nios2eds/bin/gnu/h-i686-mingw32/bin/../lib/gcc/nios2-elf/4.7.3/../../../../../H-i686-mingw32/nios2-elf/lib\libc.a(lib_a-writer.o)
 .debug_frame   0x000035dc       0x28 c:/altera/13.1/nios2eds/bin/gnu/h-i686-mingw32/bin/../lib/gcc/nios2-elf/4.7.3/../../../../../H-i686-mingw32/nios2-elf/lib\libc.a(lib_a-callocr.o)
 .debug_frame   0x00003604       0x2c c:/altera/13.1/nios2eds/bin/gnu/h-i686-mingw32/bin/../lib/gcc/nios2-elf/4.7.3/../../../../../H-i686-mingw32/nios2-elf/lib\libc.a(lib_a-closer.o)
 .debug_frame   0x00003630       0x3c c:/altera/13.1/nios2eds/bin/gnu/h-i686-mingw32/bin/../lib/gcc/nios2-elf/4.7.3/../../../../../H-i686-mingw32/nios2-elf/lib\libc.a(lib_a-fclose.o)
 .debug_frame   0x0000366c       0x2c c:/altera/13.1/nios2eds/bin/gnu/h-i686-mingw32/bin/../lib/gcc/nios2-elf/4.7.3/../../../../../H-i686-mingw32/nios2-elf/lib\libc.a(lib_a-fstatr.o)
 .debug_frame   0x00003698       0x2c c:/altera/13.1/nios2eds/bin/gnu/h-i686-mingw32/bin/../lib/gcc/nios2-elf/4.7.3/../../../../../H-i686-mingw32/nios2-elf/lib\libc.a(lib_a-isattyr.o)
 .debug_frame   0x000036c4       0x2c c:/altera/13.1/nios2eds/bin/gnu/h-i686-mingw32/bin/../lib/gcc/nios2-elf/4.7.3/../../../../../H-i686-mingw32/nios2-elf/lib\libc.a(lib_a-lseekr.o)
 .debug_frame   0x000036f0       0x2c c:/altera/13.1/nios2eds/bin/gnu/h-i686-mingw32/bin/../lib/gcc/nios2-elf/4.7.3/../../../../../H-i686-mingw32/nios2-elf/lib\libc.a(lib_a-readr.o)
 .debug_frame   0x0000371c       0x38 c:/altera/13.1/nios2eds/bin/gnu/h-i686-mingw32/bin/../lib/gcc/nios2-elf/4.7.3\libgcc.a(_udivdi3.o)
 .debug_frame   0x00003754       0x38 c:/altera/13.1/nios2eds/bin/gnu/h-i686-mingw32/bin/../lib/gcc/nios2-elf/4.7.3\libgcc.a(_umoddi3.o)
 .debug_frame   0x0000378c       0x50 c:/altera/13.1/nios2eds/bin/gnu/h-i686-mingw32/bin/../lib/gcc/nios2-elf/4.7.3\libgcc.a(_addsub_df.o)
 .debug_frame   0x000037dc       0x38 c:/altera/13.1/nios2eds/bin/gnu/h-i686-mingw32/bin/../lib/gcc/nios2-elf/4.7.3\libgcc.a(_mul_df.o)
 .debug_frame   0x00003814       0x28 c:/altera/13.1/nios2eds/bin/gnu/h-i686-mingw32/bin/../lib/gcc/nios2-elf/4.7.3\libgcc.a(_div_df.o)
 .debug_frame   0x0000383c       0x28 c:/altera/13.1/nios2eds/bin/gnu/h-i686-mingw32/bin/../lib/gcc/nios2-elf/4.7.3\libgcc.a(_eq_df.o)
 .debug_frame   0x00003864       0x28 c:/altera/13.1/nios2eds/bin/gnu/h-i686-mingw32/bin/../lib/gcc/nios2-elf/4.7.3\libgcc.a(_ne_df.o)
 .debug_frame   0x0000388c       0x28 c:/altera/13.1/nios2eds/bin/gnu/h-i686-mingw32/bin/../lib/gcc/nios2-elf/4.7.3\libgcc.a(_gt_df.o)
 .debug_frame   0x000038b4       0x28 c:/altera/13.1/nios2eds/bin/gnu/h-i686-mingw32/bin/../lib/gcc/nios2-elf/4.7.3\libgcc.a(_ge_df.o)
 .debug_frame   0x000038dc       0x28 c:/altera/13.1/nios2eds/bin/gnu/h-i686-mingw32/bin/../lib/gcc/nios2-elf/4.7.3\libgcc.a(_lt_df.o)
 .debug_frame   0x00003904       0x28 c:/altera/13.1/nios2eds/bin/gnu/h-i686-mingw32/bin/../lib/gcc/nios2-elf/4.7.3\libgcc.a(_si_to_df.o)
 .debug_frame   0x0000392c       0x28 c:/altera/13.1/nios2eds/bin/gnu/h-i686-mingw32/bin/../lib/gcc/nios2-elf/4.7.3\libgcc.a(_df_to_si.o)
 .debug_frame   0x00003954       0x28 c:/altera/13.1/nios2eds/bin/gnu/h-i686-mingw32/bin/../lib/gcc/nios2-elf/4.7.3\libgcc.a(_usi_to_df.o)
 .debug_frame   0x0000397c       0x70 c:/altera/13.1/nios2eds/bin/gnu/h-i686-mingw32/bin/../lib/gcc/nios2-elf/4.7.3\libgcc.a(lib2-divmod.o)
 .debug_frame   0x000039ec       0x20 c:/altera/13.1/nios2eds/bin/gnu/h-i686-mingw32/bin/../lib/gcc/nios2-elf/4.7.3\libgcc.a(_muldi3.o)
 .debug_frame   0x00003a0c       0x20 c:/altera/13.1/nios2eds/bin/gnu/h-i686-mingw32/bin/../lib/gcc/nios2-elf/4.7.3\libgcc.a(_clzsi2.o)
 .debug_frame   0x00003a2c       0x34 c:/altera/13.1/nios2eds/bin/gnu/h-i686-mingw32/bin/../lib/gcc/nios2-elf/4.7.3\libgcc.a(_pack_df.o)
 .debug_frame   0x00003a60       0x20 c:/altera/13.1/nios2eds/bin/gnu/h-i686-mingw32/bin/../lib/gcc/nios2-elf/4.7.3\libgcc.a(_unpack_df.o)
 .debug_frame   0x00003a80       0x20 c:/altera/13.1/nios2eds/bin/gnu/h-i686-mingw32/bin/../lib/gcc/nios2-elf/4.7.3\libgcc.a(_fpcmp_parts_df.o)
 .debug_frame   0x00003aa0       0x20 c:/altera/13.1/nios2eds/bin/gnu/h-i686-mingw32/bin/../lib/gcc/nios2-elf/4.7.3\libgcc.a(_lshrdi3.o)
 .debug_frame   0x00003ac0       0x20 c:/altera/13.1/nios2eds/bin/gnu/h-i686-mingw32/bin/../lib/gcc/nios2-elf/4.7.3\libgcc.a(_ashldi3.o)
 .debug_frame   0x00003ae0       0x20 c:/altera/13.1/nios2eds/bin/gnu/h-i686-mingw32/bin/../lib/gcc/nios2-elf/4.7.3/../../../../../H-i686-mingw32/nios2-elf/lib\libnosys.a(nosys_sbrk.o)
 .debug_frame   0x00003b00       0x20 c:/altera/13.1/nios2eds/bin/gnu/h-i686-mingw32/bin/../lib/gcc/nios2-elf/4.7.3/../../../../../H-i686-mingw32/nios2-elf/lib\libnosys.a(nosys_close.o)
 .debug_frame   0x00003b20       0x38 c:/altera/13.1/nios2eds/bin/gnu/h-i686-mingw32/bin/../lib/gcc/nios2-elf/4.7.3/../../../../../H-i686-mingw32/nios2-elf/lib\libnosys.a(nosys_crt0.o)
 .debug_frame   0x00003b58       0x38 c:/altera/13.1/nios2eds/bin/gnu/h-i686-mingw32/bin/../lib/gcc/nios2-elf/4.7.3/../../../../../H-i686-mingw32/nios2-elf/lib\libnosys.a(nosys_exit.o)
 .debug_frame   0x00003b90       0x20 c:/altera/13.1/nios2eds/bin/gnu/h-i686-mingw32/bin/../lib/gcc/nios2-elf/4.7.3/../../../../../H-i686-mingw32/nios2-elf/lib\libnosys.a(nosys_fstat.o)
 .debug_frame   0x00003bb0       0x20 c:/altera/13.1/nios2eds/bin/gnu/h-i686-mingw32/bin/../lib/gcc/nios2-elf/4.7.3/../../../../../H-i686-mingw32/nios2-elf/lib\libnosys.a(nosys_isatty.o)
 .debug_frame   0x00003bd0       0x20 c:/altera/13.1/nios2eds/bin/gnu/h-i686-mingw32/bin/../lib/gcc/nios2-elf/4.7.3/../../../../../H-i686-mingw32/nios2-elf/lib\libnosys.a(nosys_lseek.o)
 .debug_frame   0x00003bf0       0x20 c:/altera/13.1/nios2eds/bin/gnu/h-i686-mingw32/bin/../lib/gcc/nios2-elf/4.7.3/../../../../../H-i686-mingw32/nios2-elf/lib\libnosys.a(nosys_open.o)
 .debug_frame   0x00003c10       0x20 c:/altera/13.1/nios2eds/bin/gnu/h-i686-mingw32/bin/../lib/gcc/nios2-elf/4.7.3/../../../../../H-i686-mingw32/nios2-elf/lib\libnosys.a(nosys_read.o)
 .debug_frame   0x00003c30       0x20 c:/altera/13.1/nios2eds/bin/gnu/h-i686-mingw32/bin/../lib/gcc/nios2-elf/4.7.3/../../../../../H-i686-mingw32/nios2-elf/lib\libnosys.a(nosys_write.o)
 .debug_frame   0x00003c50       0x20 c:/altera/13.1/nios2eds/bin/gnu/h-i686-mingw32/bin/../lib/gcc/nios2-elf/4.7.3/../../../../../H-i686-mingw32/nios2-elf/lib\libnosys.a(_zero_bss.o)

.debug_str      0x00000000     0x9469
 *(.debug_str)
 .debug_str     0x00000000      0x672 altera_avalon_sgdma.o
                                0x70d (size before relaxing)
 .debug_str     0x00000672      0x759 altera_avalon_tse_system_info.o
                                0x8e3 (size before relaxing)
 .debug_str     0x00000dcb     0x1260 altera_avalon_tse.o
                               0x1d37 (size before relaxing)
 .debug_str     0x0000202b       0xdc altera_vic.o
                                0x226 (size before relaxing)
 .debug_str     0x00002107       0x56 altera_vic_irq_init.o
                                0x1c3 (size before relaxing)
 .debug_str     0x0000215d       0x46 altera_vic_isr_register.o
                                0x22d (size before relaxing)
 .debug_str     0x000021a3       0x85 altera_vic_sw_intr.o
                                0x200 (size before relaxing)
 .debug_str     0x00002228       0x4d altera_vic_set_level.o
                                0x20c (size before relaxing)
 .debug_str     0x00002275       0x38 alt_usleep.o
                                0x121 (size before relaxing)
 .debug_str     0x000022ad       0x47 alt_busy_sleep.o
                                0x135 (size before relaxing)
 .debug_str     0x000022f4       0x40 alt_dcache_flush.o
                                0x125 (size before relaxing)
 .debug_str     0x00002334       0x2f alt_irq_register.o
                                0x106 (size before relaxing)
 .debug_str     0x00002363       0x31 alt_remap_uncached.o
                                0x134 (size before relaxing)
 .debug_str     0x00002394       0x46 alt_uncached_malloc.o
                                0x149 (size before relaxing)
 .debug_str     0x000023da       0x5c alt_do_ctors.o
                                 0xa6 (size before relaxing)
 .debug_str     0x00002436       0x60 alt_do_dtors.o
                                 0xa5 (size before relaxing)
 .debug_str     0x00002496      0x139 alt_dev.o
                                0x2cf (size before relaxing)
 .debug_str     0x000025cf       0x44 alt_dev_llist_insert.o
                                0x196 (size before relaxing)
 .debug_str     0x00002613       0x28 alt_errno.o
                                0x10f (size before relaxing)
 .debug_str     0x0000263b       0x2b alt_find_dev.o
                                0x1cb (size before relaxing)
 .debug_str     0x00002666       0x79 alt_io_redirect.o
                                0x2ef (size before relaxing)
 .debug_str     0x000026df       0x65 alt_main.o
                                0x1a5 (size before relaxing)
 .debug_str     0x00002744      0x36b alt_malloc_lock.o
                                0x4b8 (size before relaxing)
 .debug_str     0x00002aaf       0x2d alt_release_fd.o
                                0x1a9 (size before relaxing)
 .debug_str     0x00002adc       0x2b alt_sys_init.o
                                0x2ce (size before relaxing)
 .debug_str     0x00002b07       0x2b api_lib.o
                                0x102 (size before relaxing)
 .debug_str     0x00002b32       0x2b api_msg.o
                                0x102 (size before relaxing)
 .debug_str     0x00002b5d       0x27 err.o
                                 0xfe (size before relaxing)
 .debug_str     0x00002b84       0x2a netbuf.o
                                0x101 (size before relaxing)
 .debug_str     0x00002bae       0x29 netdb.o
                                0x100 (size before relaxing)
 .debug_str     0x00002bd7       0x2c netifapi.o
                                0x103 (size before relaxing)
 .debug_str     0x00002c03       0x2b sockets.o
                                0x102 (size before relaxing)
 .debug_str     0x00002c2e       0x29 tcpip.o
                                0x100 (size before relaxing)
 .debug_str     0x00002c57      0x1ef mem.o
                                0x302 (size before relaxing)
 .debug_str     0x00002e46       0x79 memp.o
                                0x2cd (size before relaxing)
 .debug_str     0x00002ebf      0x575 netif.o
                                0x827 (size before relaxing)
 .debug_str     0x00003434      0x270 pbuf.o
                                0x78d (size before relaxing)
 .debug_str     0x000036a4       0xfe raw.o
                                0x474 (size before relaxing)
 .debug_str     0x000037a2       0x35 stats.o
                                0x263 (size before relaxing)
 .debug_str     0x000037d7       0x28 sys.o
                                 0xff (size before relaxing)
 .debug_str     0x000037ff      0x41b tcp.o
                                0xace (size before relaxing)
 .debug_str     0x00003c1a      0x19e tcp_in.o
                                0x9a1 (size before relaxing)
 .debug_str     0x00003db8      0x140 tcp_out.o
                                0x901 (size before relaxing)
 .debug_str     0x00003ef8      0x172 udp.o
                                0x7a8 (size before relaxing)
 .debug_str     0x0000406a       0x28 dns.o
                                 0xff (size before relaxing)
 .debug_str     0x00004092       0x33 init.o
                                0x145 (size before relaxing)
 .debug_str     0x000040c5      0x344 dhcp.o
                                0x8c9 (size before relaxing)
 .debug_str     0x00004409       0x28 def.o
                                 0xff (size before relaxing)
 .debug_str     0x00004431       0x2b timers.o
                                0x113 (size before relaxing)
 .debug_str     0x0000445c       0x32 asn1_dec.o
                                0x109 (size before relaxing)
 .debug_str     0x0000448e       0x32 asn1_enc.o
                                0x109 (size before relaxing)
 .debug_str     0x000044c0       0x2e mib2.o
                                0x105 (size before relaxing)
 .debug_str     0x000044ee       0x35 mib_structs.o
                                0x10c (size before relaxing)
 .debug_str     0x00004523       0x30 msg_in.o
                                0x107 (size before relaxing)
 .debug_str     0x00004553       0x31 msg_out.o
                                0x108 (size before relaxing)
 .debug_str     0x00004584       0x30 autoip.o
                                0x107 (size before relaxing)
 .debug_str     0x000045b4       0xc7 icmp.o
                                0x51a (size before relaxing)
 .debug_str     0x0000467b       0x2e igmp.o
                                0x105 (size before relaxing)
 .debug_str     0x000046a9       0x2e inet.o
                                0x105 (size before relaxing)
 .debug_str     0x000046d7       0x89 inet_chksum.o
                                0x201 (size before relaxing)
 .debug_str     0x00004760       0x9a ip.o
                                0x6e0 (size before relaxing)
 .debug_str     0x000047fa       0x95 ip_addr.o
                                0x290 (size before relaxing)
 .debug_str     0x0000488f      0x1d3 ip_frag.o
                                0x6ad (size before relaxing)
 .debug_str     0x00004a62       0x2c slipif.o
                                0x103 (size before relaxing)
 .debug_str     0x00004a8e      0x327 etharp.o
                                0x95f (size before relaxing)
 .debug_str     0x00004db5       0x30 ethernetif.o
                                0x107 (size before relaxing)
 .debug_str     0x00004de5       0x2e auth.o
                                0x105 (size before relaxing)
 .debug_str     0x00004e13       0x2d fsm.o
                                0x104 (size before relaxing)
 .debug_str     0x00004e40       0x2e ipcp.o
                                0x105 (size before relaxing)
 .debug_str     0x00004e6e       0x2d lcp.o
                                0x104 (size before relaxing)
 .debug_str     0x00004e9b       0x2f magic.o
                                0x106 (size before relaxing)
 .debug_str     0x00004eca       0x2d ppp.o
                                0x104 (size before relaxing)
 .debug_str     0x00004ef7       0x2c vj.o
                                0x103 (size before relaxing)
 .debug_str     0x00004f23       0x2e chap.o
                                0x105 (size before relaxing)
 .debug_str     0x00004f51       0x2f chpms.o
                                0x106 (size before relaxing)
 .debug_str     0x00004f80       0x2d md5.o
                                0x104 (size before relaxing)
 .debug_str     0x00004fad       0x2d pap.o
                                0x104 (size before relaxing)
 .debug_str     0x00004fda       0x30 ppp_oe.o
                                0x107 (size before relaxing)
 .debug_str     0x0000500a       0x2f randm.o
                                0x106 (size before relaxing)
 .debug_str     0x00005039      0x122 alteraTseEthernetif.o
                                0x4be (size before relaxing)
 .debug_str     0x0000515b       0xa4 fs.o
                                0x18f (size before relaxing)
 .debug_str     0x000051ff       0xa1 httpd.o
                                0x561 (size before relaxing)
 .debug_str     0x000052a0      0x564 lwip_tse_mac.o
                               0x1a55 (size before relaxing)
 .debug_str     0x00005804       0x2c tse_my_system.o
                                0x141 (size before relaxing)
 .debug_str     0x00005830      0x383 lwip_test.o
                                0x96d (size before relaxing)
 .debug_str     0x00005bb3       0x9e jtag_uart.o
                                0x18b (size before relaxing)
 .debug_str     0x00005c51       0x7a banner.o
                                0x19b (size before relaxing)
 .debug_str     0x00005ccb       0x95 syslog.o
                                0x203 (size before relaxing)
 .debug_str     0x00005d60       0x6b serial.o
                                0x190 (size before relaxing)
 .debug_str     0x00005dcb       0x80 log_output.o
                                0x1d3 (size before relaxing)
 .debug_str     0x00005e4b       0x40 vasyslog.o
                                0x1b4 (size before relaxing)
 .debug_str     0x00005e8b       0x3b t_perror.o
                                0x1c6 (size before relaxing)
 .debug_str     0x00005ec6       0x22 strerror.o
                                0x130 (size before relaxing)
 .debug_str     0x00005ee8      0x845 Os_Lcfg.o
                                0xad3 (size before relaxing)
 .debug_str     0x0000672d       0xc9 libkernel.a(target_config.o)
                                0x240 (size before relaxing)
 .debug_str     0x000067f6      0x4a6 libkernel.a(target_hw_counter.o)
                                0x65e (size before relaxing)
 .debug_str     0x00006c9c       0xf1 libkernel.a(prc_config.o)
                                0x2e6 (size before relaxing)
 .debug_str     0x00006d8d       0x30 libkernel.a(vic.o)
                                0x1a3 (size before relaxing)
 .debug_str     0x00006dbd       0xd4 libkernel.a(avalon_timer.o)
                                0x316 (size before relaxing)
 .debug_str     0x00006e91      0x162 libkernel.a(counter_manage.o)
                                0x7a0 (size before relaxing)
 .debug_str     0x00006ff3       0xec libkernel.a(counter.o)
                                0x7af (size before relaxing)
 .debug_str     0x000070df       0x74 libkernel.a(alarm.o)
                                0x8d5 (size before relaxing)
 .debug_str     0x00007153       0xe3 libkernel.a(osctl_manage.o)
                                0x552 (size before relaxing)
 .debug_str     0x00007236      0x112 libkernel.a(osctl.o)
                                0x680 (size before relaxing)
 .debug_str     0x00007348       0xb9 libkernel.a(task_manage.o)
                                0x6ab (size before relaxing)
 .debug_str     0x00007401       0xcc libkernel.a(interrupt_manage.o)
                                0x4c0 (size before relaxing)
 .debug_str     0x000074cd       0x64 libkernel.a(interrupt.o)
                                0x455 (size before relaxing)
 .debug_str     0x00007531      0x105 libkernel.a(task.o)
                                0x5ab (size before relaxing)
 .debug_str     0x00007636      0x10e c:/altera/13.1/nios2eds/bin/gnu/h-i686-mingw32/bin/../lib/gcc/nios2-elf/4.7.3/../../../../../H-i686-mingw32/nios2-elf/lib\libc.a(lib_a-atexit.o)
                                0x20f (size before relaxing)
 .debug_str     0x00007744       0x5d c:/altera/13.1/nios2eds/bin/gnu/h-i686-mingw32/bin/../lib/gcc/nios2-elf/4.7.3/../../../../../H-i686-mingw32/nios2-elf/lib\libc.a(lib_a-exit.o)
                                0x52f (size before relaxing)
 .debug_str     0x000077a1       0xd4 c:/altera/13.1/nios2eds/bin/gnu/h-i686-mingw32/bin/../lib/gcc/nios2-elf/4.7.3/../../../../../H-i686-mingw32/nios2-elf/lib\libc.a(lib_a-impure.o)
                                0x526 (size before relaxing)
 .debug_str     0x00007875       0x3d c:/altera/13.1/nios2eds/bin/gnu/h-i686-mingw32/bin/../lib/gcc/nios2-elf/4.7.3/../../../../../H-i686-mingw32/nios2-elf/lib\libc.a(lib_a-int_errno.o)
                                0x16f (size before relaxing)
 .debug_str     0x000078b2       0x54 c:/altera/13.1/nios2eds/bin/gnu/h-i686-mingw32/bin/../lib/gcc/nios2-elf/4.7.3/../../../../../H-i686-mingw32/nios2-elf/lib\libc.a(lib_a-malloc.o)
                                0x53a (size before relaxing)
 .debug_str     0x00007906      0x20a c:/altera/13.1/nios2eds/bin/gnu/h-i686-mingw32/bin/../lib/gcc/nios2-elf/4.7.3/../../../../../H-i686-mingw32/nios2-elf/lib\libc.a(lib_a-mallocr.o)
                                0x735 (size before relaxing)
 .debug_str     0x00007b10       0xca c:/altera/13.1/nios2eds/bin/gnu/h-i686-mingw32/bin/../lib/gcc/nios2-elf/4.7.3/../../../../../H-i686-mingw32/nios2-elf/lib\libc.a(lib_a-memcmp.o)
                                0x176 (size before relaxing)
 .debug_str     0x00007bda       0x62 c:/altera/13.1/nios2eds/bin/gnu/h-i686-mingw32/bin/../lib/gcc/nios2-elf/4.7.3/../../../../../H-i686-mingw32/nios2-elf/lib\libc.a(lib_a-memcpy.o)
                                0x126 (size before relaxing)
 .debug_str     0x00007c3c       0x48 c:/altera/13.1/nios2eds/bin/gnu/h-i686-mingw32/bin/../lib/gcc/nios2-elf/4.7.3/../../../../../H-i686-mingw32/nios2-elf/lib\libc.a(lib_a-memset.o)
                                0x18a (size before relaxing)
 .debug_str     0x00007c84       0xfd c:/altera/13.1/nios2eds/bin/gnu/h-i686-mingw32/bin/../lib/gcc/nios2-elf/4.7.3/../../../../../H-i686-mingw32/nios2-elf/lib\libc.a(lib_a-printf.o)
                                0x571 (size before relaxing)
 .debug_str     0x00007d81       0x89 c:/altera/13.1/nios2eds/bin/gnu/h-i686-mingw32/bin/../lib/gcc/nios2-elf/4.7.3/../../../../../H-i686-mingw32/nios2-elf/lib\libc.a(lib_a-puts.o)
                                0x56e (size before relaxing)
 .debug_str     0x00007e0a       0x3e c:/altera/13.1/nios2eds/bin/gnu/h-i686-mingw32/bin/../lib/gcc/nios2-elf/4.7.3/../../../../../H-i686-mingw32/nios2-elf/lib\libc.a(lib_a-sbrkr.o)
                                0x51c (size before relaxing)
 .debug_str     0x00007e48       0x3b c:/altera/13.1/nios2eds/bin/gnu/h-i686-mingw32/bin/../lib/gcc/nios2-elf/4.7.3/../../../../../H-i686-mingw32/nios2-elf/lib\libc.a(lib_a-strcmp.o)
                                0x16f (size before relaxing)
 .debug_str     0x00007e83       0x3b c:/altera/13.1/nios2eds/bin/gnu/h-i686-mingw32/bin/../lib/gcc/nios2-elf/4.7.3/../../../../../H-i686-mingw32/nios2-elf/lib\libc.a(lib_a-strcpy.o)
                                0x191 (size before relaxing)
 .debug_str     0x00007ebe       0x3b c:/altera/13.1/nios2eds/bin/gnu/h-i686-mingw32/bin/../lib/gcc/nios2-elf/4.7.3/../../../../../H-i686-mingw32/nios2-elf/lib\libc.a(lib_a-strlen.o)
                                0x189 (size before relaxing)
 .debug_str     0x00007ef9       0x3c c:/altera/13.1/nios2eds/bin/gnu/h-i686-mingw32/bin/../lib/gcc/nios2-elf/4.7.3/../../../../../H-i686-mingw32/nios2-elf/lib\libc.a(lib_a-strncmp.o)
                                0x178 (size before relaxing)
 .debug_str     0x00007f35      0x26f c:/altera/13.1/nios2eds/bin/gnu/h-i686-mingw32/bin/../lib/gcc/nios2-elf/4.7.3/../../../../../H-i686-mingw32/nios2-elf/lib\libc.a(lib_a-vfprintf.o)
                                0x888 (size before relaxing)
 .debug_str     0x000081a4       0x47 c:/altera/13.1/nios2eds/bin/gnu/h-i686-mingw32/bin/../lib/gcc/nios2-elf/4.7.3/../../../../../H-i686-mingw32/nios2-elf/lib\libc.a(lib_a-wsetup.o)
                                0x535 (size before relaxing)
 .debug_str     0x000081eb       0x3d c:/altera/13.1/nios2eds/bin/gnu/h-i686-mingw32/bin/../lib/gcc/nios2-elf/4.7.3/../../../../../H-i686-mingw32/nios2-elf/lib\libc.a(lib_a-__atexit.o)
                                0x573 (size before relaxing)
 .debug_str     0x00008228       0x54 c:/altera/13.1/nios2eds/bin/gnu/h-i686-mingw32/bin/../lib/gcc/nios2-elf/4.7.3/../../../../../H-i686-mingw32/nios2-elf/lib\libc.a(lib_a-__call_atexit.o)
                                0x551 (size before relaxing)
 .debug_str     0x0000827c      0x157 c:/altera/13.1/nios2eds/bin/gnu/h-i686-mingw32/bin/../lib/gcc/nios2-elf/4.7.3/../../../../../H-i686-mingw32/nios2-elf/lib\libc.a(lib_a-dtoa.o)
                                0x678 (size before relaxing)
 .debug_str     0x000083d3       0x48 c:/altera/13.1/nios2eds/bin/gnu/h-i686-mingw32/bin/../lib/gcc/nios2-elf/4.7.3/../../../../../H-i686-mingw32/nios2-elf/lib\libc.a(lib_a-fflush.o)
                                0x553 (size before relaxing)
 .debug_str     0x0000841b       0xfa c:/altera/13.1/nios2eds/bin/gnu/h-i686-mingw32/bin/../lib/gcc/nios2-elf/4.7.3/../../../../../H-i686-mingw32/nios2-elf/lib\libc.a(lib_a-findfp.o)
                                0x61f (size before relaxing)
 .debug_str     0x00008515       0x34 c:/altera/13.1/nios2eds/bin/gnu/h-i686-mingw32/bin/../lib/gcc/nios2-elf/4.7.3/../../../../../H-i686-mingw32/nios2-elf/lib\libc.a(lib_a-freer.o)
                                0x67f (size before relaxing)
 .debug_str     0x00008549       0x64 c:/altera/13.1/nios2eds/bin/gnu/h-i686-mingw32/bin/../lib/gcc/nios2-elf/4.7.3/../../../../../H-i686-mingw32/nios2-elf/lib\libc.a(lib_a-fvwrite.o)
                                0x5b8 (size before relaxing)
 .debug_str     0x000085ad       0x5e c:/altera/13.1/nios2eds/bin/gnu/h-i686-mingw32/bin/../lib/gcc/nios2-elf/4.7.3/../../../../../H-i686-mingw32/nios2-elf/lib\libc.a(lib_a-fwalk.o)
                                0x567 (size before relaxing)
 .debug_str     0x0000860b      0x145 c:/altera/13.1/nios2eds/bin/gnu/h-i686-mingw32/bin/../lib/gcc/nios2-elf/4.7.3/../../../../../H-i686-mingw32/nios2-elf/lib\libc.a(lib_a-locale.o)
                                0x6bc (size before relaxing)
 .debug_str     0x00008750       0x59 c:/altera/13.1/nios2eds/bin/gnu/h-i686-mingw32/bin/../lib/gcc/nios2-elf/4.7.3/../../../../../H-i686-mingw32/nios2-elf/lib\libc.a(lib_a-makebuf.o)
                                0x62f (size before relaxing)
 .debug_str     0x000087a9       0x49 c:/altera/13.1/nios2eds/bin/gnu/h-i686-mingw32/bin/../lib/gcc/nios2-elf/4.7.3/../../../../../H-i686-mingw32/nios2-elf/lib\libc.a(lib_a-memchr.o)
                                0x197 (size before relaxing)
 .debug_str     0x000087f2       0x45 c:/altera/13.1/nios2eds/bin/gnu/h-i686-mingw32/bin/../lib/gcc/nios2-elf/4.7.3/../../../../../H-i686-mingw32/nios2-elf/lib\libc.a(lib_a-memmove.o)
                                0x1a9 (size before relaxing)
 .debug_str     0x00008837       0xa5 c:/altera/13.1/nios2eds/bin/gnu/h-i686-mingw32/bin/../lib/gcc/nios2-elf/4.7.3/../../../../../H-i686-mingw32/nios2-elf/lib\libc.a(lib_a-mprec.o)
                                0x632 (size before relaxing)
 .debug_str     0x000088dc       0x49 c:/altera/13.1/nios2eds/bin/gnu/h-i686-mingw32/bin/../lib/gcc/nios2-elf/4.7.3/../../../../../H-i686-mingw32/nios2-elf/lib\libc.a(lib_a-reallocr.o)
                                0x607 (size before relaxing)
 .debug_str     0x00008925       0xd6 c:/altera/13.1/nios2eds/bin/gnu/h-i686-mingw32/bin/../lib/gcc/nios2-elf/4.7.3/../../../../../H-i686-mingw32/nios2-elf/lib\libc.a(lib_a-s_isinfd.o)
                                0x1a1 (size before relaxing)
 .debug_str     0x000089fb       0x3d c:/altera/13.1/nios2eds/bin/gnu/h-i686-mingw32/bin/../lib/gcc/nios2-elf/4.7.3/../../../../../H-i686-mingw32/nios2-elf/lib\libc.a(lib_a-s_isnand.o)
                                0x1a1 (size before relaxing)
 .debug_str     0x00008a38       0x8e c:/altera/13.1/nios2eds/bin/gnu/h-i686-mingw32/bin/../lib/gcc/nios2-elf/4.7.3/../../../../../H-i686-mingw32/nios2-elf/lib\libc.a(lib_a-stdio.o)
                                0x570 (size before relaxing)
 .debug_str     0x00008ac6       0x3a c:/altera/13.1/nios2eds/bin/gnu/h-i686-mingw32/bin/../lib/gcc/nios2-elf/4.7.3/../../../../../H-i686-mingw32/nios2-elf/lib\libc.a(lib_a-writer.o)
                                0x520 (size before relaxing)
 .debug_str     0x00008b00        0xf c:/altera/13.1/nios2eds/bin/gnu/h-i686-mingw32/bin/../lib/gcc/nios2-elf/4.7.3/../../../../../H-i686-mingw32/nios2-elf/lib\libc.a(lib_a-callocr.o)
                                0x55f (size before relaxing)
 .debug_str     0x00008b0f       0x3a c:/altera/13.1/nios2eds/bin/gnu/h-i686-mingw32/bin/../lib/gcc/nios2-elf/4.7.3/../../../../../H-i686-mingw32/nios2-elf/lib\libc.a(lib_a-closer.o)
                                0x510 (size before relaxing)
 .debug_str     0x00008b49       0x4b c:/altera/13.1/nios2eds/bin/gnu/h-i686-mingw32/bin/../lib/gcc/nios2-elf/4.7.3/../../../../../H-i686-mingw32/nios2-elf/lib\libc.a(lib_a-fclose.o)
                                0x562 (size before relaxing)
 .debug_str     0x00008b94       0x40 c:/altera/13.1/nios2eds/bin/gnu/h-i686-mingw32/bin/../lib/gcc/nios2-elf/4.7.3/../../../../../H-i686-mingw32/nios2-elf/lib\libc.a(lib_a-fstatr.o)
                                0x603 (size before relaxing)
 .debug_str     0x00008bd4       0x42 c:/altera/13.1/nios2eds/bin/gnu/h-i686-mingw32/bin/../lib/gcc/nios2-elf/4.7.3/../../../../../H-i686-mingw32/nios2-elf/lib\libc.a(lib_a-isattyr.o)
                                0x513 (size before relaxing)
 .debug_str     0x00008c16       0x3a c:/altera/13.1/nios2eds/bin/gnu/h-i686-mingw32/bin/../lib/gcc/nios2-elf/4.7.3/../../../../../H-i686-mingw32/nios2-elf/lib\libc.a(lib_a-lseekr.o)
                                0x524 (size before relaxing)
 .debug_str     0x00008c50       0x39 c:/altera/13.1/nios2eds/bin/gnu/h-i686-mingw32/bin/../lib/gcc/nios2-elf/4.7.3/../../../../../H-i686-mingw32/nios2-elf/lib\libc.a(lib_a-readr.o)
                                0x51d (size before relaxing)
 .debug_str     0x00008c89      0x15d c:/altera/13.1/nios2eds/bin/gnu/h-i686-mingw32/bin/../lib/gcc/nios2-elf/4.7.3\libgcc.a(_udivdi3.o)
                                0x1f6 (size before relaxing)
 .debug_str     0x00008de6        0xa c:/altera/13.1/nios2eds/bin/gnu/h-i686-mingw32/bin/../lib/gcc/nios2-elf/4.7.3\libgcc.a(_umoddi3.o)
                                0x1f6 (size before relaxing)
 .debug_str     0x00008df0      0x16f c:/altera/13.1/nios2eds/bin/gnu/h-i686-mingw32/bin/../lib/gcc/nios2-elf/4.7.3\libgcc.a(_addsub_df.o)
                                0x2a9 (size before relaxing)
 .debug_str     0x00008f5f       0x40 c:/altera/13.1/nios2eds/bin/gnu/h-i686-mingw32/bin/../lib/gcc/nios2-elf/4.7.3\libgcc.a(_mul_df.o)
                                0x27b (size before relaxing)
 .debug_str     0x00008f9f       0x35 c:/altera/13.1/nios2eds/bin/gnu/h-i686-mingw32/bin/../lib/gcc/nios2-elf/4.7.3\libgcc.a(_div_df.o)
                                0x26b (size before relaxing)
 .debug_str     0x00008fd4       0x20 c:/altera/13.1/nios2eds/bin/gnu/h-i686-mingw32/bin/../lib/gcc/nios2-elf/4.7.3\libgcc.a(_eq_df.o)
                                0x238 (size before relaxing)
 .debug_str     0x00008ff4        0x8 c:/altera/13.1/nios2eds/bin/gnu/h-i686-mingw32/bin/../lib/gcc/nios2-elf/4.7.3\libgcc.a(_ne_df.o)
                                0x238 (size before relaxing)
 .debug_str     0x00008ffc        0x8 c:/altera/13.1/nios2eds/bin/gnu/h-i686-mingw32/bin/../lib/gcc/nios2-elf/4.7.3\libgcc.a(_gt_df.o)
                                0x238 (size before relaxing)
 .debug_str     0x00009004        0x8 c:/altera/13.1/nios2eds/bin/gnu/h-i686-mingw32/bin/../lib/gcc/nios2-elf/4.7.3\libgcc.a(_ge_df.o)
                                0x238 (size before relaxing)
 .debug_str     0x0000900c        0x8 c:/altera/13.1/nios2eds/bin/gnu/h-i686-mingw32/bin/../lib/gcc/nios2-elf/4.7.3\libgcc.a(_lt_df.o)
                                0x238 (size before relaxing)
 .debug_str     0x00009014       0x21 c:/altera/13.1/nios2eds/bin/gnu/h-i686-mingw32/bin/../lib/gcc/nios2-elf/4.7.3\libgcc.a(_si_to_df.o)
                                0x20e (size before relaxing)
 .debug_str     0x00009035        0xa c:/altera/13.1/nios2eds/bin/gnu/h-i686-mingw32/bin/../lib/gcc/nios2-elf/4.7.3\libgcc.a(_df_to_si.o)
                                0x230 (size before relaxing)
 .debug_str     0x00000000      0x1c1 c:/altera/13.1/nios2eds/bin/gnu/h-i686-mingw32/bin/../lib/gcc/nios2-elf/4.7.3\libgcc.a(_thenan_df.o)
 .debug_str     0x0000903f       0x14 c:/altera/13.1/nios2eds/bin/gnu/h-i686-mingw32/bin/../lib/gcc/nios2-elf/4.7.3\libgcc.a(_usi_to_df.o)
                                0x20a (size before relaxing)
 .debug_str     0x00009053       0x7c c:/altera/13.1/nios2eds/bin/gnu/h-i686-mingw32/bin/../lib/gcc/nios2-elf/4.7.3\libgcc.a(lib2-divmod.o)
                                0x15b (size before relaxing)
 .debug_str     0x000090cf        0x9 c:/altera/13.1/nios2eds/bin/gnu/h-i686-mingw32/bin/../lib/gcc/nios2-elf/4.7.3\libgcc.a(_muldi3.o)
                                0x1a2 (size before relaxing)
 .debug_str     0x00000000      0x160 c:/altera/13.1/nios2eds/bin/gnu/h-i686-mingw32/bin/../lib/gcc/nios2-elf/4.7.3\libgcc.a(_clz.o)
 .debug_str     0x00000000      0x17d c:/altera/13.1/nios2eds/bin/gnu/h-i686-mingw32/bin/../lib/gcc/nios2-elf/4.7.3\libgcc.a(_clzsi2.o)
 .debug_str     0x000090d8        0x7 c:/altera/13.1/nios2eds/bin/gnu/h-i686-mingw32/bin/../lib/gcc/nios2-elf/4.7.3\libgcc.a(_pack_df.o)
                                0x224 (size before relaxing)
 .debug_str     0x00000000      0x206 c:/altera/13.1/nios2eds/bin/gnu/h-i686-mingw32/bin/../lib/gcc/nios2-elf/4.7.3\libgcc.a(_unpack_df.o)
 .debug_str     0x00000000      0x1e4 c:/altera/13.1/nios2eds/bin/gnu/h-i686-mingw32/bin/../lib/gcc/nios2-elf/4.7.3\libgcc.a(_fpcmp_parts_df.o)
 .debug_str     0x000090df       0x23 c:/altera/13.1/nios2eds/bin/gnu/h-i686-mingw32/bin/../lib/gcc/nios2-elf/4.7.3\libgcc.a(_lshrdi3.o)
                                0x194 (size before relaxing)
 .debug_str     0x00009102        0xa c:/altera/13.1/nios2eds/bin/gnu/h-i686-mingw32/bin/../lib/gcc/nios2-elf/4.7.3\libgcc.a(_ashldi3.o)
                                0x194 (size before relaxing)
 .debug_str     0x0000910c       0xdf c:/altera/13.1/nios2eds/bin/gnu/h-i686-mingw32/bin/../lib/gcc/nios2-elf/4.7.3/../../../../../H-i686-mingw32/nios2-elf/lib\libnosys.a(nosys_sbrk.o)
                                0x195 (size before relaxing)
 .debug_str     0x000091eb       0x40 c:/altera/13.1/nios2eds/bin/gnu/h-i686-mingw32/bin/../lib/gcc/nios2-elf/4.7.3/../../../../../H-i686-mingw32/nios2-elf/lib\libnosys.a(nosys_close.o)
                                0x17b (size before relaxing)
 .debug_str     0x0000922b       0x64 c:/altera/13.1/nios2eds/bin/gnu/h-i686-mingw32/bin/../lib/gcc/nios2-elf/4.7.3/../../../../../H-i686-mingw32/nios2-elf/lib\libnosys.a(nosys_crt0.o)
                                0x115 (size before relaxing)
 .debug_str     0x0000928f       0x4e c:/altera/13.1/nios2eds/bin/gnu/h-i686-mingw32/bin/../lib/gcc/nios2-elf/4.7.3/../../../../../H-i686-mingw32/nios2-elf/lib\libnosys.a(nosys_exit.o)
                                 0xf1 (size before relaxing)
 .debug_str     0x000092dd       0x39 c:/altera/13.1/nios2eds/bin/gnu/h-i686-mingw32/bin/../lib/gcc/nios2-elf/4.7.3/../../../../../H-i686-mingw32/nios2-elf/lib\libnosys.a(nosys_fstat.o)
                                0x268 (size before relaxing)
 .debug_str     0x00009316       0x3a c:/altera/13.1/nios2eds/bin/gnu/h-i686-mingw32/bin/../lib/gcc/nios2-elf/4.7.3/../../../../../H-i686-mingw32/nios2-elf/lib\libnosys.a(nosys_isatty.o)
                                0x17b (size before relaxing)
 .debug_str     0x00009350       0x39 c:/altera/13.1/nios2eds/bin/gnu/h-i686-mingw32/bin/../lib/gcc/nios2-elf/4.7.3/../../../../../H-i686-mingw32/nios2-elf/lib\libnosys.a(nosys_lseek.o)
                                0x179 (size before relaxing)
 .debug_str     0x00009389       0x38 c:/altera/13.1/nios2eds/bin/gnu/h-i686-mingw32/bin/../lib/gcc/nios2-elf/4.7.3/../../../../../H-i686-mingw32/nios2-elf/lib\libnosys.a(nosys_open.o)
                                0x182 (size before relaxing)
 .debug_str     0x000093c1       0x38 c:/altera/13.1/nios2eds/bin/gnu/h-i686-mingw32/bin/../lib/gcc/nios2-elf/4.7.3/../../../../../H-i686-mingw32/nios2-elf/lib\libnosys.a(nosys_read.o)
                                0x177 (size before relaxing)
 .debug_str     0x000093f9       0x39 c:/altera/13.1/nios2eds/bin/gnu/h-i686-mingw32/bin/../lib/gcc/nios2-elf/4.7.3/../../../../../H-i686-mingw32/nios2-elf/lib\libnosys.a(nosys_write.o)
                                0x179 (size before relaxing)
 .debug_str     0x00009432       0x37 c:/altera/13.1/nios2eds/bin/gnu/h-i686-mingw32/bin/../lib/gcc/nios2-elf/4.7.3/../../../../../H-i686-mingw32/nios2-elf/lib\libnosys.a(_zero_bss.o)
                                0x189 (size before relaxing)

.debug_loc      0x00000000    0x2848e
 *(.debug_loc)
 .debug_loc     0x00000000      0x959 altera_avalon_sgdma.o
 .debug_loc     0x00000959     0x4375 altera_avalon_tse.o
 .debug_loc     0x00004cce      0x1d4 altera_vic.o
 .debug_loc     0x00004ea2       0x36 altera_vic_irq_init.o
 .debug_loc     0x00004ed8      0x112 altera_vic_isr_register.o
 .debug_loc     0x00004fea       0xd0 altera_vic_sw_intr.o
 .debug_loc     0x000050ba      0x127 altera_vic_set_level.o
 .debug_loc     0x000051e1       0x21 alt_usleep.o
 .debug_loc     0x00005202       0x4a alt_busy_sleep.o
 .debug_loc     0x0000524c       0x6d alt_remap_uncached.o
 .debug_loc     0x000052b9       0x80 alt_uncached_malloc.o
 .debug_loc     0x00005339       0x33 alt_do_ctors.o
 .debug_loc     0x0000536c       0x33 alt_do_dtors.o
 .debug_loc     0x0000539f       0xd0 alt_dev_llist_insert.o
 .debug_loc     0x0000546f       0xf1 alt_find_dev.o
 .debug_loc     0x00005560      0x195 alt_io_redirect.o
 .debug_loc     0x000056f5       0x3e alt_main.o
 .debug_loc     0x00005733       0x21 alt_release_fd.o
 .debug_loc     0x00005754       0x20 alt_sys_init.o
 .debug_loc     0x00005774      0x70c mem.o
 .debug_loc     0x00005e80      0x19a memp.o
 .debug_loc     0x0000601a      0x5cb netif.o
 .debug_loc     0x000065e5     0x1529 pbuf.o
 .debug_loc     0x00007b0e      0x47e raw.o
 .debug_loc     0x00007f8c     0x17db tcp.o
 .debug_loc     0x00009767      0x909 tcp_in.o
 .debug_loc     0x0000a070     0x19e9 tcp_out.o
 .debug_loc     0x0000ba59      0xa20 udp.o
 .debug_loc     0x0000c479       0x20 init.o
 .debug_loc     0x0000c499     0x20b3 dhcp.o
 .debug_loc     0x0000e54c      0x3b4 icmp.o
 .debug_loc     0x0000e900      0x917 inet_chksum.o
 .debug_loc     0x0000f217      0x681 ip.o
 .debug_loc     0x0000f898      0x4e3 ip_addr.o
 .debug_loc     0x0000fd7b     0x12c4 ip_frag.o
 .debug_loc     0x0001103f     0x18a2 etharp.o
 .debug_loc     0x000128e1      0x358 alteraTseEthernetif.o
 .debug_loc     0x00012c39       0xcd fs.o
 .debug_loc     0x00012d06      0x777 httpd.o
 .debug_loc     0x0001347d      0x6a7 lwip_tse_mac.o
 .debug_loc     0x00013b24      0x1b3 lwip_test.o
 .debug_loc     0x00013cd7       0x45 jtag_uart.o
 .debug_loc     0x00013d1c       0x20 banner.o
 .debug_loc     0x00013d3c       0xd7 syslog.o
 .debug_loc     0x00013e13       0xc6 serial.o
 .debug_loc     0x00013ed9      0x4cb log_output.o
 .debug_loc     0x000143a4      0x142 vasyslog.o
 .debug_loc     0x000144e6      0x167 t_perror.o
 .debug_loc     0x0001464d       0x21 strerror.o
 .debug_loc     0x0001466e       0x20 Os_Lcfg.o
 .debug_loc     0x0001468e       0xea libkernel.a(target_config.o)
 .debug_loc     0x00014778      0x577 libkernel.a(target_hw_counter.o)
 .debug_loc     0x00014cef      0x15f libkernel.a(prc_config.o)
 .debug_loc     0x00014e4e      0x1c7 libkernel.a(avalon_timer.o)
 .debug_loc     0x00015015      0x99f libkernel.a(counter_manage.o)
 .debug_loc     0x000159b4      0xbc7 libkernel.a(counter.o)
 .debug_loc     0x0001657b      0xc34 libkernel.a(alarm.o)
 .debug_loc     0x000171af      0x1e2 libkernel.a(osctl_manage.o)
 .debug_loc     0x00017391      0x2b9 libkernel.a(osctl.o)
 .debug_loc     0x0001764a      0x71d libkernel.a(task_manage.o)
 .debug_loc     0x00017d67      0x2d4 libkernel.a(interrupt_manage.o)
 .debug_loc     0x0001803b      0x26f libkernel.a(interrupt.o)
 .debug_loc     0x000182aa      0x3ec libkernel.a(task.o)
 .debug_loc     0x00018696       0x2c c:/altera/13.1/nios2eds/bin/gnu/h-i686-mingw32/bin/../lib/gcc/nios2-elf/4.7.3/../../../../../H-i686-mingw32/nios2-elf/lib\libc.a(lib_a-atexit.o)
 .debug_loc     0x000186c2       0x3e c:/altera/13.1/nios2eds/bin/gnu/h-i686-mingw32/bin/../lib/gcc/nios2-elf/4.7.3/../../../../../H-i686-mingw32/nios2-elf/lib\libc.a(lib_a-exit.o)
 .debug_loc     0x00018700       0x58 c:/altera/13.1/nios2eds/bin/gnu/h-i686-mingw32/bin/../lib/gcc/nios2-elf/4.7.3/../../../../../H-i686-mingw32/nios2-elf/lib\libc.a(lib_a-malloc.o)
 .debug_loc     0x00018758      0xb50 c:/altera/13.1/nios2eds/bin/gnu/h-i686-mingw32/bin/../lib/gcc/nios2-elf/4.7.3/../../../../../H-i686-mingw32/nios2-elf/lib\libc.a(lib_a-mallocr.o)
 .debug_loc     0x000192a8      0x103 c:/altera/13.1/nios2eds/bin/gnu/h-i686-mingw32/bin/../lib/gcc/nios2-elf/4.7.3/../../../../../H-i686-mingw32/nios2-elf/lib\libc.a(lib_a-memcmp.o)
 .debug_loc     0x000193ab      0x1f2 c:/altera/13.1/nios2eds/bin/gnu/h-i686-mingw32/bin/../lib/gcc/nios2-elf/4.7.3/../../../../../H-i686-mingw32/nios2-elf/lib\libc.a(lib_a-memcpy.o)
 .debug_loc     0x0001959d      0x1b7 c:/altera/13.1/nios2eds/bin/gnu/h-i686-mingw32/bin/../lib/gcc/nios2-elf/4.7.3/../../../../../H-i686-mingw32/nios2-elf/lib\libc.a(lib_a-memset.o)
 .debug_loc     0x00019754      0x132 c:/altera/13.1/nios2eds/bin/gnu/h-i686-mingw32/bin/../lib/gcc/nios2-elf/4.7.3/../../../../../H-i686-mingw32/nios2-elf/lib\libc.a(lib_a-printf.o)
 .debug_loc     0x00019886       0xd9 c:/altera/13.1/nios2eds/bin/gnu/h-i686-mingw32/bin/../lib/gcc/nios2-elf/4.7.3/../../../../../H-i686-mingw32/nios2-elf/lib\libc.a(lib_a-puts.o)
 .debug_loc     0x0001995f       0x86 c:/altera/13.1/nios2eds/bin/gnu/h-i686-mingw32/bin/../lib/gcc/nios2-elf/4.7.3/../../../../../H-i686-mingw32/nios2-elf/lib\libc.a(lib_a-sbrkr.o)
 .debug_loc     0x000199e5       0xb0 c:/altera/13.1/nios2eds/bin/gnu/h-i686-mingw32/bin/../lib/gcc/nios2-elf/4.7.3/../../../../../H-i686-mingw32/nios2-elf/lib\libc.a(lib_a-strcmp.o)
 .debug_loc     0x00019a95      0x191 c:/altera/13.1/nios2eds/bin/gnu/h-i686-mingw32/bin/../lib/gcc/nios2-elf/4.7.3/../../../../../H-i686-mingw32/nios2-elf/lib\libc.a(lib_a-strcpy.o)
 .debug_loc     0x00019c26       0x52 c:/altera/13.1/nios2eds/bin/gnu/h-i686-mingw32/bin/../lib/gcc/nios2-elf/4.7.3/../../../../../H-i686-mingw32/nios2-elf/lib\libc.a(lib_a-strlen.o)
 .debug_loc     0x00019c78      0x122 c:/altera/13.1/nios2eds/bin/gnu/h-i686-mingw32/bin/../lib/gcc/nios2-elf/4.7.3/../../../../../H-i686-mingw32/nios2-elf/lib\libc.a(lib_a-strncmp.o)
 .debug_loc     0x00019d9a     0x2b6b c:/altera/13.1/nios2eds/bin/gnu/h-i686-mingw32/bin/../lib/gcc/nios2-elf/4.7.3/../../../../../H-i686-mingw32/nios2-elf/lib\libc.a(lib_a-vfprintf.o)
 .debug_loc     0x0001c905       0xba c:/altera/13.1/nios2eds/bin/gnu/h-i686-mingw32/bin/../lib/gcc/nios2-elf/4.7.3/../../../../../H-i686-mingw32/nios2-elf/lib\libc.a(lib_a-wsetup.o)
 .debug_loc     0x0001c9bf      0x194 c:/altera/13.1/nios2eds/bin/gnu/h-i686-mingw32/bin/../lib/gcc/nios2-elf/4.7.3/../../../../../H-i686-mingw32/nios2-elf/lib\libc.a(lib_a-__atexit.o)
 .debug_loc     0x0001cb53      0x1e1 c:/altera/13.1/nios2eds/bin/gnu/h-i686-mingw32/bin/../lib/gcc/nios2-elf/4.7.3/../../../../../H-i686-mingw32/nios2-elf/lib\libc.a(lib_a-__call_atexit.o)
 .debug_loc     0x0001cd34     0x2286 c:/altera/13.1/nios2eds/bin/gnu/h-i686-mingw32/bin/../lib/gcc/nios2-elf/4.7.3/../../../../../H-i686-mingw32/nios2-elf/lib\libc.a(lib_a-dtoa.o)
 .debug_loc     0x0001efba      0x259 c:/altera/13.1/nios2eds/bin/gnu/h-i686-mingw32/bin/../lib/gcc/nios2-elf/4.7.3/../../../../../H-i686-mingw32/nios2-elf/lib\libc.a(lib_a-fflush.o)
 .debug_loc     0x0001f213      0x29c c:/altera/13.1/nios2eds/bin/gnu/h-i686-mingw32/bin/../lib/gcc/nios2-elf/4.7.3/../../../../../H-i686-mingw32/nios2-elf/lib\libc.a(lib_a-findfp.o)
 .debug_loc     0x0001f4af      0x668 c:/altera/13.1/nios2eds/bin/gnu/h-i686-mingw32/bin/../lib/gcc/nios2-elf/4.7.3/../../../../../H-i686-mingw32/nios2-elf/lib\libc.a(lib_a-freer.o)
 .debug_loc     0x0001fb17      0x50c c:/altera/13.1/nios2eds/bin/gnu/h-i686-mingw32/bin/../lib/gcc/nios2-elf/4.7.3/../../../../../H-i686-mingw32/nios2-elf/lib\libc.a(lib_a-fvwrite.o)
 .debug_loc     0x00020023      0x2ae c:/altera/13.1/nios2eds/bin/gnu/h-i686-mingw32/bin/../lib/gcc/nios2-elf/4.7.3/../../../../../H-i686-mingw32/nios2-elf/lib\libc.a(lib_a-fwalk.o)
 .debug_loc     0x000202d1      0x13e c:/altera/13.1/nios2eds/bin/gnu/h-i686-mingw32/bin/../lib/gcc/nios2-elf/4.7.3/../../../../../H-i686-mingw32/nios2-elf/lib\libc.a(lib_a-locale.o)
 .debug_loc     0x0002040f      0x16a c:/altera/13.1/nios2eds/bin/gnu/h-i686-mingw32/bin/../lib/gcc/nios2-elf/4.7.3/../../../../../H-i686-mingw32/nios2-elf/lib\libc.a(lib_a-makebuf.o)
 .debug_loc     0x00020579      0x239 c:/altera/13.1/nios2eds/bin/gnu/h-i686-mingw32/bin/../lib/gcc/nios2-elf/4.7.3/../../../../../H-i686-mingw32/nios2-elf/lib\libc.a(lib_a-memchr.o)
 .debug_loc     0x000207b2      0x240 c:/altera/13.1/nios2eds/bin/gnu/h-i686-mingw32/bin/../lib/gcc/nios2-elf/4.7.3/../../../../../H-i686-mingw32/nios2-elf/lib\libc.a(lib_a-memmove.o)
 .debug_loc     0x000209f2     0x1b23 c:/altera/13.1/nios2eds/bin/gnu/h-i686-mingw32/bin/../lib/gcc/nios2-elf/4.7.3/../../../../../H-i686-mingw32/nios2-elf/lib\libc.a(lib_a-mprec.o)
 .debug_loc     0x00022515     0x1136 c:/altera/13.1/nios2eds/bin/gnu/h-i686-mingw32/bin/../lib/gcc/nios2-elf/4.7.3/../../../../../H-i686-mingw32/nios2-elf/lib\libc.a(lib_a-reallocr.o)
 .debug_loc     0x0002364b       0x88 c:/altera/13.1/nios2eds/bin/gnu/h-i686-mingw32/bin/../lib/gcc/nios2-elf/4.7.3/../../../../../H-i686-mingw32/nios2-elf/lib\libc.a(lib_a-s_isinfd.o)
 .debug_loc     0x000236d3       0xa5 c:/altera/13.1/nios2eds/bin/gnu/h-i686-mingw32/bin/../lib/gcc/nios2-elf/4.7.3/../../../../../H-i686-mingw32/nios2-elf/lib\libc.a(lib_a-s_isnand.o)
 .debug_loc     0x00023778      0x379 c:/altera/13.1/nios2eds/bin/gnu/h-i686-mingw32/bin/../lib/gcc/nios2-elf/4.7.3/../../../../../H-i686-mingw32/nios2-elf/lib\libc.a(lib_a-stdio.o)
 .debug_loc     0x00023af1       0xde c:/altera/13.1/nios2eds/bin/gnu/h-i686-mingw32/bin/../lib/gcc/nios2-elf/4.7.3/../../../../../H-i686-mingw32/nios2-elf/lib\libc.a(lib_a-writer.o)
 .debug_loc     0x00023bcf      0x283 c:/altera/13.1/nios2eds/bin/gnu/h-i686-mingw32/bin/../lib/gcc/nios2-elf/4.7.3/../../../../../H-i686-mingw32/nios2-elf/lib\libc.a(lib_a-callocr.o)
 .debug_loc     0x00023e52       0x86 c:/altera/13.1/nios2eds/bin/gnu/h-i686-mingw32/bin/../lib/gcc/nios2-elf/4.7.3/../../../../../H-i686-mingw32/nios2-elf/lib\libc.a(lib_a-closer.o)
 .debug_loc     0x00023ed8      0x136 c:/altera/13.1/nios2eds/bin/gnu/h-i686-mingw32/bin/../lib/gcc/nios2-elf/4.7.3/../../../../../H-i686-mingw32/nios2-elf/lib\libc.a(lib_a-fclose.o)
 .debug_loc     0x0002400e       0xb2 c:/altera/13.1/nios2eds/bin/gnu/h-i686-mingw32/bin/../lib/gcc/nios2-elf/4.7.3/../../../../../H-i686-mingw32/nios2-elf/lib\libc.a(lib_a-fstatr.o)
 .debug_loc     0x000240c0       0x86 c:/altera/13.1/nios2eds/bin/gnu/h-i686-mingw32/bin/../lib/gcc/nios2-elf/4.7.3/../../../../../H-i686-mingw32/nios2-elf/lib\libc.a(lib_a-isattyr.o)
 .debug_loc     0x00024146       0xde c:/altera/13.1/nios2eds/bin/gnu/h-i686-mingw32/bin/../lib/gcc/nios2-elf/4.7.3/../../../../../H-i686-mingw32/nios2-elf/lib\libc.a(lib_a-lseekr.o)
 .debug_loc     0x00024224       0xde c:/altera/13.1/nios2eds/bin/gnu/h-i686-mingw32/bin/../lib/gcc/nios2-elf/4.7.3/../../../../../H-i686-mingw32/nios2-elf/lib\libc.a(lib_a-readr.o)
 .debug_loc     0x00024302     0x10da c:/altera/13.1/nios2eds/bin/gnu/h-i686-mingw32/bin/../lib/gcc/nios2-elf/4.7.3\libgcc.a(_udivdi3.o)
 .debug_loc     0x000253dc     0x104d c:/altera/13.1/nios2eds/bin/gnu/h-i686-mingw32/bin/../lib/gcc/nios2-elf/4.7.3\libgcc.a(_umoddi3.o)
 .debug_loc     0x00026429      0x7a1 c:/altera/13.1/nios2eds/bin/gnu/h-i686-mingw32/bin/../lib/gcc/nios2-elf/4.7.3\libgcc.a(_addsub_df.o)
 .debug_loc     0x00026bca      0x3ba c:/altera/13.1/nios2eds/bin/gnu/h-i686-mingw32/bin/../lib/gcc/nios2-elf/4.7.3\libgcc.a(_mul_df.o)
 .debug_loc     0x00026f84      0x25e c:/altera/13.1/nios2eds/bin/gnu/h-i686-mingw32/bin/../lib/gcc/nios2-elf/4.7.3\libgcc.a(_div_df.o)
 .debug_loc     0x000271e2       0x70 c:/altera/13.1/nios2eds/bin/gnu/h-i686-mingw32/bin/../lib/gcc/nios2-elf/4.7.3\libgcc.a(_eq_df.o)
 .debug_loc     0x00027252       0x70 c:/altera/13.1/nios2eds/bin/gnu/h-i686-mingw32/bin/../lib/gcc/nios2-elf/4.7.3\libgcc.a(_ne_df.o)
 .debug_loc     0x000272c2       0x70 c:/altera/13.1/nios2eds/bin/gnu/h-i686-mingw32/bin/../lib/gcc/nios2-elf/4.7.3\libgcc.a(_gt_df.o)
 .debug_loc     0x00027332       0x70 c:/altera/13.1/nios2eds/bin/gnu/h-i686-mingw32/bin/../lib/gcc/nios2-elf/4.7.3\libgcc.a(_ge_df.o)
 .debug_loc     0x000273a2       0x70 c:/altera/13.1/nios2eds/bin/gnu/h-i686-mingw32/bin/../lib/gcc/nios2-elf/4.7.3\libgcc.a(_lt_df.o)
 .debug_loc     0x00027412       0xd3 c:/altera/13.1/nios2eds/bin/gnu/h-i686-mingw32/bin/../lib/gcc/nios2-elf/4.7.3\libgcc.a(_si_to_df.o)
 .debug_loc     0x000274e5       0xce c:/altera/13.1/nios2eds/bin/gnu/h-i686-mingw32/bin/../lib/gcc/nios2-elf/4.7.3\libgcc.a(_df_to_si.o)
 .debug_loc     0x000275b3      0x168 c:/altera/13.1/nios2eds/bin/gnu/h-i686-mingw32/bin/../lib/gcc/nios2-elf/4.7.3\libgcc.a(_usi_to_df.o)
 .debug_loc     0x0002771b      0x338 c:/altera/13.1/nios2eds/bin/gnu/h-i686-mingw32/bin/../lib/gcc/nios2-elf/4.7.3\libgcc.a(lib2-divmod.o)
 .debug_loc     0x00027a53      0x15d c:/altera/13.1/nios2eds/bin/gnu/h-i686-mingw32/bin/../lib/gcc/nios2-elf/4.7.3\libgcc.a(_muldi3.o)
 .debug_loc     0x00027bb0      0x19a c:/altera/13.1/nios2eds/bin/gnu/h-i686-mingw32/bin/../lib/gcc/nios2-elf/4.7.3\libgcc.a(_clzsi2.o)
 .debug_loc     0x00027d4a      0x2ae c:/altera/13.1/nios2eds/bin/gnu/h-i686-mingw32/bin/../lib/gcc/nios2-elf/4.7.3\libgcc.a(_pack_df.o)
 .debug_loc     0x00027ff8      0x179 c:/altera/13.1/nios2eds/bin/gnu/h-i686-mingw32/bin/../lib/gcc/nios2-elf/4.7.3\libgcc.a(_unpack_df.o)
 .debug_loc     0x00028171       0x7c c:/altera/13.1/nios2eds/bin/gnu/h-i686-mingw32/bin/../lib/gcc/nios2-elf/4.7.3\libgcc.a(_fpcmp_parts_df.o)
 .debug_loc     0x000281ed       0xc4 c:/altera/13.1/nios2eds/bin/gnu/h-i686-mingw32/bin/../lib/gcc/nios2-elf/4.7.3\libgcc.a(_lshrdi3.o)
 .debug_loc     0x000282b1       0xc4 c:/altera/13.1/nios2eds/bin/gnu/h-i686-mingw32/bin/../lib/gcc/nios2-elf/4.7.3\libgcc.a(_ashldi3.o)
 .debug_loc     0x00028375       0x58 c:/altera/13.1/nios2eds/bin/gnu/h-i686-mingw32/bin/../lib/gcc/nios2-elf/4.7.3/../../../../../H-i686-mingw32/nios2-elf/lib\libnosys.a(nosys_sbrk.o)
 .debug_loc     0x000283cd       0x20 c:/altera/13.1/nios2eds/bin/gnu/h-i686-mingw32/bin/../lib/gcc/nios2-elf/4.7.3/../../../../../H-i686-mingw32/nios2-elf/lib\libnosys.a(nosys_crt0.o)
 .debug_loc     0x000283ed       0x3e c:/altera/13.1/nios2eds/bin/gnu/h-i686-mingw32/bin/../lib/gcc/nios2-elf/4.7.3/../../../../../H-i686-mingw32/nios2-elf/lib\libnosys.a(nosys_exit.o)
 .debug_loc     0x0002842b       0x63 c:/altera/13.1/nios2eds/bin/gnu/h-i686-mingw32/bin/../lib/gcc/nios2-elf/4.7.3/../../../../../H-i686-mingw32/nios2-elf/lib\libnosys.a(_zero_bss.o)

.debug_macinfo
 *(.debug_macinfo)

.debug_weaknames
 *(.debug_weaknames)

.debug_funcnames
 *(.debug_funcnames)

.debug_typenames
 *(.debug_typenames)

.debug_varnames
 *(.debug_varnames)
OUTPUT(atk2-sc1.exe elf32-littlenios2)

.debug_alt_sim_info
                0x00000000       0x40
 .debug_alt_sim_info
                0x00000000       0x10 start.o
 .debug_alt_sim_info
                0x00000010       0x30 alt_busy_sleep.o

.debug_ranges   0x00000000     0x2b88
 .debug_ranges  0x00000000       0x20 start.o
 .debug_ranges  0x00000020       0x18 altera_avalon_sgdma.o
 .debug_ranges  0x00000038      0x840 altera_avalon_tse.o
 .debug_ranges  0x00000878       0x30 altera_vic_isr_register.o
 .debug_ranges  0x000008a8       0x30 alt_dev_llist_insert.o
 .debug_ranges  0x000008d8       0x60 mem.o
 .debug_ranges  0x00000938       0x48 netif.o
 .debug_ranges  0x00000980       0xd0 pbuf.o
 .debug_ranges  0x00000a50      0x130 tcp.o
 .debug_ranges  0x00000b80      0x138 tcp_in.o
 .debug_ranges  0x00000cb8      0x1a0 tcp_out.o
 .debug_ranges  0x00000e58       0x40 udp.o
 .debug_ranges  0x00000e98      0x278 dhcp.o
 .debug_ranges  0x00001110       0x18 icmp.o
 .debug_ranges  0x00001128       0x38 ip.o
 .debug_ranges  0x00001160      0x130 ip_frag.o
 .debug_ranges  0x00001290      0x1e8 etharp.o
 .debug_ranges  0x00001478       0x90 alteraTseEthernetif.o
 .debug_ranges  0x00001508       0x18 lwip_test.o
 .debug_ranges  0x00001520       0x30 banner.o
 .debug_ranges  0x00001550       0x18 syslog.o
 .debug_ranges  0x00001568       0x30 t_perror.o
 .debug_ranges  0x00001598       0x20 libkernel.a(prc_support.o)
 .debug_ranges  0x000015b8       0x60 libkernel.a(target_config.o)
 .debug_ranges  0x00001618       0x90 libkernel.a(target_hw_counter.o)
 .debug_ranges  0x000016a8       0x18 libkernel.a(prc_config.o)
 .debug_ranges  0x000016c0      0x108 libkernel.a(avalon_timer.o)
 .debug_ranges  0x000017c8      0x1e0 libkernel.a(counter_manage.o)
 .debug_ranges  0x000019a8      0x2c0 libkernel.a(counter.o)
 .debug_ranges  0x00001c68      0x168 libkernel.a(alarm.o)
 .debug_ranges  0x00001dd0       0x48 libkernel.a(osctl_manage.o)
 .debug_ranges  0x00001e18       0x30 libkernel.a(osctl.o)
 .debug_ranges  0x00001e48      0x110 libkernel.a(task_manage.o)
 .debug_ranges  0x00001f58       0x78 libkernel.a(interrupt_manage.o)
 .debug_ranges  0x00001fd0       0xc0 libkernel.a(interrupt.o)
 .debug_ranges  0x00002090      0x1a0 libkernel.a(task.o)
 .debug_ranges  0x00002230       0x70 c:/altera/13.1/nios2eds/bin/gnu/h-i686-mingw32/bin/../lib/gcc/nios2-elf/4.7.3/../../../../../H-i686-mingw32/nios2-elf/lib\libc.a(lib_a-mallocr.o)
 .debug_ranges  0x000022a0      0x150 c:/altera/13.1/nios2eds/bin/gnu/h-i686-mingw32/bin/../lib/gcc/nios2-elf/4.7.3/../../../../../H-i686-mingw32/nios2-elf/lib\libc.a(lib_a-vfprintf.o)
 .debug_ranges  0x000023f0       0x18 c:/altera/13.1/nios2eds/bin/gnu/h-i686-mingw32/bin/../lib/gcc/nios2-elf/4.7.3/../../../../../H-i686-mingw32/nios2-elf/lib\libc.a(lib_a-__call_atexit.o)
 .debug_ranges  0x00002408       0x20 c:/altera/13.1/nios2eds/bin/gnu/h-i686-mingw32/bin/../lib/gcc/nios2-elf/4.7.3/../../../../../H-i686-mingw32/nios2-elf/lib\libc.a(lib_a-fflush.o)
 .debug_ranges  0x00002428       0x18 c:/altera/13.1/nios2eds/bin/gnu/h-i686-mingw32/bin/../lib/gcc/nios2-elf/4.7.3/../../../../../H-i686-mingw32/nios2-elf/lib\libc.a(lib_a-fvwrite.o)
 .debug_ranges  0x00002440       0x80 c:/altera/13.1/nios2eds/bin/gnu/h-i686-mingw32/bin/../lib/gcc/nios2-elf/4.7.3/../../../../../H-i686-mingw32/nios2-elf/lib\libc.a(lib_a-fwalk.o)
 .debug_ranges  0x000024c0       0x40 c:/altera/13.1/nios2eds/bin/gnu/h-i686-mingw32/bin/../lib/gcc/nios2-elf/4.7.3/../../../../../H-i686-mingw32/nios2-elf/lib\libc.a(lib_a-mprec.o)
 .debug_ranges  0x00002500      0x158 c:/altera/13.1/nios2eds/bin/gnu/h-i686-mingw32/bin/../lib/gcc/nios2-elf/4.7.3/../../../../../H-i686-mingw32/nios2-elf/lib\libc.a(lib_a-reallocr.o)
 .debug_ranges  0x00002658       0x48 c:/altera/13.1/nios2eds/bin/gnu/h-i686-mingw32/bin/../lib/gcc/nios2-elf/4.7.3/../../../../../H-i686-mingw32/nios2-elf/lib\libc.a(lib_a-callocr.o)
 .debug_ranges  0x000026a0      0x1a0 c:/altera/13.1/nios2eds/bin/gnu/h-i686-mingw32/bin/../lib/gcc/nios2-elf/4.7.3\libgcc.a(_udivdi3.o)
 .debug_ranges  0x00002840      0x160 c:/altera/13.1/nios2eds/bin/gnu/h-i686-mingw32/bin/../lib/gcc/nios2-elf/4.7.3\libgcc.a(_umoddi3.o)
 .debug_ranges  0x000029a0       0x38 c:/altera/13.1/nios2eds/bin/gnu/h-i686-mingw32/bin/../lib/gcc/nios2-elf/4.7.3\libgcc.a(_addsub_df.o)
 .debug_ranges  0x000029d8       0x78 c:/altera/13.1/nios2eds/bin/gnu/h-i686-mingw32/bin/../lib/gcc/nios2-elf/4.7.3\libgcc.a(_mul_df.o)
 .debug_ranges  0x00002a50       0x50 c:/altera/13.1/nios2eds/bin/gnu/h-i686-mingw32/bin/../lib/gcc/nios2-elf/4.7.3\libgcc.a(_div_df.o)
 .debug_ranges  0x00002aa0       0x30 c:/altera/13.1/nios2eds/bin/gnu/h-i686-mingw32/bin/../lib/gcc/nios2-elf/4.7.3\libgcc.a(_si_to_df.o)
 .debug_ranges  0x00002ad0       0x48 c:/altera/13.1/nios2eds/bin/gnu/h-i686-mingw32/bin/../lib/gcc/nios2-elf/4.7.3\libgcc.a(_usi_to_df.o)
 .debug_ranges  0x00002b18       0x30 c:/altera/13.1/nios2eds/bin/gnu/h-i686-mingw32/bin/../lib/gcc/nios2-elf/4.7.3\libgcc.a(_muldi3.o)
 .debug_ranges  0x00002b48       0x28 c:/altera/13.1/nios2eds/bin/gnu/h-i686-mingw32/bin/../lib/gcc/nios2-elf/4.7.3\libgcc.a(_clzsi2.o)
 .debug_ranges  0x00002b70       0x18 c:/altera/13.1/nios2eds/bin/gnu/h-i686-mingw32/bin/../lib/gcc/nios2-elf/4.7.3\libgcc.a(_pack_df.o)
