
atk2-sc1.exe:     file format elf32-littlenios2


Disassembly of section .entry:

05000000 <__reset>:
 5000000:	00840014 	movui	r2,4096
 5000004:	1001483a 	initi	r2
 5000008:	10bff804 	addi	r2,r2,-32
 500000c:	00bffd16 	blt	zero,r2,5000004 <__reset+0x4>
 5000010:	00c00034 	movhi	r3,0
 5000014:	18c1b804 	addi	r3,r3,1760
 5000018:	1800683a 	jmp	r3
 500001c:	00000000 	call	0 <__alt_mem_ext_flash>

Disassembly of section .exceptions:

00000020 <exception_entry>:
  20:	ee3fff17 	ldw	et,-4(ea)
  24:	c6000efc 	xorhi	et,et,59
  28:	c61a0e9c 	xori	et,et,26682
  2c:	c0011d26 	beq	et,zero,4a4 <trap_handler>

00000030 <exception>:
  30:	deffee04 	addi	sp,sp,-72
  34:	d8400015 	stw	at,0(sp)
  38:	d8800115 	stw	r2,4(sp)
  3c:	d8c00215 	stw	r3,8(sp)
  40:	d9000315 	stw	r4,12(sp)
  44:	d9400415 	stw	r5,16(sp)
  48:	d9800515 	stw	r6,20(sp)
  4c:	d9c00615 	stw	r7,24(sp)
  50:	da000715 	stw	r8,28(sp)
  54:	da400815 	stw	r9,32(sp)
  58:	da800915 	stw	r10,36(sp)
  5c:	dac00a15 	stw	r11,40(sp)
  60:	db000b15 	stw	r12,44(sp)
  64:	db400c15 	stw	r13,48(sp)
  68:	db800d15 	stw	r14,52(sp)
  6c:	dbc00e15 	stw	r15,56(sp)
  70:	dfc00f15 	stw	ra,60(sp)
  74:	df401015 	stw	ea,64(sp)
  78:	0031307a 	rdctl	et,estatus
  7c:	de001115 	stw	et,68(sp)
  80:	0009303a 	rdctl	r4,status
  84:	21c0fc0c 	andi	r7,r4,1008
  88:	d0a01817 	ldw	r2,-32672(gp)
  8c:	11c00836 	bltu	r2,r7,b0 <exception_1>
  90:	d0e05c03 	ldbu	r3,-32400(gp)
  94:	18400044 	addi	at,r3,1
  98:	d0605c05 	stb	at,-32400(gp)
  9c:	00c0041e 	bne	zero,r3,b0 <exception_1>
  a0:	00ff03c4 	movi	r3,-1009
  a4:	20c6703a 	and	r3,r4,r3
  a8:	1886b03a 	or	r3,r3,r2
  ac:	1801703a 	wrctl	status,r3

000000b0 <exception_1>:
  b0:	000b31fa 	rdctl	r5,exception
  b4:	0011333a 	rdctl	r8,badaddr
  b8:	0007307a 	rdctl	r3,estatus
  bc:	18c0004c 	andi	r3,r3,1
  c0:	18000326 	beq	r3,zero,d0 <exception_2>
  c4:	0003303a 	rdctl	at,status
  c8:	08400054 	ori	at,at,1
  cc:	0801703a 	wrctl	status,at

000000d0 <exception_2>:
  d0:	d0e06507 	ldb	r3,-32364(gp)
  d4:	00c03e26 	beq	zero,r3,1d0 <infinity_loop>
  d8:	d0e06117 	ldw	r3,-32380(gp)
  dc:	19000044 	addi	r4,r3,1
  e0:	d1206115 	stw	r4,-32380(gp)
  e4:	d809883a 	mov	r4,sp
  e8:	00c00536 	bltu	zero,r3,100 <exception_3>
  ec:	11c00436 	bltu	r2,r7,100 <exception_3>
  f0:	d0a01917 	ldw	r2,-32668(gp)
  f4:	10bfff04 	addi	r2,r2,-4
  f8:	16c00015 	stw	sp,0(r2)
  fc:	1037883a 	mov	sp,r2

00000100 <exception_3>:
 100:	defffc04 	addi	sp,sp,-16
 104:	d1a06017 	ldw	r6,-32384(gp)
 108:	d9800315 	stw	r6,12(sp)
 10c:	29401fcc 	andi	r5,r5,127
 110:	280ad0ba 	srli	r5,r5,2
 114:	d1606015 	stw	r5,-32384(gp)
 118:	d1a05f17 	ldw	r6,-32388(gp)
 11c:	d9800215 	stw	r6,8(sp)
 120:	21801017 	ldw	r6,64(r4)
 124:	31bfff04 	addi	r6,r6,-4
 128:	d1a05f15 	stw	r6,-32388(gp)
 12c:	d1a05e17 	ldw	r6,-32392(gp)
 130:	d9800115 	stw	r6,4(sp)
 134:	d2205e15 	stw	r8,-32392(gp)
 138:	d1a05d17 	ldw	r6,-32396(gp)
 13c:	d9800015 	stw	r6,0(sp)
 140:	d1205d15 	stw	r4,-32396(gp)
 144:	01000584 	movi	r4,22
 148:	0018da00 	call	18da0 <call_protectionhk_main>
 14c:	d9800317 	ldw	r6,12(sp)
 150:	d1a06015 	stw	r6,-32384(gp)
 154:	d9800217 	ldw	r6,8(sp)
 158:	d1a05f15 	stw	r6,-32388(gp)
 15c:	d9800117 	ldw	r6,4(sp)
 160:	d1a05e15 	stw	r6,-32392(gp)
 164:	d9800017 	ldw	r6,0(sp)
 168:	d1a05d15 	stw	r6,-32396(gp)
 16c:	dec00404 	addi	sp,sp,16

00000170 <ret_exc>:
 170:	d0e06117 	ldw	r3,-32380(gp)
 174:	18ffffc4 	addi	r3,r3,-1
 178:	d0e06115 	stw	r3,-32380(gp)
 17c:	0009303a 	rdctl	r4,status
 180:	2140fc0c 	andi	r5,r4,1008
 184:	d1a01817 	ldw	r6,-32672(gp)
 188:	31400636 	bltu	r6,r5,1a4 <ret_exc_2>
 18c:	00c0021e 	bne	zero,r3,198 <ret_exc_1>
 190:	d8800017 	ldw	r2,0(sp)
 194:	1037883a 	mov	sp,r2

00000198 <ret_exc_1>:
 198:	d0e05c03 	ldbu	r3,-32400(gp)
 19c:	18ffffc4 	addi	r3,r3,-1
 1a0:	d0e05c05 	stb	r3,-32400(gp)

000001a4 <ret_exc_2>:
 1a4:	2100004c 	andi	r4,r4,1
 1a8:	d8401117 	ldw	at,68(sp)
 1ac:	00bfff84 	movi	r2,-2
 1b0:	0882703a 	and	at,at,r2
 1b4:	0902b03a 	or	at,at,r4
 1b8:	d8401115 	stw	at,68(sp)
 1bc:	0003303a 	rdctl	at,status
 1c0:	00bfff84 	movi	r2,-2
 1c4:	0882703a 	and	at,at,r2
 1c8:	0801703a 	wrctl	status,at
 1cc:	0000a006 	br	450 <ret_int_1>

000001d0 <infinity_loop>:
 1d0:	003fff06 	br	1d0 <infinity_loop>
	...

000001e0 <interrupt>:
 1e0:	ef7fff04 	addi	ea,ea,-4
 1e4:	deffee04 	addi	sp,sp,-72
 1e8:	d8400015 	stw	at,0(sp)
 1ec:	d8800115 	stw	r2,4(sp)
 1f0:	d8c00215 	stw	r3,8(sp)
 1f4:	d9000315 	stw	r4,12(sp)
 1f8:	d9400415 	stw	r5,16(sp)
 1fc:	d9800515 	stw	r6,20(sp)
 200:	d9c00615 	stw	r7,24(sp)
 204:	da000715 	stw	r8,28(sp)
 208:	da400815 	stw	r9,32(sp)
 20c:	da800915 	stw	r10,36(sp)
 210:	dac00a15 	stw	r11,40(sp)
 214:	db000b15 	stw	r12,44(sp)
 218:	db400c15 	stw	r13,48(sp)
 21c:	db800d15 	stw	r14,52(sp)
 220:	dbc00e15 	stw	r15,56(sp)
 224:	dfc00f15 	stw	ra,60(sp)
 228:	df401015 	stw	ea,64(sp)
 22c:	c009883a 	mov	r4,et
 230:	0031307a 	rdctl	et,estatus
 234:	de001115 	stw	et,68(sp)
 238:	d0e06117 	ldw	r3,-32380(gp)
 23c:	19400044 	addi	r5,r3,1
 240:	d1606115 	stw	r5,-32380(gp)
 244:	00c00436 	bltu	zero,r3,258 <interrupt_1>
 248:	d0a01917 	ldw	r2,-32668(gp)
 24c:	10bfff04 	addi	r2,r2,-4
 250:	16c00015 	stw	sp,0(r2)
 254:	1037883a 	mov	sp,r2

00000258 <interrupt_1>:
 258:	0003303a 	rdctl	at,status
 25c:	08400054 	ori	at,at,1
 260:	0801703a 	wrctl	status,at
 264:	00c00a36 	bltu	zero,r3,290 <int_nested>
 268:	d9c00017 	ldw	r7,0(sp)
 26c:	d1a07417 	ldw	r6,-32304(gp)
 270:	31800217 	ldw	r6,8(r6)
 274:	31800217 	ldw	r6,8(r6)
 278:	31c1042e 	bgeu	r6,r7,68c <stack_monitoring_error_isr>
 27c:	32000017 	ldw	r8,0(r6)
 280:	019390f4 	movhi	r6,20035
 284:	319154c4 	addi	r6,r6,17747
 288:	41800f26 	beq	r8,r6,2c8 <stack_monitoring_exit>
 28c:	0000ff06 	br	68c <stack_monitoring_error_isr>

00000290 <int_nested>:
 290:	008000f4 	movhi	r2,3
 294:	10a2f804 	addi	r2,r2,-29728
 298:	200690ba 	slli	r3,r4,2
 29c:	10c5883a 	add	r2,r2,r3
 2a0:	11400017 	ldw	r5,0(r2)
 2a4:	29c00017 	ldw	r7,0(r5)
 2a8:	39c00317 	ldw	r7,12(r7)
 2ac:	d1a01a17 	ldw	r6,-32664(gp)
 2b0:	398f883a 	add	r7,r7,r6
 2b4:	3ec0f52e 	bgeu	r7,sp,68c <stack_monitoring_error_isr>
 2b8:	31c00017 	ldw	r7,0(r6)
 2bc:	019390f4 	movhi	r6,20035
 2c0:	319154c4 	addi	r6,r6,17747
 2c4:	3980f11e 	bne	r7,r6,68c <stack_monitoring_error_isr>

000002c8 <stack_monitoring_exit>:
 2c8:	d0e0670f 	ldh	r3,-32356(gp)
 2cc:	deffff04 	addi	sp,sp,-4
 2d0:	d8c00015 	stw	r3,0(sp)
 2d4:	19800094 	ori	r6,r3,2
 2d8:	d1a0670d 	sth	r6,-32356(gp)
 2dc:	d0e07017 	ldw	r3,-32320(gp)
 2e0:	deffff04 	addi	sp,sp,-4
 2e4:	d8c00015 	stw	r3,0(sp)
 2e8:	008000f4 	movhi	r2,3
 2ec:	10a2f804 	addi	r2,r2,-29728
 2f0:	200690ba 	slli	r3,r4,2
 2f4:	10c5883a 	add	r2,r2,r3
 2f8:	11400017 	ldw	r5,0(r2)
 2fc:	d1607015 	stw	r5,-32320(gp)
 300:	008000f4 	movhi	r2,3
 304:	10a31804 	addi	r2,r2,-29600
 308:	10c5883a 	add	r2,r2,r3
 30c:	11800017 	ldw	r6,0(r2)
 310:	303ee83a 	callr	r6
 314:	d1a01a17 	ldw	r6,-32664(gp)
 318:	31c00017 	ldw	r7,0(r6)
 31c:	019390f4 	movhi	r6,20035
 320:	319154c4 	addi	r6,r6,17747
 324:	3980d91e 	bne	r7,r6,68c <stack_monitoring_error_isr>
 328:	001a6c00 	call	1a6c0 <exit_isr2>
 32c:	d8c00017 	ldw	r3,0(sp)
 330:	dec00104 	addi	sp,sp,4
 334:	d0e07015 	stw	r3,-32320(gp)
 338:	d8c00017 	ldw	r3,0(sp)
 33c:	dec00104 	addi	sp,sp,4
 340:	d0e0670d 	sth	r3,-32356(gp)

00000344 <ret_int>:
 344:	0003303a 	rdctl	at,status
 348:	00bfff84 	movi	r2,-2
 34c:	0882703a 	and	at,at,r2
 350:	0801703a 	wrctl	status,at
 354:	d0e06117 	ldw	r3,-32380(gp)
 358:	18ffffc4 	addi	r3,r3,-1
 35c:	d0e06115 	stw	r3,-32380(gp)
 360:	00c00126 	beq	zero,r3,368 <ret_int_task>
 364:	00003a06 	br	450 <ret_int_1>

00000368 <ret_int_task>:
 368:	d8800017 	ldw	r2,0(sp)
 36c:	1037883a 	mov	sp,r2
 370:	d1207417 	ldw	r4,-32304(gp)
 374:	d1607317 	ldw	r5,-32308(gp)
 378:	21403526 	beq	r4,r5,450 <ret_int_1>
 37c:	0003303a 	rdctl	at,status
 380:	00bf03c4 	movi	r2,-1009
 384:	0882703a 	and	at,at,r2
 388:	d0a01817 	ldw	r2,-32672(gp)
 38c:	0882b03a 	or	at,at,r2
 390:	0801703a 	wrctl	status,at
 394:	00400044 	movi	at,1
 398:	d0605c05 	stb	at,-32400(gp)
 39c:	d0205b15 	stw	zero,-32404(gp)
 3a0:	0003303a 	rdctl	at,status
 3a4:	08400054 	ori	at,at,1
 3a8:	0801703a 	wrctl	status,at
 3ac:	defff704 	addi	sp,sp,-36
 3b0:	dc000015 	stw	r16,0(sp)
 3b4:	dc400115 	stw	r17,4(sp)
 3b8:	dc800215 	stw	r18,8(sp)
 3bc:	dcc00315 	stw	r19,12(sp)
 3c0:	dd000415 	stw	r20,16(sp)
 3c4:	dd400515 	stw	r21,20(sp)
 3c8:	dd800615 	stw	r22,24(sp)
 3cc:	ddc00715 	stw	r23,28(sp)
 3d0:	df000815 	stw	fp,32(sp)
 3d4:	26c00815 	stw	sp,32(r4)
 3d8:	00800034 	movhi	r2,0
 3dc:	1080fa04 	addi	r2,r2,1000
 3e0:	20800915 	stw	r2,36(r4)
 3e4:	00007606 	br	5c0 <dispatcher>

000003e8 <ret_int_r>:
 3e8:	dc000017 	ldw	r16,0(sp)
 3ec:	dc400117 	ldw	r17,4(sp)
 3f0:	dc800217 	ldw	r18,8(sp)
 3f4:	dcc00317 	ldw	r19,12(sp)
 3f8:	dd000417 	ldw	r20,16(sp)
 3fc:	dd400517 	ldw	r21,20(sp)
 400:	dd800617 	ldw	r22,24(sp)
 404:	ddc00717 	ldw	r23,28(sp)
 408:	df000817 	ldw	fp,32(sp)
 40c:	dec00904 	addi	sp,sp,36
 410:	0005303a 	rdctl	r2,status
 414:	1080004c 	andi	r2,r2,1
 418:	d8401117 	ldw	at,68(sp)
 41c:	00ffff84 	movi	r3,-2
 420:	08c2703a 	and	at,at,r3
 424:	0882b03a 	or	at,at,r2
 428:	d8401115 	stw	at,68(sp)
 42c:	0003303a 	rdctl	at,status
 430:	00bfff84 	movi	r2,-2
 434:	0882703a 	and	at,at,r2
 438:	0801703a 	wrctl	status,at
 43c:	d0205c05 	stb	zero,-32400(gp)
 440:	0003303a 	rdctl	at,status
 444:	00bf03c4 	movi	r2,-1009
 448:	0882703a 	and	at,at,r2
 44c:	0801703a 	wrctl	status,at

00000450 <ret_int_1>:
 450:	d8400017 	ldw	at,0(sp)
 454:	d8800117 	ldw	r2,4(sp)
 458:	d8c00217 	ldw	r3,8(sp)
 45c:	d9000317 	ldw	r4,12(sp)
 460:	d9400417 	ldw	r5,16(sp)
 464:	d9800517 	ldw	r6,20(sp)
 468:	d9c00617 	ldw	r7,24(sp)
 46c:	da000717 	ldw	r8,28(sp)
 470:	da400817 	ldw	r9,32(sp)
 474:	da800917 	ldw	r10,36(sp)
 478:	dac00a17 	ldw	r11,40(sp)
 47c:	db000b17 	ldw	r12,44(sp)
 480:	db400c17 	ldw	r13,48(sp)
 484:	db800d17 	ldw	r14,52(sp)
 488:	dbc00e17 	ldw	r15,56(sp)
 48c:	dfc00f17 	ldw	ra,60(sp)
 490:	df401017 	ldw	ea,64(sp)
 494:	de001117 	ldw	et,68(sp)
 498:	c001707a 	wrctl	estatus,et
 49c:	dec01204 	addi	sp,sp,72
 4a0:	ef80083a 	eret

000004a4 <trap_handler>:
 4a4:	ef80083a 	eret
	...

000004c0 <dispatch>:
 4c0:	defff604 	addi	sp,sp,-40
 4c4:	dc000015 	stw	r16,0(sp)
 4c8:	dc400115 	stw	r17,4(sp)
 4cc:	dc800215 	stw	r18,8(sp)
 4d0:	dcc00315 	stw	r19,12(sp)
 4d4:	dd000415 	stw	r20,16(sp)
 4d8:	dd400515 	stw	r21,20(sp)
 4dc:	dd800615 	stw	r22,24(sp)
 4e0:	ddc00715 	stw	r23,28(sp)
 4e4:	df000815 	stw	fp,32(sp)
 4e8:	dfc00915 	stw	ra,36(sp)
 4ec:	d1207417 	ldw	r4,-32304(gp)
 4f0:	26c00815 	stw	sp,32(r4)
 4f4:	01400034 	movhi	r5,0
 4f8:	29414904 	addi	r5,r5,1316
 4fc:	21400915 	stw	r5,36(r4)
 500:	d1a07417 	ldw	r6,-32304(gp)
 504:	31800217 	ldw	r6,8(r6)
 508:	31800217 	ldw	r6,8(r6)
 50c:	36c0682e 	bgeu	r6,sp,6b0 <stack_monitoring_error>
 510:	31c00017 	ldw	r7,0(r6)
 514:	019390f4 	movhi	r6,20035
 518:	319154c4 	addi	r6,r6,17747
 51c:	3980641e 	bne	r7,r6,6b0 <stack_monitoring_error>
 520:	00002706 	br	5c0 <dispatcher>

00000524 <dispatch_r>:
 524:	dc000017 	ldw	r16,0(sp)
 528:	dc400117 	ldw	r17,4(sp)
 52c:	dc800217 	ldw	r18,8(sp)
 530:	dcc00317 	ldw	r19,12(sp)
 534:	dd000417 	ldw	r20,16(sp)
 538:	dd400517 	ldw	r21,20(sp)
 53c:	dd800617 	ldw	r22,24(sp)
 540:	ddc00717 	ldw	r23,28(sp)
 544:	df000817 	ldw	fp,32(sp)
 548:	dfc00917 	ldw	ra,36(sp)
 54c:	dec00a04 	addi	sp,sp,40
 550:	f800283a 	ret
	...

00000560 <start_dispatch>:
 560:	0003303a 	rdctl	at,status
 564:	00bf03c4 	movi	r2,-1009
 568:	0882703a 	and	at,at,r2
 56c:	d0a01817 	ldw	r2,-32672(gp)
 570:	0882b03a 	or	at,at,r2
 574:	0801703a 	wrctl	status,at
 578:	00400044 	movi	at,1
 57c:	d0605c05 	stb	at,-32400(gp)
 580:	d0205b15 	stw	zero,-32404(gp)
 584:	0003303a 	rdctl	at,status
 588:	08400054 	ori	at,at,1
 58c:	0801703a 	wrctl	status,at
 590:	00001106 	br	5d8 <dispatcher_0>
	...

000005a0 <exit_and_dispatch>:
 5a0:	d1a07417 	ldw	r6,-32304(gp)
 5a4:	31800217 	ldw	r6,8(r6)
 5a8:	31800217 	ldw	r6,8(r6)
 5ac:	36c0402e 	bgeu	r6,sp,6b0 <stack_monitoring_error>
 5b0:	31c00017 	ldw	r7,0(r6)
 5b4:	019390f4 	movhi	r6,20035
 5b8:	319154c4 	addi	r6,r6,17747
 5bc:	39803c1e 	bne	r7,r6,6b0 <stack_monitoring_error>

000005c0 <dispatcher>:
 5c0:	00800074 	movhi	r2,1
 5c4:	10937004 	addi	r2,r2,19904
 5c8:	10000326 	beq	r2,zero,5d8 <dispatcher_0>

000005cc <posttaskhook_call>:
 5cc:	010000b4 	movhi	r4,2
 5d0:	2122f804 	addi	r4,r4,-29728
 5d4:	0015aa00 	call	15aa0 <stack_change_and_call_func_1>

000005d8 <dispatcher_0>:
 5d8:	d160670f 	ldh	r5,-32356(gp)
 5dc:	2904000c 	andi	r4,r5,4096
 5e0:	20000526 	beq	r4,zero,5f8 <dispatcher_1>
 5e4:	297bffcc 	andi	r5,r5,61439
 5e8:	d160670d 	sth	r5,-32356(gp)
 5ec:	0005303a 	rdctl	r2,status
 5f0:	10800054 	ori	r2,r2,1
 5f4:	1001703a 	wrctl	status,r2

000005f8 <dispatcher_1>:
 5f8:	d1607317 	ldw	r5,-32308(gp)
 5fc:	d1607415 	stw	r5,-32304(gp)
 600:	28000b26 	beq	r5,zero,630 <dispatcher_3>
 604:	2ec00817 	ldw	sp,32(r5)
 608:	d0206115 	stw	zero,-32380(gp)
 60c:	00800074 	movhi	r2,1
 610:	10936804 	addi	r2,r2,19872
 614:	10000326 	beq	r2,zero,624 <dispatcher_2>

00000618 <pretaskhook_call>:
 618:	010000b4 	movhi	r4,2
 61c:	21231004 	addi	r4,r4,-29632
 620:	0015aa00 	call	15aa0 <stack_change_and_call_func_1>

00000624 <dispatcher_2>:
 624:	d1607417 	ldw	r5,-32304(gp)
 628:	29400917 	ldw	r5,36(r5)
 62c:	2800683a 	jmp	r5

00000630 <dispatcher_3>:
 630:	d0a01917 	ldw	r2,-32668(gp)
 634:	1037883a 	mov	sp,r2
 638:	01400044 	movi	r5,1
 63c:	d1606115 	stw	r5,-32380(gp)
 640:	d0205c05 	stb	zero,-32400(gp)
 644:	0003303a 	rdctl	at,status
 648:	00bf03c4 	movi	r2,-1009
 64c:	0882703a 	and	at,at,r2
 650:	0801703a 	wrctl	status,at
 654:	0001883a 	nop
 658:	0001883a 	nop
 65c:	0001883a 	nop
 660:	0001883a 	nop
 664:	0003303a 	rdctl	at,status
 668:	00bf03c4 	movi	r2,-1009
 66c:	0882703a 	and	at,at,r2
 670:	d0a01817 	ldw	r2,-32672(gp)
 674:	0882b03a 	or	at,at,r2
 678:	0801703a 	wrctl	status,at
 67c:	00400044 	movi	at,1
 680:	d0605c05 	stb	at,-32400(gp)
 684:	d0205b15 	stw	zero,-32404(gp)
 688:	003fdb06 	br	5f8 <dispatcher_1>

0000068c <stack_monitoring_error_isr>:
 68c:	0003303a 	rdctl	at,status
 690:	00bf03c4 	movi	r2,-1009
 694:	0882703a 	and	at,at,r2
 698:	d0a01817 	ldw	r2,-32672(gp)
 69c:	0882b03a 	or	at,at,r2
 6a0:	0801703a 	wrctl	status,at
 6a4:	00400044 	movi	at,1
 6a8:	d0605c05 	stb	at,-32400(gp)
 6ac:	d0205b15 	stw	zero,-32404(gp)

000006b0 <stack_monitoring_error>:
 6b0:	d0a06117 	ldw	r2,-32380(gp)
 6b4:	10800044 	addi	r2,r2,1
 6b8:	d0a06115 	stw	r2,-32380(gp)
 6bc:	d6e01917 	ldw	sp,-32668(gp)
 6c0:	01000344 	movi	r4,13
 6c4:	0018da00 	call	18da0 <call_protectionhk_main>
	...

Disassembly of section .text:

000006e0 <start>:
     6e0:	0001703a 	wrctl	status,zero
     6e4:	068000f4 	movhi	gp,3
     6e8:	d6877304 	addi	gp,gp,7628
     6ec:	d6e01917 	ldw	sp,-32668(gp)

000006f0 <start_0>:
     6f0:	00800034 	movhi	r2,0
     6f4:	10800004 	addi	r2,r2,0
     6f8:	00800126 	beq	zero,r2,700 <start_1>
     6fc:	103ee83a 	callr	r2

00000700 <start_1>:
     700:	00c000f4 	movhi	r3,3
     704:	18e79f04 	addi	r3,r3,-24964
     708:	00800134 	movhi	r2,4
     70c:	10a2fa04 	addi	r2,r2,-29720
     710:	18800326 	beq	r3,r2,720 <start_3>

00000714 <start_2>:
     714:	18000015 	stw	zero,0(r3)
     718:	18c00104 	addi	r3,r3,4
     71c:	18bffd36 	bltu	r3,r2,714 <start_2>

00000720 <start_3>:
     720:	00800034 	movhi	r2,0
     724:	10800004 	addi	r2,r2,0
     728:	00800126 	beq	zero,r2,730 <start_4>
     72c:	103ee83a 	callr	r2

00000730 <start_4>:
     730:	0015b600 	call	15b60 <target_hardware_initialize>
     734:	0014fa00 	call	14fa0 <main>

00000738 <crt0_end>:
     738:	003fff06 	br	738 <crt0_end>
     73c:	00000000 	call	0 <__alt_mem_ext_flash>

00000740 <_start>:
     740:	06c20034 	movhi	sp,2048
     744:	deffc004 	addi	sp,sp,-256
     748:	def6303a 	nor	sp,sp,sp
     74c:	dec001d4 	ori	sp,sp,7
     750:	def6303a 	nor	sp,sp,sp
     754:	068000f4 	movhi	gp,3
     758:	d6877304 	addi	gp,gp,7628
     75c:	06000134 	movhi	et,4
     760:	c622fa04 	addi	et,et,-29720
     764:	008000b4 	movhi	r2,2
     768:	1091ab04 	addi	r2,r2,18092
     76c:	1000683a 	jmp	r2
     770:	0001883a 	nop
     774:	0001883a 	nop
     778:	0001883a 	nop
     77c:	0001883a 	nop

00000780 <alt_avalon_sgdma_irq>:
     780:	20800317 	ldw	r2,12(r4)
     784:	defffd04 	addi	sp,sp,-12
     788:	dfc00215 	stw	ra,8(sp)
     78c:	10800404 	addi	r2,r2,16
     790:	dc400115 	stw	r17,4(sp)
     794:	dc000015 	stw	r16,0(sp)
     798:	10c00037 	ldwio	r3,0(r2)
     79c:	18e00034 	orhi	r3,r3,32768
     7a0:	10c00035 	stwio	r3,0(r2)
     7a4:	20800317 	ldw	r2,12(r4)
     7a8:	10800437 	ldwio	r2,16(r2)
     7ac:	20800917 	ldw	r2,36(r4)
     7b0:	10000b26 	beq	r2,zero,7e0 <alt_avalon_sgdma_irq+0x60>
     7b4:	0021303a 	rdctl	r16,status
     7b8:	047fff84 	movi	r17,-2
     7bc:	8446703a 	and	r3,r16,r17
     7c0:	1801703a 	wrctl	status,r3
     7c4:	21000a17 	ldw	r4,40(r4)
     7c8:	103ee83a 	callr	r2
     7cc:	0005303a 	rdctl	r2,status
     7d0:	1462703a 	and	r17,r2,r17
     7d4:	8400004c 	andi	r16,r16,1
     7d8:	8460b03a 	or	r16,r16,r17
     7dc:	8001703a 	wrctl	status,r16
     7e0:	dfc00217 	ldw	ra,8(sp)
     7e4:	dc400117 	ldw	r17,4(sp)
     7e8:	dc000017 	ldw	r16,0(sp)
     7ec:	dec00304 	addi	sp,sp,12
     7f0:	f800283a 	ret
     7f4:	0001883a 	nop
     7f8:	0001883a 	nop
     7fc:	0001883a 	nop

00000800 <alt_avalon_sgdma_do_async_transfer>:
     800:	20800317 	ldw	r2,12(r4)
     804:	10c00037 	ldwio	r3,0(r2)
     808:	18c0040c 	andi	r3,r3,16
     80c:	18001e1e 	bne	r3,zero,888 <alt_avalon_sgdma_do_async_transfer+0x88>
     810:	10800404 	addi	r2,r2,16
     814:	11800037 	ldwio	r6,0(r2)
     818:	00fff7c4 	movi	r3,-33
     81c:	30c6703a 	and	r3,r6,r3
     820:	10c00035 	stwio	r3,0(r2)
     824:	20800317 	ldw	r2,12(r4)
     828:	00c03fc4 	movi	r3,255
     82c:	10c00035 	stwio	r3,0(r2)
     830:	20800317 	ldw	r2,12(r4)
     834:	11400835 	stwio	r5,32(r2)
     838:	20800917 	ldw	r2,36(r4)
     83c:	10000926 	beq	r2,zero,864 <alt_avalon_sgdma_do_async_transfer+0x64>
     840:	20800317 	ldw	r2,12(r4)
     844:	10800404 	addi	r2,r2,16
     848:	11400037 	ldwio	r5,0(r2)
     84c:	20c00b17 	ldw	r3,44(r4)
     850:	18c01814 	ori	r3,r3,96
     854:	1946b03a 	or	r3,r3,r5
     858:	10c00035 	stwio	r3,0(r2)
     85c:	0005883a 	mov	r2,zero
     860:	f800283a 	ret
     864:	20800317 	ldw	r2,12(r4)
     868:	10800404 	addi	r2,r2,16
     86c:	10c00037 	ldwio	r3,0(r2)
     870:	013ffbc4 	movi	r4,-17
     874:	18c01814 	ori	r3,r3,96
     878:	1906703a 	and	r3,r3,r4
     87c:	10c00035 	stwio	r3,0(r2)
     880:	0005883a 	mov	r2,zero
     884:	f800283a 	ret
     888:	00bffc04 	movi	r2,-16
     88c:	f800283a 	ret
     890:	0001883a 	nop
     894:	0001883a 	nop
     898:	0001883a 	nop
     89c:	0001883a 	nop

000008a0 <alt_avalon_sgdma_do_sync_transfer>:
     8a0:	20800317 	ldw	r2,12(r4)
     8a4:	10c00037 	ldwio	r3,0(r2)
     8a8:	18c0040c 	andi	r3,r3,16
     8ac:	183ffd1e 	bne	r3,zero,8a4 <alt_avalon_sgdma_do_sync_transfer+0x4>
     8b0:	10800404 	addi	r2,r2,16
     8b4:	11800037 	ldwio	r6,0(r2)
     8b8:	00fff7c4 	movi	r3,-33
     8bc:	30c6703a 	and	r3,r6,r3
     8c0:	10c00035 	stwio	r3,0(r2)
     8c4:	20800317 	ldw	r2,12(r4)
     8c8:	00c03fc4 	movi	r3,255
     8cc:	10c00035 	stwio	r3,0(r2)
     8d0:	20800317 	ldw	r2,12(r4)
     8d4:	11400835 	stwio	r5,32(r2)
     8d8:	20800317 	ldw	r2,12(r4)
     8dc:	10800404 	addi	r2,r2,16
     8e0:	10c00037 	ldwio	r3,0(r2)
     8e4:	18c01814 	ori	r3,r3,96
     8e8:	10c00035 	stwio	r3,0(r2)
     8ec:	20800317 	ldw	r2,12(r4)
     8f0:	10c00037 	ldwio	r3,0(r2)
     8f4:	18c0040c 	andi	r3,r3,16
     8f8:	183ffd1e 	bne	r3,zero,8f0 <alt_avalon_sgdma_do_sync_transfer+0x50>
     8fc:	10800404 	addi	r2,r2,16
     900:	11400037 	ldwio	r5,0(r2)
     904:	00fff7c4 	movi	r3,-33
     908:	28c6703a 	and	r3,r5,r3
     90c:	10c00035 	stwio	r3,0(r2)
     910:	20c00317 	ldw	r3,12(r4)
     914:	18800037 	ldwio	r2,0(r3)
     918:	01003fc4 	movi	r4,255
     91c:	19000035 	stwio	r4,0(r3)
     920:	f800283a 	ret
     924:	0001883a 	nop
     928:	0001883a 	nop
     92c:	0001883a 	nop
     930:	0001883a 	nop
     934:	0001883a 	nop
     938:	0001883a 	nop
     93c:	0001883a 	nop

00000940 <alt_avalon_sgdma_register_callback>:
     940:	21400915 	stw	r5,36(r4)
     944:	21c00a15 	stw	r7,40(r4)
     948:	21800b15 	stw	r6,44(r4)
     94c:	f800283a 	ret
     950:	0001883a 	nop
     954:	0001883a 	nop
     958:	0001883a 	nop
     95c:	0001883a 	nop

00000960 <alt_avalon_sgdma_start>:
     960:	20800317 	ldw	r2,12(r4)
     964:	10800404 	addi	r2,r2,16
     968:	10c00037 	ldwio	r3,0(r2)
     96c:	18c00814 	ori	r3,r3,32
     970:	10c00035 	stwio	r3,0(r2)
     974:	f800283a 	ret
     978:	0001883a 	nop
     97c:	0001883a 	nop

00000980 <alt_avalon_sgdma_stop>:
     980:	20800317 	ldw	r2,12(r4)
     984:	10800404 	addi	r2,r2,16
     988:	11000037 	ldwio	r4,0(r2)
     98c:	00fff7c4 	movi	r3,-33
     990:	20c6703a 	and	r3,r4,r3
     994:	10c00035 	stwio	r3,0(r2)
     998:	f800283a 	ret
     99c:	0001883a 	nop

000009a0 <alt_avalon_sgdma_check_descriptor_status>:
     9a0:	208007a3 	ldbuio	r2,30(r4)
     9a4:	10801fcc 	andi	r2,r2,127
     9a8:	1000041e 	bne	r2,zero,9bc <alt_avalon_sgdma_check_descriptor_status+0x1c>
     9ac:	20c007e3 	ldbuio	r3,31(r4)
     9b0:	18c0200c 	andi	r3,r3,128
     9b4:	1800031e 	bne	r3,zero,9c4 <alt_avalon_sgdma_check_descriptor_status+0x24>
     9b8:	f800283a 	ret
     9bc:	00bffec4 	movi	r2,-5
     9c0:	f800283a 	ret
     9c4:	00bfe244 	movi	r2,-119
     9c8:	f800283a 	ret
     9cc:	0001883a 	nop
     9d0:	0001883a 	nop
     9d4:	0001883a 	nop
     9d8:	0001883a 	nop
     9dc:	0001883a 	nop

000009e0 <alt_avalon_sgdma_open>:
     9e0:	defffe04 	addi	sp,sp,-8
     9e4:	d1600404 	addi	r5,gp,-32752
     9e8:	dc000015 	stw	r16,0(sp)
     9ec:	dfc00115 	stw	ra,4(sp)
     9f0:	0004b400 	call	4b40 <alt_find_dev>
     9f4:	1021883a 	mov	r16,r2
     9f8:	10000526 	beq	r2,zero,a10 <alt_avalon_sgdma_open+0x30>
     9fc:	8005883a 	mov	r2,r16
     a00:	dfc00117 	ldw	ra,4(sp)
     a04:	dc000017 	ldw	r16,0(sp)
     a08:	dec00204 	addi	sp,sp,8
     a0c:	f800283a 	ret
     a10:	008000f4 	movhi	r2,3
     a14:	10a77f04 	addi	r2,r2,-25092
     a18:	10800017 	ldw	r2,0(r2)
     a1c:	10000826 	beq	r2,zero,a40 <alt_avalon_sgdma_open+0x60>
     a20:	103ee83a 	callr	r2
     a24:	00c004c4 	movi	r3,19
     a28:	10c00015 	stw	r3,0(r2)
     a2c:	8005883a 	mov	r2,r16
     a30:	dfc00117 	ldw	ra,4(sp)
     a34:	dc000017 	ldw	r16,0(sp)
     a38:	dec00204 	addi	sp,sp,8
     a3c:	f800283a 	ret
     a40:	008000f4 	movhi	r2,3
     a44:	10a7e804 	addi	r2,r2,-24672
     a48:	003ff606 	br	a24 <alt_avalon_sgdma_open+0x44>
     a4c:	0001883a 	nop
     a50:	0001883a 	nop
     a54:	0001883a 	nop
     a58:	0001883a 	nop
     a5c:	0001883a 	nop

00000a60 <alt_avalon_sgdma_enable_desc_poll>:
     a60:	20800317 	ldw	r2,12(r4)
     a64:	10800404 	addi	r2,r2,16
     a68:	11000037 	ldwio	r4,0(r2)
     a6c:	00e00434 	movhi	r3,32784
     a70:	18ffffc4 	addi	r3,r3,-1
     a74:	280a953a 	slli	r5,r5,20
     a78:	20c6703a 	and	r3,r4,r3
     a7c:	295ffc2c 	andhi	r5,r5,32752
     a80:	29400134 	orhi	r5,r5,4
     a84:	28cab03a 	or	r5,r5,r3
     a88:	11400035 	stwio	r5,0(r2)
     a8c:	f800283a 	ret
     a90:	0001883a 	nop
     a94:	0001883a 	nop
     a98:	0001883a 	nop
     a9c:	0001883a 	nop

00000aa0 <alt_avalon_sgdma_disable_desc_poll>:
     aa0:	20800317 	ldw	r2,12(r4)
     aa4:	10800404 	addi	r2,r2,16
     aa8:	11000037 	ldwio	r4,0(r2)
     aac:	00ffff34 	movhi	r3,65532
     ab0:	18ffffc4 	addi	r3,r3,-1
     ab4:	20c6703a 	and	r3,r4,r3
     ab8:	10c00035 	stwio	r3,0(r2)
     abc:	f800283a 	ret

00000ac0 <alt_avalon_sgdma_construct_descriptor_burst>:
     ac0:	defff704 	addi	sp,sp,-36
     ac4:	df000815 	stw	fp,32(sp)
     ac8:	ddc00715 	stw	r23,28(sp)
     acc:	dd800615 	stw	r22,24(sp)
     ad0:	dd400515 	stw	r21,20(sp)
     ad4:	dd000415 	stw	r20,16(sp)
     ad8:	dcc00315 	stw	r19,12(sp)
     adc:	dc800215 	stw	r18,8(sp)
     ae0:	dc400115 	stw	r17,4(sp)
     ae4:	dc000015 	stw	r16,0(sp)
     ae8:	2b4007c3 	ldbu	r13,31(r5)
     aec:	d8c00f17 	ldw	r3,60(sp)
     af0:	da800a17 	ldw	r10,40(sp)
     af4:	db000b17 	ldw	r12,44(sp)
     af8:	dac00c17 	ldw	r11,48(sp)
     afc:	da400d17 	ldw	r9,52(sp)
     b00:	da000e17 	ldw	r8,56(sp)
     b04:	d880090b 	ldhu	r2,36(sp)
     b08:	6b401fcc 	andi	r13,r13,127
     b0c:	2b4007e5 	stbio	r13,31(r5)
     b10:	6018c03a 	cmpne	r12,r12,zero
     b14:	101ed23a 	srli	r15,r2,8
     b18:	5816c03a 	cmpne	r11,r11,zero
     b1c:	3038d23a 	srli	fp,r6,8
     b20:	302ed43a 	srli	r23,r6,16
     b24:	302cd63a 	srli	r22,r6,24
     b28:	382ad23a 	srli	r21,r7,8
     b2c:	3828d43a 	srli	r20,r7,16
     b30:	3826d63a 	srli	r19,r7,24
     b34:	2824d23a 	srli	r18,r5,8
     b38:	2822d43a 	srli	r17,r5,16
     b3c:	2820d63a 	srli	r16,r5,24
     b40:	6018907a 	slli	r12,r12,1
     b44:	581a90ba 	slli	r13,r11,2
     b48:	5015003a 	cmpeq	r10,r10,zero
     b4c:	02ffe044 	movi	r11,-127
     b50:	5a97c83a 	sub	r11,r11,r10
     b54:	62d6b03a 	or	r11,r12,r11
     b58:	20800605 	stb	r2,24(r4)
     b5c:	21800005 	stb	r6,0(r4)
     b60:	27000045 	stb	fp,1(r4)
     b64:	25c00085 	stb	r23,2(r4)
     b68:	258000c5 	stb	r22,3(r4)
     b6c:	21c00205 	stb	r7,8(r4)
     b70:	25400245 	stb	r21,9(r4)
     b74:	25000285 	stb	r20,10(r4)
     b78:	24c002c5 	stb	r19,11(r4)
     b7c:	21400405 	stb	r5,16(r4)
     b80:	24800445 	stb	r18,17(r4)
     b84:	24400485 	stb	r17,18(r4)
     b88:	240004c5 	stb	r16,19(r4)
     b8c:	20000105 	stb	zero,4(r4)
     b90:	20000145 	stb	zero,5(r4)
     b94:	20000185 	stb	zero,6(r4)
     b98:	200001c5 	stb	zero,7(r4)
     b9c:	20000305 	stb	zero,12(r4)
     ba0:	20000345 	stb	zero,13(r4)
     ba4:	20000385 	stb	zero,14(r4)
     ba8:	200003c5 	stb	zero,15(r4)
     bac:	20000505 	stb	zero,20(r4)
     bb0:	20000545 	stb	zero,21(r4)
     bb4:	20000585 	stb	zero,22(r4)
     bb8:	200005c5 	stb	zero,23(r4)
     bbc:	23c00645 	stb	r15,25(r4)
     bc0:	20000705 	stb	zero,28(r4)
     bc4:	20000745 	stb	zero,29(r4)
     bc8:	20000785 	stb	zero,30(r4)
     bcc:	22400685 	stb	r9,26(r4)
     bd0:	220006c5 	stb	r8,27(r4)
     bd4:	18803fcc 	andi	r2,r3,255
     bd8:	5b56b03a 	or	r11,r11,r13
     bdc:	10001026 	beq	r2,zero,c20 <alt_avalon_sgdma_construct_descriptor_burst+0x160>
     be0:	18c003cc 	andi	r3,r3,15
     be4:	180690fa 	slli	r3,r3,3
     be8:	58c6b03a 	or	r3,r11,r3
     bec:	01400804 	movi	r5,32
     bf0:	20c007c5 	stb	r3,31(r4)
     bf4:	df000817 	ldw	fp,32(sp)
     bf8:	ddc00717 	ldw	r23,28(sp)
     bfc:	dd800617 	ldw	r22,24(sp)
     c00:	dd400517 	ldw	r21,20(sp)
     c04:	dd000417 	ldw	r20,16(sp)
     c08:	dcc00317 	ldw	r19,12(sp)
     c0c:	dc800217 	ldw	r18,8(sp)
     c10:	dc400117 	ldw	r17,4(sp)
     c14:	dc000017 	ldw	r16,0(sp)
     c18:	dec00904 	addi	sp,sp,36
     c1c:	00049001 	jmpi	4900 <alt_remap_uncached>
     c20:	0007883a 	mov	r3,zero
     c24:	003ff006 	br	be8 <alt_avalon_sgdma_construct_descriptor_burst+0x128>
     c28:	0001883a 	nop
     c2c:	0001883a 	nop
     c30:	0001883a 	nop
     c34:	0001883a 	nop
     c38:	0001883a 	nop
     c3c:	0001883a 	nop

00000c40 <alt_avalon_sgdma_construct_descriptor>:
     c40:	defff804 	addi	sp,sp,-32
     c44:	d8c0080b 	ldhu	r3,32(sp)
     c48:	d8800c03 	ldbu	r2,48(sp)
     c4c:	da000917 	ldw	r8,36(sp)
     c50:	d8c00015 	stw	r3,0(sp)
     c54:	d8c00a17 	ldw	r3,40(sp)
     c58:	da000115 	stw	r8,4(sp)
     c5c:	d8000415 	stw	zero,16(sp)
     c60:	d8c00215 	stw	r3,8(sp)
     c64:	d8c00b17 	ldw	r3,44(sp)
     c68:	d8000515 	stw	zero,20(sp)
     c6c:	d8800615 	stw	r2,24(sp)
     c70:	d8c00315 	stw	r3,12(sp)
     c74:	dfc00715 	stw	ra,28(sp)
     c78:	0000ac00 	call	ac0 <alt_avalon_sgdma_construct_descriptor_burst>
     c7c:	dfc00717 	ldw	ra,28(sp)
     c80:	dec00804 	addi	sp,sp,32
     c84:	f800283a 	ret
     c88:	0001883a 	nop
     c8c:	0001883a 	nop
     c90:	0001883a 	nop
     c94:	0001883a 	nop
     c98:	0001883a 	nop
     c9c:	0001883a 	nop

00000ca0 <alt_avalon_sgdma_construct_mem_to_stream_desc_burst>:
     ca0:	defff804 	addi	sp,sp,-32
     ca4:	d8c00a17 	ldw	r3,40(sp)
     ca8:	d8800c03 	ldbu	r2,48(sp)
     cac:	39ffffcc 	andi	r7,r7,65535
     cb0:	d8c00115 	stw	r3,4(sp)
     cb4:	d8c00817 	ldw	r3,32(sp)
     cb8:	d9c00015 	stw	r7,0(sp)
     cbc:	d8000515 	stw	zero,20(sp)
     cc0:	d8c00215 	stw	r3,8(sp)
     cc4:	d8c00917 	ldw	r3,36(sp)
     cc8:	d8800615 	stw	r2,24(sp)
     ccc:	000f883a 	mov	r7,zero
     cd0:	d8c00315 	stw	r3,12(sp)
     cd4:	d8c00b17 	ldw	r3,44(sp)
     cd8:	dfc00715 	stw	ra,28(sp)
     cdc:	d8c00415 	stw	r3,16(sp)
     ce0:	0000ac00 	call	ac0 <alt_avalon_sgdma_construct_descriptor_burst>
     ce4:	dfc00717 	ldw	ra,28(sp)
     ce8:	dec00804 	addi	sp,sp,32
     cec:	f800283a 	ret
     cf0:	0001883a 	nop
     cf4:	0001883a 	nop
     cf8:	0001883a 	nop
     cfc:	0001883a 	nop

00000d00 <alt_avalon_sgdma_construct_mem_to_stream_desc>:
     d00:	defffa04 	addi	sp,sp,-24
     d04:	d8c00617 	ldw	r3,24(sp)
     d08:	d8800903 	ldbu	r2,36(sp)
     d0c:	d8000315 	stw	zero,12(sp)
     d10:	d8c00015 	stw	r3,0(sp)
     d14:	d8c00717 	ldw	r3,28(sp)
     d18:	d8800415 	stw	r2,16(sp)
     d1c:	39ffffcc 	andi	r7,r7,65535
     d20:	d8c00115 	stw	r3,4(sp)
     d24:	d8c00817 	ldw	r3,32(sp)
     d28:	dfc00515 	stw	ra,20(sp)
     d2c:	d8c00215 	stw	r3,8(sp)
     d30:	0000ca00 	call	ca0 <alt_avalon_sgdma_construct_mem_to_stream_desc_burst>
     d34:	dfc00517 	ldw	ra,20(sp)
     d38:	dec00604 	addi	sp,sp,24
     d3c:	f800283a 	ret

00000d40 <alt_avalon_sgdma_construct_stream_to_mem_desc_burst>:
     d40:	defff804 	addi	sp,sp,-32
     d44:	d8c00817 	ldw	r3,32(sp)
     d48:	3005883a 	mov	r2,r6
     d4c:	39ffffcc 	andi	r7,r7,65535
     d50:	d8c00315 	stw	r3,12(sp)
     d54:	d8c00917 	ldw	r3,36(sp)
     d58:	d9c00015 	stw	r7,0(sp)
     d5c:	d8000115 	stw	zero,4(sp)
     d60:	d8000215 	stw	zero,8(sp)
     d64:	d8000415 	stw	zero,16(sp)
     d68:	d8c00515 	stw	r3,20(sp)
     d6c:	d8000615 	stw	zero,24(sp)
     d70:	000d883a 	mov	r6,zero
     d74:	100f883a 	mov	r7,r2
     d78:	dfc00715 	stw	ra,28(sp)
     d7c:	0000ac00 	call	ac0 <alt_avalon_sgdma_construct_descriptor_burst>
     d80:	dfc00717 	ldw	ra,28(sp)
     d84:	dec00804 	addi	sp,sp,32
     d88:	f800283a 	ret
     d8c:	0001883a 	nop
     d90:	0001883a 	nop
     d94:	0001883a 	nop
     d98:	0001883a 	nop
     d9c:	0001883a 	nop

00000da0 <alt_avalon_sgdma_construct_stream_to_mem_desc>:
     da0:	defffd04 	addi	sp,sp,-12
     da4:	d8800317 	ldw	r2,12(sp)
     da8:	d8000115 	stw	zero,4(sp)
     dac:	39ffffcc 	andi	r7,r7,65535
     db0:	d8800015 	stw	r2,0(sp)
     db4:	dfc00215 	stw	ra,8(sp)
     db8:	0000d400 	call	d40 <alt_avalon_sgdma_construct_stream_to_mem_desc_burst>
     dbc:	dfc00217 	ldw	ra,8(sp)
     dc0:	dec00304 	addi	sp,sp,12
     dc4:	f800283a 	ret
     dc8:	0001883a 	nop
     dcc:	0001883a 	nop
     dd0:	0001883a 	nop
     dd4:	0001883a 	nop
     dd8:	0001883a 	nop
     ddc:	0001883a 	nop

00000de0 <alt_avalon_sgdma_construct_mem_to_mem_desc_burst>:
     de0:	defff804 	addi	sp,sp,-32
     de4:	d880080b 	ldhu	r2,32(sp)
     de8:	d8c00917 	ldw	r3,36(sp)
     dec:	d8000115 	stw	zero,4(sp)
     df0:	d8800015 	stw	r2,0(sp)
     df4:	d8800a17 	ldw	r2,40(sp)
     df8:	d8c00215 	stw	r3,8(sp)
     dfc:	d8000615 	stw	zero,24(sp)
     e00:	d8800315 	stw	r2,12(sp)
     e04:	d8800b17 	ldw	r2,44(sp)
     e08:	dfc00715 	stw	ra,28(sp)
     e0c:	d8800415 	stw	r2,16(sp)
     e10:	d8800c17 	ldw	r2,48(sp)
     e14:	d8800515 	stw	r2,20(sp)
     e18:	0000ac00 	call	ac0 <alt_avalon_sgdma_construct_descriptor_burst>
     e1c:	dfc00717 	ldw	ra,28(sp)
     e20:	dec00804 	addi	sp,sp,32
     e24:	f800283a 	ret
     e28:	0001883a 	nop
     e2c:	0001883a 	nop
     e30:	0001883a 	nop
     e34:	0001883a 	nop
     e38:	0001883a 	nop
     e3c:	0001883a 	nop

00000e40 <alt_avalon_sgdma_construct_mem_to_mem_desc>:
     e40:	defffa04 	addi	sp,sp,-24
     e44:	d8c00717 	ldw	r3,28(sp)
     e48:	d880060b 	ldhu	r2,24(sp)
     e4c:	d8000315 	stw	zero,12(sp)
     e50:	d8c00115 	stw	r3,4(sp)
     e54:	d8c00817 	ldw	r3,32(sp)
     e58:	d8800015 	stw	r2,0(sp)
     e5c:	d8000415 	stw	zero,16(sp)
     e60:	d8c00215 	stw	r3,8(sp)
     e64:	dfc00515 	stw	ra,20(sp)
     e68:	0000de00 	call	de0 <alt_avalon_sgdma_construct_mem_to_mem_desc_burst>
     e6c:	dfc00517 	ldw	ra,20(sp)
     e70:	dec00604 	addi	sp,sp,24
     e74:	f800283a 	ret
     e78:	0001883a 	nop
     e7c:	0001883a 	nop

00000e80 <alt_avalon_sgdma_init>:
     e80:	20c00317 	ldw	r3,12(r4)
     e84:	defffb04 	addi	sp,sp,-20
     e88:	dc800315 	stw	r18,12(sp)
     e8c:	dc400215 	stw	r17,8(sp)
     e90:	dc000115 	stw	r16,4(sp)
     e94:	dfc00415 	stw	ra,16(sp)
     e98:	2021883a 	mov	r16,r4
     e9c:	2823883a 	mov	r17,r5
     ea0:	3025883a 	mov	r18,r6
     ea4:	00800074 	movhi	r2,1
     ea8:	18800435 	stwio	r2,16(r3)
     eac:	20c00317 	ldw	r3,12(r4)
     eb0:	18800435 	stwio	r2,16(r3)
     eb4:	20800317 	ldw	r2,12(r4)
     eb8:	10000435 	stwio	zero,16(r2)
     ebc:	20800317 	ldw	r2,12(r4)
     ec0:	00c03fc4 	movi	r3,255
     ec4:	10c00035 	stwio	r3,0(r2)
     ec8:	d1600404 	addi	r5,gp,-32752
     ecc:	0004ac00 	call	4ac0 <alt_dev_llist_insert>
     ed0:	8809883a 	mov	r4,r17
     ed4:	d8000015 	stw	zero,0(sp)
     ed8:	900b883a 	mov	r5,r18
     edc:	01800034 	movhi	r6,0
     ee0:	3181e004 	addi	r6,r6,1920
     ee4:	800f883a 	mov	r7,r16
     ee8:	00046600 	call	4660 <alt_ic_isr_register>
     eec:	dfc00417 	ldw	ra,16(sp)
     ef0:	dc800317 	ldw	r18,12(sp)
     ef4:	dc400217 	ldw	r17,8(sp)
     ef8:	dc000117 	ldw	r16,4(sp)
     efc:	dec00504 	addi	sp,sp,20
     f00:	f800283a 	ret
	...

00000f20 <DP83848C_link_status_read>:
     f20:	20c0b037 	ldwio	r3,704(r4)
     f24:	1880008c 	andi	r2,r3,2
     f28:	10000526 	beq	r2,zero,f40 <DP83848C_link_status_read+0x20>
     f2c:	00800204 	movi	r2,8
     f30:	18c0010c 	andi	r3,r3,4
     f34:	18000126 	beq	r3,zero,f3c <DP83848C_link_status_read+0x1c>
     f38:	10800054 	ori	r2,r2,1
     f3c:	f800283a 	ret
     f40:	00800104 	movi	r2,4
     f44:	003ffa06 	br	f30 <DP83848C_link_status_read+0x10>
     f48:	0001883a 	nop
     f4c:	0001883a 	nop
     f50:	0001883a 	nop
     f54:	0001883a 	nop
     f58:	0001883a 	nop
     f5c:	0001883a 	nop

00000f60 <marvell_phy_cfg>:
     f60:	defffe04 	addi	sp,sp,-8
     f64:	dc000015 	stw	r16,0(sp)
     f68:	2021883a 	mov	r16,r4
     f6c:	dfc00115 	stw	ra,4(sp)
     f70:	2080a137 	ldwio	r2,644(r4)
     f74:	1080080c 	andi	r2,r2,32
     f78:	10000f1e 	bne	r2,zero,fb8 <marvell_phy_cfg+0x58>
     f7c:	01000184 	movi	r4,6
     f80:	014000b4 	movhi	r5,2
     f84:	2951f404 	addi	r5,r5,18384
     f88:	00156600 	call	15660 <syslog>
     f8c:	00801e04 	movi	r2,120
     f90:	8080b035 	stwio	r2,704(r16)
     f94:	01000184 	movi	r4,6
     f98:	014000b4 	movhi	r5,2
     f9c:	2951fd04 	addi	r5,r5,18420
     fa0:	00156600 	call	15660 <syslog>
     fa4:	8400a004 	addi	r16,r16,640
     fa8:	80800037 	ldwio	r2,0(r16)
     fac:	10bfffcc 	andi	r2,r2,65535
     fb0:	10a00014 	ori	r2,r2,32768
     fb4:	80800035 	stwio	r2,0(r16)
     fb8:	0005883a 	mov	r2,zero
     fbc:	dfc00117 	ldw	ra,4(sp)
     fc0:	dc000017 	ldw	r16,0(sp)
     fc4:	dec00204 	addi	sp,sp,8
     fc8:	f800283a 	ret
     fcc:	0001883a 	nop
     fd0:	0001883a 	nop
     fd4:	0001883a 	nop
     fd8:	0001883a 	nop
     fdc:	0001883a 	nop

00000fe0 <no_printf>:
     fe0:	defffd04 	addi	sp,sp,-12
     fe4:	d9400015 	stw	r5,0(sp)
     fe8:	d9800115 	stw	r6,4(sp)
     fec:	d9c00215 	stw	r7,8(sp)
     ff0:	dec00304 	addi	sp,sp,12
     ff4:	f800283a 	ret
     ff8:	0001883a 	nop
     ffc:	0001883a 	nop

00001000 <tse_mac_initTransInfo2>:
    1000:	d8800017 	ldw	r2,0(sp)
    1004:	21400015 	stw	r5,0(r4)
    1008:	21800115 	stw	r6,4(r4)
    100c:	20800415 	stw	r2,16(r4)
    1010:	21c00215 	stw	r7,8(r4)
    1014:	0005883a 	mov	r2,zero
    1018:	f800283a 	ret
    101c:	0001883a 	nop

00001020 <tse_mac_sTxWrite>:
    1020:	defffe04 	addi	sp,sp,-8
    1024:	dc000015 	stw	r16,0(sp)
    1028:	dfc00115 	stw	ra,4(sp)
    102c:	2821883a 	mov	r16,r5
    1030:	008003f4 	movhi	r2,15
    1034:	10909044 	addi	r2,r2,16961
    1038:	21c00117 	ldw	r7,4(r4)
    103c:	00000106 	br	1044 <tse_mac_sTxWrite+0x24>
    1040:	10001326 	beq	r2,zero,1090 <tse_mac_sTxWrite+0x70>
    1044:	38c00317 	ldw	r3,12(r7)
    1048:	19800037 	ldwio	r6,0(r3)
    104c:	3180040c 	andi	r6,r6,16
    1050:	10bfffc4 	addi	r2,r2,-1
    1054:	303ffa1e 	bne	r6,zero,1040 <tse_mac_sTxWrite+0x20>
    1058:	18000435 	stwio	zero,16(r3)
    105c:	20800117 	ldw	r2,4(r4)
    1060:	00c03fc4 	movi	r3,255
    1064:	10800317 	ldw	r2,12(r2)
    1068:	10c00035 	stwio	r3,0(r2)
    106c:	21000117 	ldw	r4,4(r4)
    1070:	800b883a 	mov	r5,r16
    1074:	00008a00 	call	8a0 <alt_avalon_sgdma_do_sync_transfer>
    1078:	80800737 	ldwio	r2,28(r16)
    107c:	10bfffcc 	andi	r2,r2,65535
    1080:	dfc00117 	ldw	ra,4(sp)
    1084:	dc000017 	ldw	r16,0(sp)
    1088:	dec00204 	addi	sp,sp,8
    108c:	f800283a 	ret
    1090:	01000184 	movi	r4,6
    1094:	014000b4 	movhi	r5,2
    1098:	29520304 	addi	r5,r5,18444
    109c:	00156600 	call	15660 <syslog>
    10a0:	00bffa84 	movi	r2,-22
    10a4:	dfc00117 	ldw	ra,4(sp)
    10a8:	dc000017 	ldw	r16,0(sp)
    10ac:	dec00204 	addi	sp,sp,8
    10b0:	f800283a 	ret
    10b4:	0001883a 	nop
    10b8:	0001883a 	nop
    10bc:	0001883a 	nop

000010c0 <tse_mac_aRxRead>:
    10c0:	deffff04 	addi	sp,sp,-4
    10c4:	dfc00015 	stw	ra,0(sp)
    10c8:	008003f4 	movhi	r2,15
    10cc:	10909044 	addi	r2,r2,16961
    10d0:	21000217 	ldw	r4,8(r4)
    10d4:	00000106 	br	10dc <tse_mac_aRxRead+0x1c>
    10d8:	10000a26 	beq	r2,zero,1104 <tse_mac_aRxRead+0x44>
    10dc:	20c00317 	ldw	r3,12(r4)
    10e0:	18c00037 	ldwio	r3,0(r3)
    10e4:	18c0040c 	andi	r3,r3,16
    10e8:	10bfffc4 	addi	r2,r2,-1
    10ec:	183ffa1e 	bne	r3,zero,10d8 <tse_mac_aRxRead+0x18>
    10f0:	00008000 	call	800 <alt_avalon_sgdma_do_async_transfer>
    10f4:	0005883a 	mov	r2,zero
    10f8:	dfc00017 	ldw	ra,0(sp)
    10fc:	dec00104 	addi	sp,sp,4
    1100:	f800283a 	ret
    1104:	01000184 	movi	r4,6
    1108:	014000b4 	movhi	r5,2
    110c:	29520a04 	addi	r5,r5,18472
    1110:	00156600 	call	15660 <syslog>
    1114:	00bffa84 	movi	r2,-22
    1118:	dfc00017 	ldw	ra,0(sp)
    111c:	dec00104 	addi	sp,sp,4
    1120:	f800283a 	ret
    1124:	0001883a 	nop
    1128:	0001883a 	nop
    112c:	0001883a 	nop
    1130:	0001883a 	nop
    1134:	0001883a 	nop
    1138:	0001883a 	nop
    113c:	0001883a 	nop

00001140 <tse_mac_SwReset>:
    1140:	21000204 	addi	r4,r4,8
    1144:	21400037 	ldwio	r5,0(r4)
    1148:	00880204 	movi	r2,8200
    114c:	20800035 	stwio	r2,0(r4)
    1150:	0089c444 	movi	r2,10001
    1154:	00000106 	br	115c <tse_mac_SwReset+0x1c>
    1158:	10000426 	beq	r2,zero,116c <tse_mac_SwReset+0x2c>
    115c:	20c00037 	ldwio	r3,0(r4)
    1160:	18c8000c 	andi	r3,r3,8192
    1164:	10bfffc4 	addi	r2,r2,-1
    1168:	183ffb1e 	bne	r3,zero,1158 <tse_mac_SwReset+0x18>
    116c:	21400035 	stwio	r5,0(r4)
    1170:	0005883a 	mov	r2,zero
    1174:	f800283a 	ret
    1178:	0001883a 	nop
    117c:	0001883a 	nop

00001180 <tse_mac_setMIImode>:
    1180:	21000204 	addi	r4,r4,8
    1184:	20c00037 	ldwio	r3,0(r4)
    1188:	00bffdc4 	movi	r2,-9
    118c:	1884703a 	and	r2,r3,r2
    1190:	20800035 	stwio	r2,0(r4)
    1194:	0005883a 	mov	r2,zero
    1198:	f800283a 	ret
    119c:	0001883a 	nop

000011a0 <tse_mac_setGMIImode>:
    11a0:	21000204 	addi	r4,r4,8
    11a4:	20800037 	ldwio	r2,0(r4)
    11a8:	10800214 	ori	r2,r2,8
    11ac:	20800035 	stwio	r2,0(r4)
    11b0:	0005883a 	mov	r2,zero
    11b4:	f800283a 	ret
    11b8:	0001883a 	nop
    11bc:	0001883a 	nop

000011c0 <alt_tse_phy_add_profile>:
    11c0:	defff904 	addi	sp,sp,-28
    11c4:	dd000415 	stw	r20,16(sp)
    11c8:	d5202c43 	ldbu	r20,-32591(gp)
    11cc:	dcc00315 	stw	r19,12(sp)
    11d0:	dfc00615 	stw	ra,24(sp)
    11d4:	dd400515 	stw	r21,20(sp)
    11d8:	dc800215 	stw	r18,8(sp)
    11dc:	dc400115 	stw	r17,4(sp)
    11e0:	dc000015 	stw	r16,0(sp)
    11e4:	a0803fcc 	andi	r2,r20,255
    11e8:	2027883a 	mov	r19,r4
    11ec:	10003726 	beq	r2,zero,12cc <alt_tse_phy_add_profile+0x10c>
    11f0:	054000f4 	movhi	r21,3
    11f4:	ad67f804 	addi	r21,r21,-24608
    11f8:	a823883a 	mov	r17,r21
    11fc:	0021883a 	mov	r16,zero
    1200:	00000206 	br	120c <alt_tse_phy_add_profile+0x4c>
    1204:	a4803fcc 	andi	r18,r20,255
    1208:	8480140e 	bge	r16,r18,125c <alt_tse_phy_add_profile+0x9c>
    120c:	88800017 	ldw	r2,0(r17)
    1210:	98c01417 	ldw	r3,80(r19)
    1214:	84000044 	addi	r16,r16,1
    1218:	11801417 	ldw	r6,80(r2)
    121c:	8c400104 	addi	r17,r17,4
    1220:	30fff81e 	bne	r6,r3,1204 <alt_tse_phy_add_profile+0x44>
    1224:	11c01503 	ldbu	r7,84(r2)
    1228:	98801503 	ldbu	r2,84(r19)
    122c:	38bff51e 	bne	r7,r2,1204 <alt_tse_phy_add_profile+0x44>
    1230:	01000184 	movi	r4,6
    1234:	014000b4 	movhi	r5,2
    1238:	29521104 	addi	r5,r5,18500
    123c:	00156600 	call	15660 <syslog>
    1240:	01000184 	movi	r4,6
    1244:	014000b4 	movhi	r5,2
    1248:	29522504 	addi	r5,r5,18580
    124c:	00156600 	call	15660 <syslog>
    1250:	d5202c43 	ldbu	r20,-32591(gp)
    1254:	a4803fcc 	andi	r18,r20,255
    1258:	84bfec16 	blt	r16,r18,120c <alt_tse_phy_add_profile+0x4c>
    125c:	01001904 	movi	r4,100
    1260:	001ae8c0 	call	1ae8c <malloc>
    1264:	1007883a 	mov	r3,r2
    1268:	9485883a 	add	r2,r18,r18
    126c:	1085883a 	add	r2,r2,r2
    1270:	a8ab883a 	add	r21,r21,r2
    1274:	a8c00015 	stw	r3,0(r21)
    1278:	18001826 	beq	r3,zero,12dc <alt_tse_phy_add_profile+0x11c>
    127c:	1809883a 	mov	r4,r3
    1280:	01801904 	movi	r6,100
    1284:	980b883a 	mov	r5,r19
    1288:	001b6b40 	call	1b6b4 <memcpy>
    128c:	1009883a 	mov	r4,r2
    1290:	980b883a 	mov	r5,r19
    1294:	001ba900 	call	1ba90 <strcpy>
    1298:	a5000044 	addi	r20,r20,1
    129c:	a0803fcc 	andi	r2,r20,255
    12a0:	d5202c45 	stb	r20,-32591(gp)
    12a4:	10bfffc4 	addi	r2,r2,-1
    12a8:	dfc00617 	ldw	ra,24(sp)
    12ac:	dd400517 	ldw	r21,20(sp)
    12b0:	dd000417 	ldw	r20,16(sp)
    12b4:	dcc00317 	ldw	r19,12(sp)
    12b8:	dc800217 	ldw	r18,8(sp)
    12bc:	dc400117 	ldw	r17,4(sp)
    12c0:	dc000017 	ldw	r16,0(sp)
    12c4:	dec00704 	addi	sp,sp,28
    12c8:	f800283a 	ret
    12cc:	0025883a 	mov	r18,zero
    12d0:	054000f4 	movhi	r21,3
    12d4:	ad67f804 	addi	r21,r21,-24608
    12d8:	003fe006 	br	125c <alt_tse_phy_add_profile+0x9c>
    12dc:	01000184 	movi	r4,6
    12e0:	014000b4 	movhi	r5,2
    12e4:	29523d04 	addi	r5,r5,18676
    12e8:	900d883a 	mov	r6,r18
    12ec:	00156600 	call	15660 <syslog>
    12f0:	00bfffc4 	movi	r2,-1
    12f4:	003fec06 	br	12a8 <alt_tse_phy_add_profile+0xe8>
    12f8:	0001883a 	nop
    12fc:	0001883a 	nop

00001300 <alt_tse_system_add_sys>:
    1300:	defff304 	addi	sp,sp,-52
    1304:	df000b15 	stw	fp,44(sp)
    1308:	dfc00c15 	stw	ra,48(sp)
    130c:	ddc00a15 	stw	r23,40(sp)
    1310:	dd800915 	stw	r22,36(sp)
    1314:	dd400815 	stw	r21,32(sp)
    1318:	dd000715 	stw	r20,28(sp)
    131c:	dcc00615 	stw	r19,24(sp)
    1320:	dc800515 	stw	r18,20(sp)
    1324:	dc400415 	stw	r17,16(sp)
    1328:	dc000315 	stw	r16,12(sp)
    132c:	25c00303 	ldbu	r23,12(r4)
    1330:	2039883a 	mov	fp,r4
    1334:	b800a81e 	bne	r23,zero,15d8 <alt_tse_system_add_sys+0x2d8>
    1338:	00c00044 	movi	r3,1
    133c:	d8c00115 	stw	r3,4(sp)
    1340:	d4e02c83 	ldbu	r19,-32590(gp)
    1344:	dd400d17 	ldw	r21,52(sp)
    1348:	382d883a 	mov	r22,r7
    134c:	302f883a 	mov	r23,r6
    1350:	2821883a 	mov	r16,r5
    1354:	0023883a 	mov	r17,zero
    1358:	98803fcc 	andi	r2,r19,255
    135c:	1080201c 	xori	r2,r2,128
    1360:	10bfe004 	addi	r2,r2,-128
    1364:	d8800015 	stw	r2,0(sp)
    1368:	00c001c4 	movi	r3,7
    136c:	18807516 	blt	r3,r2,1544 <alt_tse_system_add_sys+0x244>
    1370:	d8c00017 	ldw	r3,0(sp)
    1374:	e1c00017 	ldw	r7,0(fp)
    1378:	880c92ba 	slli	r6,r17,10
    137c:	1c801224 	muli	r18,r3,72
    1380:	e140010b 	ldhu	r5,4(fp)
    1384:	e100018b 	ldhu	r4,6(fp)
    1388:	008000f4 	movhi	r2,3
    138c:	10a46004 	addi	r2,r2,-28288
    1390:	14a9883a 	add	r20,r2,r18
    1394:	a0800104 	addi	r2,r20,4
    1398:	398d883a 	add	r6,r7,r6
    139c:	1140000d 	sth	r5,0(r2)
    13a0:	a100018d 	sth	r4,6(r20)
    13a4:	a1800015 	stw	r6,0(r20)
    13a8:	e1400203 	ldbu	r5,8(fp)
    13ac:	a1000204 	addi	r4,r20,8
    13b0:	a0800304 	addi	r2,r20,12
    13b4:	21400005 	stb	r5,0(r4)
    13b8:	e1400243 	ldbu	r5,9(fp)
    13bc:	a1400245 	stb	r5,9(r20)
    13c0:	e1400283 	ldbu	r5,10(fp)
    13c4:	a1400285 	stb	r5,10(r20)
    13c8:	e14002c3 	ldbu	r5,11(fp)
    13cc:	a14002c5 	stb	r5,11(r20)
    13d0:	e1000303 	ldbu	r4,12(fp)
    13d4:	11000005 	stb	r4,0(r2)
    13d8:	e1000343 	ldbu	r4,13(fp)
    13dc:	a1000345 	stb	r4,13(r20)
    13e0:	e1000383 	ldbu	r4,14(fp)
    13e4:	a1000385 	stb	r4,14(r20)
    13e8:	e10003c3 	ldbu	r4,15(fp)
    13ec:	a10003c5 	stb	r4,15(r20)
    13f0:	e0800403 	ldbu	r2,16(fp)
    13f4:	a0800405 	stb	r2,16(r20)
    13f8:	80007a26 	beq	r16,zero,15e4 <alt_tse_system_add_sys+0x2e4>
    13fc:	81400017 	ldw	r5,0(r16)
    1400:	2809883a 	mov	r4,r5
    1404:	d9400215 	stw	r5,8(sp)
    1408:	001bb240 	call	1bb24 <strlen>
    140c:	11000044 	addi	r4,r2,1
    1410:	001ae8c0 	call	1ae8c <malloc>
    1414:	a0800515 	stw	r2,20(r20)
    1418:	d9400217 	ldw	r5,8(sp)
    141c:	10007c26 	beq	r2,zero,1610 <alt_tse_system_add_sys+0x310>
    1420:	1009883a 	mov	r4,r2
    1424:	001ba900 	call	1ba90 <strcpy>
    1428:	81400117 	ldw	r5,4(r16)
    142c:	2809883a 	mov	r4,r5
    1430:	d9400215 	stw	r5,8(sp)
    1434:	001bb240 	call	1bb24 <strlen>
    1438:	11000044 	addi	r4,r2,1
    143c:	001ae8c0 	call	1ae8c <malloc>
    1440:	a0800615 	stw	r2,24(r20)
    1444:	d9400217 	ldw	r5,8(sp)
    1448:	10007826 	beq	r2,zero,162c <alt_tse_system_add_sys+0x32c>
    144c:	1009883a 	mov	r4,r2
    1450:	001ba900 	call	1ba90 <strcpy>
    1454:	8100020b 	ldhu	r4,8(r16)
    1458:	a0800704 	addi	r2,r20,28
    145c:	1100000d 	sth	r4,0(r2)
    1460:	b8005a26 	beq	r23,zero,15cc <alt_tse_system_add_sys+0x2cc>
    1464:	b9000003 	ldbu	r4,0(r23)
    1468:	11000085 	stb	r4,2(r2)
    146c:	b8800117 	ldw	r2,4(r23)
    1470:	a0800815 	stw	r2,32(r20)
    1474:	b0004a26 	beq	r22,zero,15a0 <alt_tse_system_add_sys+0x2a0>
    1478:	b1000003 	ldbu	r4,0(r22)
    147c:	00c000f4 	movhi	r3,3
    1480:	18e46004 	addi	r3,r3,-28288
    1484:	1c85883a 	add	r2,r3,r18
    1488:	11000905 	stb	r4,36(r2)
    148c:	b3000117 	ldw	r12,4(r22)
    1490:	b2000217 	ldw	r8,8(r22)
    1494:	b1c00317 	ldw	r7,12(r22)
    1498:	b1800417 	ldw	r6,16(r22)
    149c:	b1400517 	ldw	r5,20(r22)
    14a0:	b1000617 	ldw	r4,24(r22)
    14a4:	13000a15 	stw	r12,40(r2)
    14a8:	12000b15 	stw	r8,44(r2)
    14ac:	11c00c15 	stw	r7,48(r2)
    14b0:	11800d15 	stw	r6,52(r2)
    14b4:	11400e15 	stw	r5,56(r2)
    14b8:	11000f15 	stw	r4,60(r2)
    14bc:	a8003126 	beq	r21,zero,1584 <alt_tse_system_add_sys+0x284>
    14c0:	a9000017 	ldw	r4,0(r21)
    14c4:	a8800117 	ldw	r2,4(r21)
    14c8:	00c000f4 	movhi	r3,3
    14cc:	18e46004 	addi	r3,r3,-28288
    14d0:	1ca5883a 	add	r18,r3,r18
    14d4:	91001015 	stw	r4,64(r18)
    14d8:	90801115 	stw	r2,68(r18)
    14dc:	84000304 	addi	r16,r16,12
    14e0:	b8000126 	beq	r23,zero,14e8 <alt_tse_system_add_sys+0x1e8>
    14e4:	bdc00204 	addi	r23,r23,8
    14e8:	b0000126 	beq	r22,zero,14f0 <alt_tse_system_add_sys+0x1f0>
    14ec:	b5800704 	addi	r22,r22,28
    14f0:	a8000126 	beq	r21,zero,14f8 <alt_tse_system_add_sys+0x1f8>
    14f4:	ad400204 	addi	r21,r21,8
    14f8:	d8c00117 	ldw	r3,4(sp)
    14fc:	9cc00044 	addi	r19,r19,1
    1500:	d4e02c85 	stb	r19,-32590(gp)
    1504:	d4e00605 	stb	r19,-32744(gp)
    1508:	8c400044 	addi	r17,r17,1
    150c:	88ff9216 	blt	r17,r3,1358 <alt_tse_system_add_sys+0x58>
    1510:	0005883a 	mov	r2,zero
    1514:	dfc00c17 	ldw	ra,48(sp)
    1518:	df000b17 	ldw	fp,44(sp)
    151c:	ddc00a17 	ldw	r23,40(sp)
    1520:	dd800917 	ldw	r22,36(sp)
    1524:	dd400817 	ldw	r21,32(sp)
    1528:	dd000717 	ldw	r20,28(sp)
    152c:	dcc00617 	ldw	r19,24(sp)
    1530:	dc800517 	ldw	r18,20(sp)
    1534:	dc400417 	ldw	r17,16(sp)
    1538:	dc000317 	ldw	r16,12(sp)
    153c:	dec00d04 	addi	sp,sp,52
    1540:	f800283a 	ret
    1544:	01000184 	movi	r4,6
    1548:	014000b4 	movhi	r5,2
    154c:	29524c04 	addi	r5,r5,18736
    1550:	00156600 	call	15660 <syslog>
    1554:	d1e02c87 	ldb	r7,-32590(gp)
    1558:	01000184 	movi	r4,6
    155c:	014000b4 	movhi	r5,2
    1560:	29525c04 	addi	r5,r5,18800
    1564:	01800204 	movi	r6,8
    1568:	00156600 	call	15660 <syslog>
    156c:	d4e02c83 	ldbu	r19,-32590(gp)
    1570:	98803fcc 	andi	r2,r19,255
    1574:	1080201c 	xori	r2,r2,128
    1578:	10bfe004 	addi	r2,r2,-128
    157c:	d8800015 	stw	r2,0(sp)
    1580:	003f7b06 	br	1370 <alt_tse_system_add_sys+0x70>
    1584:	008000f4 	movhi	r2,3
    1588:	10a46004 	addi	r2,r2,-28288
    158c:	14a5883a 	add	r18,r2,r18
    1590:	00ffffc4 	movi	r3,-1
    1594:	90c01015 	stw	r3,64(r18)
    1598:	90001115 	stw	zero,68(r18)
    159c:	003fcf06 	br	14dc <alt_tse_system_add_sys+0x1dc>
    15a0:	00c000f4 	movhi	r3,3
    15a4:	18e46004 	addi	r3,r3,-28288
    15a8:	1c85883a 	add	r2,r3,r18
    15ac:	10000905 	stb	zero,36(r2)
    15b0:	10000a15 	stw	zero,40(r2)
    15b4:	10000b15 	stw	zero,44(r2)
    15b8:	10000c15 	stw	zero,48(r2)
    15bc:	10000d15 	stw	zero,52(r2)
    15c0:	10000e15 	stw	zero,56(r2)
    15c4:	10000f15 	stw	zero,60(r2)
    15c8:	003fbc06 	br	14bc <alt_tse_system_add_sys+0x1bc>
    15cc:	10000085 	stb	zero,2(r2)
    15d0:	a0000815 	stw	zero,32(r20)
    15d4:	003fa706 	br	1474 <alt_tse_system_add_sys+0x174>
    15d8:	ddc00115 	stw	r23,4(sp)
    15dc:	05ff5816 	blt	zero,r23,1340 <alt_tse_system_add_sys+0x40>
    15e0:	003fcb06 	br	1510 <alt_tse_system_add_sys+0x210>
    15e4:	01000184 	movi	r4,6
    15e8:	014000b4 	movhi	r5,2
    15ec:	29526b04 	addi	r5,r5,18860
    15f0:	00156600 	call	15660 <syslog>
    15f4:	d1a02c87 	ldb	r6,-32590(gp)
    15f8:	01000184 	movi	r4,6
    15fc:	014000b4 	movhi	r5,2
    1600:	29527604 	addi	r5,r5,18904
    1604:	00156600 	call	15660 <syslog>
    1608:	00bfffc4 	movi	r2,-1
    160c:	003fc106 	br	1514 <alt_tse_system_add_sys+0x214>
    1610:	d9800017 	ldw	r6,0(sp)
    1614:	01000184 	movi	r4,6
    1618:	014000b4 	movhi	r5,2
    161c:	29528e04 	addi	r5,r5,19000
    1620:	00156600 	call	15660 <syslog>
    1624:	00bfffc4 	movi	r2,-1
    1628:	003fba06 	br	1514 <alt_tse_system_add_sys+0x214>
    162c:	d9800017 	ldw	r6,0(sp)
    1630:	01000184 	movi	r4,6
    1634:	014000b4 	movhi	r5,2
    1638:	2952a104 	addi	r5,r5,19076
    163c:	00156600 	call	15660 <syslog>
    1640:	00bfffc4 	movi	r2,-1
    1644:	003fb306 	br	1514 <alt_tse_system_add_sys+0x214>
    1648:	0001883a 	nop
    164c:	0001883a 	nop
    1650:	0001883a 	nop
    1654:	0001883a 	nop
    1658:	0001883a 	nop
    165c:	0001883a 	nop

00001660 <alt_tse_sys_enable_mdio_sharing>:
    1660:	deffff04 	addi	sp,sp,-4
    1664:	dfc00015 	stw	ra,0(sp)
    1668:	2b803fcc 	andi	r14,r5,255
    166c:	70003926 	beq	r14,zero,1754 <alt_tse_sys_enable_mdio_sharing+0xf4>
    1670:	22400017 	ldw	r9,0(r4)
    1674:	48001f26 	beq	r9,zero,16f4 <alt_tse_sys_enable_mdio_sharing+0x94>
    1678:	d2a00603 	ldbu	r10,-32744(gp)
    167c:	23400104 	addi	r13,r4,4
    1680:	0019883a 	mov	r12,zero
    1684:	02c00044 	movi	r11,1
    1688:	50001526 	beq	r10,zero,16e0 <alt_tse_sys_enable_mdio_sharing+0x80>
    168c:	008000f4 	movhi	r2,3
    1690:	10a46004 	addi	r2,r2,-28288
    1694:	11000344 	addi	r4,r2,13
    1698:	118002c4 	addi	r6,r2,11
    169c:	0007883a 	mov	r3,zero
    16a0:	00000306 	br	16b0 <alt_tse_sys_enable_mdio_sharing+0x50>
    16a4:	21001204 	addi	r4,r4,72
    16a8:	31801204 	addi	r6,r6,72
    16ac:	1a800c0e 	bge	r3,r10,16e0 <alt_tse_sys_enable_mdio_sharing+0x80>
    16b0:	11c00017 	ldw	r7,0(r2)
    16b4:	4a000017 	ldw	r8,0(r9)
    16b8:	18c00044 	addi	r3,r3,1
    16bc:	10801204 	addi	r2,r2,72
    16c0:	41fff81e 	bne	r8,r7,16a4 <alt_tse_sys_enable_mdio_sharing+0x44>
    16c4:	31c00003 	ldbu	r7,0(r6)
    16c8:	3800161e 	bne	r7,zero,1724 <alt_tse_sys_enable_mdio_sharing+0xc4>
    16cc:	22c00005 	stb	r11,0(r4)
    16d0:	21400045 	stb	r5,1(r4)
    16d4:	31801204 	addi	r6,r6,72
    16d8:	21001204 	addi	r4,r4,72
    16dc:	1abff416 	blt	r3,r10,16b0 <alt_tse_sys_enable_mdio_sharing+0x50>
    16e0:	63000044 	addi	r12,r12,1
    16e4:	63801b0e 	bge	r12,r14,1754 <alt_tse_sys_enable_mdio_sharing+0xf4>
    16e8:	6b400104 	addi	r13,r13,4
    16ec:	6a7fff17 	ldw	r9,-4(r13)
    16f0:	483fe51e 	bne	r9,zero,1688 <alt_tse_sys_enable_mdio_sharing+0x28>
    16f4:	01000184 	movi	r4,6
    16f8:	014000b4 	movhi	r5,2
    16fc:	2952b404 	addi	r5,r5,19152
    1700:	00156600 	call	15660 <syslog>
    1704:	01000184 	movi	r4,6
    1708:	014000b4 	movhi	r5,2
    170c:	2952be04 	addi	r5,r5,19192
    1710:	00156600 	call	15660 <syslog>
    1714:	00bfffc4 	movi	r2,-1
    1718:	dfc00017 	ldw	ra,0(sp)
    171c:	dec00104 	addi	sp,sp,4
    1720:	f800283a 	ret
    1724:	01000184 	movi	r4,6
    1728:	014000b4 	movhi	r5,2
    172c:	2952d204 	addi	r5,r5,19272
    1730:	00156600 	call	15660 <syslog>
    1734:	01000184 	movi	r4,6
    1738:	014000b4 	movhi	r5,2
    173c:	2952e304 	addi	r5,r5,19340
    1740:	00156600 	call	15660 <syslog>
    1744:	00bfffc4 	movi	r2,-1
    1748:	dfc00017 	ldw	ra,0(sp)
    174c:	dec00104 	addi	sp,sp,4
    1750:	f800283a 	ret
    1754:	0005883a 	mov	r2,zero
    1758:	dfc00017 	ldw	ra,0(sp)
    175c:	dec00104 	addi	sp,sp,4
    1760:	f800283a 	ret
    1764:	0001883a 	nop
    1768:	0001883a 	nop
    176c:	0001883a 	nop
    1770:	0001883a 	nop
    1774:	0001883a 	nop
    1778:	0001883a 	nop
    177c:	0001883a 	nop

00001780 <alt_tse_get_system_index>:
    1780:	d1600603 	ldbu	r5,-32744(gp)
    1784:	28000a26 	beq	r5,zero,17b0 <alt_tse_get_system_index+0x30>
    1788:	018000f4 	movhi	r6,3
    178c:	31a46004 	addi	r6,r6,-28288
    1790:	0005883a 	mov	r2,zero
    1794:	2180031e 	bne	r4,r6,17a4 <alt_tse_get_system_index+0x24>
    1798:	00000706 	br	17b8 <alt_tse_get_system_index+0x38>
    179c:	30c7883a 	add	r3,r6,r3
    17a0:	20c00526 	beq	r4,r3,17b8 <alt_tse_get_system_index+0x38>
    17a4:	10800044 	addi	r2,r2,1
    17a8:	10c01224 	muli	r3,r2,72
    17ac:	117ffb16 	blt	r2,r5,179c <alt_tse_get_system_index+0x1c>
    17b0:	00bfffc4 	movi	r2,-1
    17b4:	f800283a 	ret
    17b8:	f800283a 	ret
    17bc:	0001883a 	nop

000017c0 <alt_tse_get_mac_group_index>:
    17c0:	d1a02c03 	ldbu	r6,-32592(gp)
    17c4:	30000c26 	beq	r6,zero,17f8 <alt_tse_get_mac_group_index+0x38>
    17c8:	00c000f4 	movhi	r3,3
    17cc:	18e7f004 	addi	r3,r3,-24640
    17d0:	18800017 	ldw	r2,0(r3)
    17d4:	11000a26 	beq	r2,r4,1800 <alt_tse_get_mac_group_index+0x40>
    17d8:	18c00104 	addi	r3,r3,4
    17dc:	0005883a 	mov	r2,zero
    17e0:	00000206 	br	17ec <alt_tse_get_mac_group_index+0x2c>
    17e4:	197fff17 	ldw	r5,-4(r3)
    17e8:	29000626 	beq	r5,r4,1804 <alt_tse_get_mac_group_index+0x44>
    17ec:	10800044 	addi	r2,r2,1
    17f0:	18c00104 	addi	r3,r3,4
    17f4:	11bffb16 	blt	r2,r6,17e4 <alt_tse_get_mac_group_index+0x24>
    17f8:	00bfffc4 	movi	r2,-1
    17fc:	f800283a 	ret
    1800:	0005883a 	mov	r2,zero
    1804:	f800283a 	ret
    1808:	0001883a 	nop
    180c:	0001883a 	nop
    1810:	0001883a 	nop
    1814:	0001883a 	nop
    1818:	0001883a 	nop
    181c:	0001883a 	nop

00001820 <alt_tse_get_mac_info_index>:
    1820:	20c00317 	ldw	r3,12(r4)
    1824:	19800003 	ldbu	r6,0(r3)
    1828:	30000a26 	beq	r6,zero,1854 <alt_tse_get_mac_info_index+0x34>
    182c:	18800117 	ldw	r2,4(r3)
    1830:	11000a26 	beq	r2,r4,185c <alt_tse_get_mac_info_index+0x3c>
    1834:	18c00204 	addi	r3,r3,8
    1838:	0005883a 	mov	r2,zero
    183c:	00000206 	br	1848 <alt_tse_get_mac_info_index+0x28>
    1840:	197fff17 	ldw	r5,-4(r3)
    1844:	29000626 	beq	r5,r4,1860 <alt_tse_get_mac_info_index+0x40>
    1848:	10800044 	addi	r2,r2,1
    184c:	18c00104 	addi	r3,r3,4
    1850:	11bffb16 	blt	r2,r6,1840 <alt_tse_get_mac_info_index+0x20>
    1854:	00bfffc4 	movi	r2,-1
    1858:	f800283a 	ret
    185c:	0005883a 	mov	r2,zero
    1860:	f800283a 	ret
    1864:	0001883a 	nop
    1868:	0001883a 	nop
    186c:	0001883a 	nop
    1870:	0001883a 	nop
    1874:	0001883a 	nop
    1878:	0001883a 	nop
    187c:	0001883a 	nop

00001880 <alt_tse_get_mac_info>:
    1880:	d2a02c03 	ldbu	r10,-32592(gp)
    1884:	50001726 	beq	r10,zero,18e4 <alt_tse_get_mac_info+0x64>
    1888:	020000f4 	movhi	r8,3
    188c:	4227f004 	addi	r8,r8,-24640
    1890:	0013883a 	mov	r9,zero
    1894:	41400017 	ldw	r5,0(r8)
    1898:	29c00003 	ldbu	r7,0(r5)
    189c:	38000e26 	beq	r7,zero,18d8 <alt_tse_get_mac_info+0x58>
    18a0:	28800117 	ldw	r2,4(r5)
    18a4:	10c00217 	ldw	r3,8(r2)
    18a8:	18c00017 	ldw	r3,0(r3)
    18ac:	20c00e26 	beq	r4,r3,18e8 <alt_tse_get_mac_info+0x68>
    18b0:	29400204 	addi	r5,r5,8
    18b4:	0007883a 	mov	r3,zero
    18b8:	00000506 	br	18d0 <alt_tse_get_mac_info+0x50>
    18bc:	28800017 	ldw	r2,0(r5)
    18c0:	29400104 	addi	r5,r5,4
    18c4:	11800217 	ldw	r6,8(r2)
    18c8:	31800017 	ldw	r6,0(r6)
    18cc:	21800626 	beq	r4,r6,18e8 <alt_tse_get_mac_info+0x68>
    18d0:	18c00044 	addi	r3,r3,1
    18d4:	19fff916 	blt	r3,r7,18bc <alt_tse_get_mac_info+0x3c>
    18d8:	4a400044 	addi	r9,r9,1
    18dc:	42000104 	addi	r8,r8,4
    18e0:	4abfec16 	blt	r9,r10,1894 <alt_tse_get_mac_info+0x14>
    18e4:	0005883a 	mov	r2,zero
    18e8:	f800283a 	ret
    18ec:	0001883a 	nop
    18f0:	0001883a 	nop
    18f4:	0001883a 	nop
    18f8:	0001883a 	nop
    18fc:	0001883a 	nop

00001900 <alt_tse_mac_set_speed>:
    1900:	21000204 	addi	r4,r4,8
    1904:	20c00037 	ldwio	r3,0(r4)
    1908:	00800084 	movi	r2,2
    190c:	29403fcc 	andi	r5,r5,255
    1910:	28800926 	beq	r5,r2,1938 <alt_tse_mac_set_speed+0x38>
    1914:	00800044 	movi	r2,1
    1918:	28800e26 	beq	r5,r2,1954 <alt_tse_mac_set_speed+0x54>
    191c:	2800131e 	bne	r5,zero,196c <alt_tse_mac_set_speed+0x6c>
    1920:	00bffdc4 	movi	r2,-9
    1924:	1886703a 	and	r3,r3,r2
    1928:	18c08034 	orhi	r3,r3,512
    192c:	20c00035 	stwio	r3,0(r4)
    1930:	0005883a 	mov	r2,zero
    1934:	f800283a 	ret
    1938:	00bf8034 	movhi	r2,65024
    193c:	10bfffc4 	addi	r2,r2,-1
    1940:	1886703a 	and	r3,r3,r2
    1944:	18c00214 	ori	r3,r3,8
    1948:	20c00035 	stwio	r3,0(r4)
    194c:	0005883a 	mov	r2,zero
    1950:	f800283a 	ret
    1954:	00bf8034 	movhi	r2,65024
    1958:	10bffdc4 	addi	r2,r2,-9
    195c:	1886703a 	and	r3,r3,r2
    1960:	20c00035 	stwio	r3,0(r4)
    1964:	0005883a 	mov	r2,zero
    1968:	f800283a 	ret
    196c:	00bffd84 	movi	r2,-10
    1970:	f800283a 	ret
    1974:	0001883a 	nop
    1978:	0001883a 	nop
    197c:	0001883a 	nop

00001980 <alt_tse_mac_set_duplex>:
    1980:	21000204 	addi	r4,r4,8
    1984:	20800037 	ldwio	r2,0(r4)
    1988:	29403fcc 	andi	r5,r5,255
    198c:	2800041e 	bne	r5,zero,19a0 <alt_tse_mac_set_duplex+0x20>
    1990:	10810014 	ori	r2,r2,1024
    1994:	20800035 	stwio	r2,0(r4)
    1998:	0005883a 	mov	r2,zero
    199c:	f800283a 	ret
    19a0:	00c00044 	movi	r3,1
    19a4:	28c0051e 	bne	r5,r3,19bc <alt_tse_mac_set_duplex+0x3c>
    19a8:	00feffc4 	movi	r3,-1025
    19ac:	10c4703a 	and	r2,r2,r3
    19b0:	20800035 	stwio	r2,0(r4)
    19b4:	0005883a 	mov	r2,zero
    19b8:	f800283a 	ret
    19bc:	00bffd84 	movi	r2,-10
    19c0:	f800283a 	ret
    19c4:	0001883a 	nop
    19c8:	0001883a 	nop
    19cc:	0001883a 	nop
    19d0:	0001883a 	nop
    19d4:	0001883a 	nop
    19d8:	0001883a 	nop
    19dc:	0001883a 	nop

000019e0 <alt_tse_phy_rd_mdio_addr>:
    19e0:	20800617 	ldw	r2,24(r4)
    19e4:	10800317 	ldw	r2,12(r2)
    19e8:	10800117 	ldw	r2,4(r2)
    19ec:	10800217 	ldw	r2,8(r2)
    19f0:	10800017 	ldw	r2,0(r2)
    19f4:	10801037 	ldwio	r2,64(r2)
    19f8:	f800283a 	ret
    19fc:	0001883a 	nop

00001a00 <alt_tse_phy_wr_mdio_addr>:
    1a00:	20800617 	ldw	r2,24(r4)
    1a04:	29403fcc 	andi	r5,r5,255
    1a08:	10800317 	ldw	r2,12(r2)
    1a0c:	10800117 	ldw	r2,4(r2)
    1a10:	10800217 	ldw	r2,8(r2)
    1a14:	10800017 	ldw	r2,0(r2)
    1a18:	11401035 	stwio	r5,64(r2)
    1a1c:	0005883a 	mov	r2,zero
    1a20:	f800283a 	ret
    1a24:	0001883a 	nop
    1a28:	0001883a 	nop
    1a2c:	0001883a 	nop
    1a30:	0001883a 	nop
    1a34:	0001883a 	nop
    1a38:	0001883a 	nop
    1a3c:	0001883a 	nop

00001a40 <alt_tse_phy_wr_mdio_reg>:
    1a40:	20800617 	ldw	r2,24(r4)
    1a44:	39c03fcc 	andi	r7,r7,255
    1a48:	d900000b 	ldhu	r4,0(sp)
    1a4c:	10800317 	ldw	r2,12(r2)
    1a50:	10800117 	ldw	r2,4(r2)
    1a54:	10800217 	ldw	r2,8(r2)
    1a58:	12000017 	ldw	r8,0(r2)
    1a5c:	38001926 	beq	r7,zero,1ac4 <alt_tse_phy_wr_mdio_reg+0x84>
    1a60:	0007883a 	mov	r3,zero
    1a64:	0005883a 	mov	r2,zero
    1a68:	1085883a 	add	r2,r2,r2
    1a6c:	18c00044 	addi	r3,r3,1
    1a70:	10800054 	ori	r2,r2,1
    1a74:	19fffc16 	blt	r3,r7,1a68 <alt_tse_phy_wr_mdio_reg+0x28>
    1a78:	31803fcc 	andi	r6,r6,255
    1a7c:	10bfffcc 	andi	r2,r2,65535
    1a80:	213fffcc 	andi	r4,r4,65535
    1a84:	1184983a 	sll	r2,r2,r6
    1a88:	218c983a 	sll	r6,r4,r6
    1a8c:	008e303a 	nor	r7,zero,r2
    1a90:	1184703a 	and	r2,r2,r6
    1a94:	28c03fcc 	andi	r3,r5,255
    1a98:	18c7883a 	add	r3,r3,r3
    1a9c:	4140a004 	addi	r5,r8,640
    1aa0:	18c7883a 	add	r3,r3,r3
    1aa4:	28c7883a 	add	r3,r5,r3
    1aa8:	19000037 	ldwio	r4,0(r3)
    1aac:	21c8703a 	and	r4,r4,r7
    1ab0:	2084b03a 	or	r2,r4,r2
    1ab4:	10bfffcc 	andi	r2,r2,65535
    1ab8:	18800035 	stwio	r2,0(r3)
    1abc:	0005883a 	mov	r2,zero
    1ac0:	f800283a 	ret
    1ac4:	0005883a 	mov	r2,zero
    1ac8:	01ffffc4 	movi	r7,-1
    1acc:	003ff106 	br	1a94 <alt_tse_phy_wr_mdio_reg+0x54>
    1ad0:	0001883a 	nop
    1ad4:	0001883a 	nop
    1ad8:	0001883a 	nop
    1adc:	0001883a 	nop

00001ae0 <alt_tse_phy_rd_mdio_reg>:
    1ae0:	20800617 	ldw	r2,24(r4)
    1ae4:	39c03fcc 	andi	r7,r7,255
    1ae8:	10800317 	ldw	r2,12(r2)
    1aec:	10800117 	ldw	r2,4(r2)
    1af0:	10800217 	ldw	r2,8(r2)
    1af4:	11000017 	ldw	r4,0(r2)
    1af8:	38001226 	beq	r7,zero,1b44 <alt_tse_phy_rd_mdio_reg+0x64>
    1afc:	0007883a 	mov	r3,zero
    1b00:	0005883a 	mov	r2,zero
    1b04:	1085883a 	add	r2,r2,r2
    1b08:	18c00044 	addi	r3,r3,1
    1b0c:	10800054 	ori	r2,r2,1
    1b10:	19fffc16 	blt	r3,r7,1b04 <alt_tse_phy_rd_mdio_reg+0x24>
    1b14:	29403fcc 	andi	r5,r5,255
    1b18:	294b883a 	add	r5,r5,r5
    1b1c:	20c0a004 	addi	r3,r4,640
    1b20:	294b883a 	add	r5,r5,r5
    1b24:	194b883a 	add	r5,r3,r5
    1b28:	28c00037 	ldwio	r3,0(r5)
    1b2c:	31803fcc 	andi	r6,r6,255
    1b30:	18ffffcc 	andi	r3,r3,65535
    1b34:	1987d83a 	sra	r3,r3,r6
    1b38:	18ffffcc 	andi	r3,r3,65535
    1b3c:	1884703a 	and	r2,r3,r2
    1b40:	f800283a 	ret
    1b44:	0005883a 	mov	r2,zero
    1b48:	003ff206 	br	1b14 <alt_tse_phy_rd_mdio_reg+0x34>
    1b4c:	0001883a 	nop
    1b50:	0001883a 	nop
    1b54:	0001883a 	nop
    1b58:	0001883a 	nop
    1b5c:	0001883a 	nop

00001b60 <alt_tse_phy_add_profile_default>:
    1b60:	deff9104 	addi	sp,sp,-444
    1b64:	dc006515 	stw	r16,404(sp)
    1b68:	04001904 	movi	r16,100
    1b6c:	d9004b04 	addi	r4,sp,300
    1b70:	800d883a 	mov	r6,r16
    1b74:	000b883a 	mov	r5,zero
    1b78:	dfc06e15 	stw	ra,440(sp)
    1b7c:	df006d15 	stw	fp,436(sp)
    1b80:	ddc06c15 	stw	r23,432(sp)
    1b84:	dd806b15 	stw	r22,428(sp)
    1b88:	dd406a15 	stw	r21,424(sp)
    1b8c:	dd006915 	stw	r20,420(sp)
    1b90:	dcc06815 	stw	r19,416(sp)
    1b94:	dc806715 	stw	r18,412(sp)
    1b98:	dc406615 	stw	r17,408(sp)
    1b9c:	001b7ac0 	call	1b7ac <memset>
    1ba0:	008c5174 	movhi	r2,12613
    1ba4:	108e0e04 	addi	r2,r2,14392
    1ba8:	00dd9cb4 	movhi	r3,30322
    1bac:	18d85344 	addi	r3,r3,24909
    1bb0:	07081b34 	movhi	fp,8300
    1bb4:	e71b1944 	addi	fp,fp,27749
    1bb8:	d9004f04 	addi	r4,sp,316
    1bbc:	d8804d15 	stw	r2,308(sp)
    1bc0:	000b883a 	mov	r5,zero
    1bc4:	01801004 	movi	r6,64
    1bc8:	00800c74 	movhi	r2,49
    1bcc:	108c4c44 	addi	r2,r2,12593
    1bd0:	d8c04b15 	stw	r3,300(sp)
    1bd4:	d8c06415 	stw	r3,400(sp)
    1bd8:	df004c15 	stw	fp,304(sp)
    1bdc:	d8804e15 	stw	r2,312(sp)
    1be0:	001b7ac0 	call	1b7ac <memset>
    1be4:	04400084 	movi	r17,2
    1be8:	04800444 	movi	r18,17
    1bec:	05000344 	movi	r20,13
    1bf0:	04c00284 	movi	r19,10
    1bf4:	05d410c4 	movi	r23,20547
    1bf8:	05800384 	movi	r22,14
    1bfc:	05400034 	movhi	r21,0
    1c00:	ad43d804 	addi	r21,r21,3936
    1c04:	d9003204 	addi	r4,sp,200
    1c08:	800d883a 	mov	r6,r16
    1c0c:	000b883a 	mov	r5,zero
    1c10:	00800304 	movi	r2,12
    1c14:	ddc05f15 	stw	r23,380(sp)
    1c18:	d8806005 	stb	r2,384(sp)
    1c1c:	dc406045 	stb	r17,385(sp)
    1c20:	dc806085 	stb	r18,386(sp)
    1c24:	dd8060c5 	stb	r22,387(sp)
    1c28:	dd006105 	stb	r20,388(sp)
    1c2c:	dcc06145 	stb	r19,389(sp)
    1c30:	dd406215 	stw	r21,392(sp)
    1c34:	001b7ac0 	call	1b7ac <memset>
    1c38:	00991874 	movhi	r2,25697
    1c3c:	109d5444 	addi	r2,r2,30033
    1c40:	d8c06417 	ldw	r3,400(sp)
    1c44:	d8803415 	stw	r2,208(sp)
    1c48:	00965234 	movhi	r2,22856
    1c4c:	10940804 	addi	r2,r2,20512
    1c50:	d8803515 	stw	r2,212(sp)
    1c54:	00914e34 	movhi	r2,17720
    1c58:	108e0804 	addi	r2,r2,14368
    1c5c:	dc09883a 	add	r4,sp,r16
    1c60:	800d883a 	mov	r6,r16
    1c64:	d8803615 	stw	r2,216(sp)
    1c68:	000b883a 	mov	r5,zero
    1c6c:	008d4d34 	movhi	r2,13620
    1c70:	108c4c44 	addi	r2,r2,12593
    1c74:	d8c03215 	stw	r3,200(sp)
    1c78:	df003315 	stw	fp,204(sp)
    1c7c:	d8803715 	stw	r2,220(sp)
    1c80:	ddc04615 	stw	r23,280(sp)
    1c84:	dd004705 	stb	r20,284(sp)
    1c88:	dc404745 	stb	r17,285(sp)
    1c8c:	dc804785 	stb	r18,286(sp)
    1c90:	dd8047c5 	stb	r22,287(sp)
    1c94:	dd004805 	stb	r20,288(sp)
    1c98:	dcc04845 	stb	r19,289(sp)
    1c9c:	dd404915 	stw	r21,292(sp)
    1ca0:	001b7ac0 	call	1b7ac <memset>
    1ca4:	009a5d34 	movhi	r2,26996
    1ca8:	10985384 	addi	r2,r2,24910
    1cac:	d8801915 	stw	r2,100(sp)
    1cb0:	009b1874 	movhi	r2,27745
    1cb4:	109b9bc4 	addi	r2,r2,28271
    1cb8:	d8801a15 	stw	r2,104(sp)
    1cbc:	008e1434 	movhi	r2,14416
    1cc0:	10910804 	addi	r2,r2,17440
    1cc4:	d9001e04 	addi	r4,sp,120
    1cc8:	d8801b15 	stw	r2,108(sp)
    1ccc:	000b883a 	mov	r5,zero
    1cd0:	01800f04 	movi	r6,60
    1cd4:	008d4db4 	movhi	r2,13622
    1cd8:	108e0cc4 	addi	r2,r2,14387
    1cdc:	d8801c15 	stw	r2,112(sp)
    1ce0:	001b7ac0 	call	1b7ac <memset>
    1ce4:	00800234 	movhi	r2,8
    1ce8:	108005c4 	addi	r2,r2,23
    1cec:	d8802d15 	stw	r2,180(sp)
    1cf0:	008001c4 	movi	r2,7
    1cf4:	d8802e05 	stb	r2,184(sp)
    1cf8:	008000c4 	movi	r2,3
    1cfc:	014000b4 	movhi	r5,2
    1d00:	29560804 	addi	r5,r5,22560
    1d04:	800d883a 	mov	r6,r16
    1d08:	d809883a 	mov	r4,sp
    1d0c:	d8802ec5 	stb	r2,187(sp)
    1d10:	00800044 	movi	r2,1
    1d14:	dcc02e45 	stb	r19,185(sp)
    1d18:	dc802e85 	stb	r18,186(sp)
    1d1c:	d8802f05 	stb	r2,188(sp)
    1d20:	dc402f45 	stb	r17,189(sp)
    1d24:	001b6b40 	call	1b6b4 <memcpy>
    1d28:	d9004b04 	addi	r4,sp,300
    1d2c:	00011c00 	call	11c0 <alt_tse_phy_add_profile>
    1d30:	d9003204 	addi	r4,sp,200
    1d34:	00011c00 	call	11c0 <alt_tse_phy_add_profile>
    1d38:	dc09883a 	add	r4,sp,r16
    1d3c:	00011c00 	call	11c0 <alt_tse_phy_add_profile>
    1d40:	d809883a 	mov	r4,sp
    1d44:	00011c00 	call	11c0 <alt_tse_phy_add_profile>
    1d48:	d0a02c43 	ldbu	r2,-32591(gp)
    1d4c:	dfc06e17 	ldw	ra,440(sp)
    1d50:	df006d17 	ldw	fp,436(sp)
    1d54:	ddc06c17 	ldw	r23,432(sp)
    1d58:	dd806b17 	ldw	r22,428(sp)
    1d5c:	dd406a17 	ldw	r21,424(sp)
    1d60:	dd006917 	ldw	r20,420(sp)
    1d64:	dcc06817 	ldw	r19,416(sp)
    1d68:	dc806717 	ldw	r18,412(sp)
    1d6c:	dc406617 	ldw	r17,408(sp)
    1d70:	dc006517 	ldw	r16,404(sp)
    1d74:	dec06f04 	addi	sp,sp,444
    1d78:	f800283a 	ret
    1d7c:	0001883a 	nop

00001d80 <alt_tse_phy_print_profile>:
    1d80:	d0a02c43 	ldbu	r2,-32591(gp)
    1d84:	f800283a 	ret
    1d88:	0001883a 	nop
    1d8c:	0001883a 	nop
    1d90:	0001883a 	nop
    1d94:	0001883a 	nop
    1d98:	0001883a 	nop
    1d9c:	0001883a 	nop

00001da0 <alt_tse_mac_group_init>:
    1da0:	d1200603 	ldbu	r4,-32744(gp)
    1da4:	defff604 	addi	sp,sp,-40
    1da8:	dfc00915 	stw	ra,36(sp)
    1dac:	df000815 	stw	fp,32(sp)
    1db0:	ddc00715 	stw	r23,28(sp)
    1db4:	dd800615 	stw	r22,24(sp)
    1db8:	dd400515 	stw	r21,20(sp)
    1dbc:	dd000415 	stw	r20,16(sp)
    1dc0:	dcc00315 	stw	r19,12(sp)
    1dc4:	dc800215 	stw	r18,8(sp)
    1dc8:	dc400115 	stw	r17,4(sp)
    1dcc:	dc000015 	stw	r16,0(sp)
    1dd0:	d0202c05 	stb	zero,-32592(gp)
    1dd4:	20005126 	beq	r4,zero,1f1c <alt_tse_mac_group_init+0x17c>
    1dd8:	0023883a 	mov	r17,zero
    1ddc:	0027883a 	mov	r19,zero
    1de0:	048000f4 	movhi	r18,3
    1de4:	94a46004 	addi	r18,r18,-28288
    1de8:	058000f4 	movhi	r22,3
    1dec:	b5a7f004 	addi	r22,r22,-24640
    1df0:	05000044 	movi	r20,1
    1df4:	8c001224 	muli	r16,r17,72
    1df8:	9421883a 	add	r16,r18,r16
    1dfc:	80800517 	ldw	r2,20(r16)
    1e00:	10004126 	beq	r2,zero,1f08 <alt_tse_mac_group_init+0x168>
    1e04:	80800617 	ldw	r2,24(r16)
    1e08:	10003f26 	beq	r2,zero,1f08 <alt_tse_mac_group_init+0x168>
    1e0c:	d1a02c03 	ldbu	r6,-32592(gp)
    1e10:	81c00017 	ldw	r7,0(r16)
    1e14:	01000184 	movi	r4,6
    1e18:	014000b4 	movhi	r5,2
    1e1c:	2952f204 	addi	r5,r5,19400
    1e20:	00156600 	call	15660 <syslog>
    1e24:	01000904 	movi	r4,36
    1e28:	001ae8c0 	call	1ae8c <malloc>
    1e2c:	102f883a 	mov	r23,r2
    1e30:	10005c26 	beq	r2,zero,1fa4 <alt_tse_mac_group_init+0x204>
    1e34:	808002c3 	ldbu	r2,11(r16)
    1e38:	10003a26 	beq	r2,zero,1f24 <alt_tse_mac_group_init+0x184>
    1e3c:	80c00303 	ldbu	r3,12(r16)
    1e40:	b8c00005 	stb	r3,0(r23)
    1e44:	18803fcc 	andi	r2,r3,255
    1e48:	10002426 	beq	r2,zero,1edc <alt_tse_mac_group_init+0x13c>
    1e4c:	07000044 	movi	fp,1
    1e50:	0021883a 	mov	r16,zero
    1e54:	05400084 	movi	r21,2
    1e58:	00000d06 	br	1e90 <alt_tse_mac_group_init+0xf0>
    1e5c:	18c00283 	ldbu	r3,10(r3)
    1e60:	18001c26 	beq	r3,zero,1ed4 <alt_tse_mac_group_init+0x134>
    1e64:	15400005 	stb	r21,0(r2)
    1e68:	84000044 	addi	r16,r16,1
    1e6c:	8421883a 	add	r16,r16,r16
    1e70:	b8c00003 	ldbu	r3,0(r23)
    1e74:	8421883a 	add	r16,r16,r16
    1e78:	bc09883a 	add	r4,r23,r16
    1e7c:	20800015 	stw	r2,0(r4)
    1e80:	e021883a 	mov	r16,fp
    1e84:	18803fcc 	andi	r2,r3,255
    1e88:	e7000044 	addi	fp,fp,1
    1e8c:	8080130e 	bge	r16,r2,1edc <alt_tse_mac_group_init+0x13c>
    1e90:	01000404 	movi	r4,16
    1e94:	001ae8c0 	call	1ae8c <malloc>
    1e98:	8c0d883a 	add	r6,r17,r16
    1e9c:	30c01224 	muli	r3,r6,72
    1ea0:	10003826 	beq	r2,zero,1f84 <alt_tse_mac_group_init+0x1e4>
    1ea4:	90c7883a 	add	r3,r18,r3
    1ea8:	19000517 	ldw	r4,20(r3)
    1eac:	15c00315 	stw	r23,12(r2)
    1eb0:	10000115 	stw	zero,4(r2)
    1eb4:	10c00215 	stw	r3,8(r2)
    1eb8:	20001f26 	beq	r4,zero,1f38 <alt_tse_mac_group_init+0x198>
    1ebc:	19000617 	ldw	r4,24(r3)
    1ec0:	20001d26 	beq	r4,zero,1f38 <alt_tse_mac_group_init+0x198>
    1ec4:	19000243 	ldbu	r4,9(r3)
    1ec8:	203fe41e 	bne	r4,zero,1e5c <alt_tse_mac_group_init+0xbc>
    1ecc:	10000005 	stb	zero,0(r2)
    1ed0:	003fe506 	br	1e68 <alt_tse_mac_group_init+0xc8>
    1ed4:	15000005 	stb	r20,0(r2)
    1ed8:	003fe306 	br	1e68 <alt_tse_mac_group_init+0xc8>
    1edc:	d0a02c03 	ldbu	r2,-32592(gp)
    1ee0:	d1200603 	ldbu	r4,-32744(gp)
    1ee4:	9cffffc4 	addi	r19,r19,-1
    1ee8:	11403fcc 	andi	r5,r2,255
    1eec:	294b883a 	add	r5,r5,r5
    1ef0:	294b883a 	add	r5,r5,r5
    1ef4:	b14b883a 	add	r5,r22,r5
    1ef8:	10800044 	addi	r2,r2,1
    1efc:	2dc00015 	stw	r23,0(r5)
    1f00:	d0a02c05 	stb	r2,-32592(gp)
    1f04:	98e7883a 	add	r19,r19,r3
    1f08:	9cc00044 	addi	r19,r19,1
    1f0c:	9c403fcc 	andi	r17,r19,255
    1f10:	8c40201c 	xori	r17,r17,128
    1f14:	8c7fe004 	addi	r17,r17,-128
    1f18:	893fb616 	blt	r17,r4,1df4 <alt_tse_mac_group_init+0x54>
    1f1c:	0005883a 	mov	r2,zero
    1f20:	00000a06 	br	1f4c <alt_tse_mac_group_init+0x1ac>
    1f24:	80800343 	ldbu	r2,13(r16)
    1f28:	10001426 	beq	r2,zero,1f7c <alt_tse_mac_group_init+0x1dc>
    1f2c:	80c00383 	ldbu	r3,14(r16)
    1f30:	b8c00005 	stb	r3,0(r23)
    1f34:	003fc306 	br	1e44 <alt_tse_mac_group_init+0xa4>
    1f38:	01000184 	movi	r4,6
    1f3c:	014000b4 	movhi	r5,2
    1f40:	29531e04 	addi	r5,r5,19576
    1f44:	00156600 	call	15660 <syslog>
    1f48:	00bfffc4 	movi	r2,-1
    1f4c:	dfc00917 	ldw	ra,36(sp)
    1f50:	df000817 	ldw	fp,32(sp)
    1f54:	ddc00717 	ldw	r23,28(sp)
    1f58:	dd800617 	ldw	r22,24(sp)
    1f5c:	dd400517 	ldw	r21,20(sp)
    1f60:	dd000417 	ldw	r20,16(sp)
    1f64:	dcc00317 	ldw	r19,12(sp)
    1f68:	dc800217 	ldw	r18,8(sp)
    1f6c:	dc400117 	ldw	r17,4(sp)
    1f70:	dc000017 	ldw	r16,0(sp)
    1f74:	dec00a04 	addi	sp,sp,40
    1f78:	f800283a 	ret
    1f7c:	bd000005 	stb	r20,0(r23)
    1f80:	003fb206 	br	1e4c <alt_tse_mac_group_init+0xac>
    1f84:	d1a02c03 	ldbu	r6,-32592(gp)
    1f88:	01000184 	movi	r4,6
    1f8c:	014000b4 	movhi	r5,2
    1f90:	29530c04 	addi	r5,r5,19504
    1f94:	800f883a 	mov	r7,r16
    1f98:	00156600 	call	15660 <syslog>
    1f9c:	00bfffc4 	movi	r2,-1
    1fa0:	003fea06 	br	1f4c <alt_tse_mac_group_init+0x1ac>
    1fa4:	d1a02c03 	ldbu	r6,-32592(gp)
    1fa8:	01000184 	movi	r4,6
    1fac:	014000b4 	movhi	r5,2
    1fb0:	2952fe04 	addi	r5,r5,19448
    1fb4:	00156600 	call	15660 <syslog>
    1fb8:	00bfffc4 	movi	r2,-1
    1fbc:	003fe306 	br	1f4c <alt_tse_mac_group_init+0x1ac>

00001fc0 <alt_tse_mac_associate_phy>:
    1fc0:	d1e02c03 	ldbu	r7,-32592(gp)
    1fc4:	defffe04 	addi	sp,sp,-8
    1fc8:	dfc00115 	stw	ra,4(sp)
    1fcc:	38000c26 	beq	r7,zero,2000 <alt_tse_mac_associate_phy+0x40>
    1fd0:	008000f4 	movhi	r2,3
    1fd4:	10a7f004 	addi	r2,r2,-24640
    1fd8:	10c00017 	ldw	r3,0(r2)
    1fdc:	20c09426 	beq	r4,r3,2230 <alt_tse_mac_associate_phy+0x270>
    1fe0:	10800104 	addi	r2,r2,4
    1fe4:	000d883a 	mov	r6,zero
    1fe8:	00000206 	br	1ff4 <alt_tse_mac_associate_phy+0x34>
    1fec:	10ffff17 	ldw	r3,-4(r2)
    1ff0:	20c07226 	beq	r4,r3,21bc <alt_tse_mac_associate_phy+0x1fc>
    1ff4:	31800044 	addi	r6,r6,1
    1ff8:	10800104 	addi	r2,r2,4
    1ffc:	31fffb16 	blt	r6,r7,1fec <alt_tse_mac_associate_phy+0x2c>
    2000:	01bfffc4 	movi	r6,-1
    2004:	23000003 	ldbu	r12,0(r4)
    2008:	60007026 	beq	r12,zero,21cc <alt_tse_mac_associate_phy+0x20c>
    200c:	22c00117 	ldw	r11,4(r4)
    2010:	2b400003 	ldbu	r13,0(r5)
    2014:	5a400217 	ldw	r9,8(r11)
    2018:	48801017 	ldw	r2,64(r9)
    201c:	13404226 	beq	r2,r13,2128 <alt_tse_mac_associate_phy+0x168>
    2020:	21000204 	addi	r4,r4,8
    2024:	2007883a 	mov	r3,r4
    2028:	0005883a 	mov	r2,zero
    202c:	00000506 	br	2044 <alt_tse_mac_associate_phy+0x84>
    2030:	1a000017 	ldw	r8,0(r3)
    2034:	18c00104 	addi	r3,r3,4
    2038:	42800217 	ldw	r10,8(r8)
    203c:	51c01017 	ldw	r7,64(r10)
    2040:	3b403b26 	beq	r7,r13,2130 <alt_tse_mac_associate_phy+0x170>
    2044:	10800044 	addi	r2,r2,1
    2048:	133ff916 	blt	r2,r12,2030 <alt_tse_mac_associate_phy+0x70>
    204c:	63000044 	addi	r12,r12,1
    2050:	00800044 	movi	r2,1
    2054:	01ffffc4 	movi	r7,-1
    2058:	48c00517 	ldw	r3,20(r9)
    205c:	10800044 	addi	r2,r2,1
    2060:	18000426 	beq	r3,zero,2074 <alt_tse_mac_associate_phy+0xb4>
    2064:	48c00617 	ldw	r3,24(r9)
    2068:	18000226 	beq	r3,zero,2074 <alt_tse_mac_associate_phy+0xb4>
    206c:	48c01017 	ldw	r3,64(r9)
    2070:	19c00526 	beq	r3,r7,2088 <alt_tse_mac_associate_phy+0xc8>
    2074:	13005526 	beq	r2,r12,21cc <alt_tse_mac_associate_phy+0x20c>
    2078:	22c00017 	ldw	r11,0(r4)
    207c:	21000104 	addi	r4,r4,4
    2080:	5a400217 	ldw	r9,8(r11)
    2084:	003ff406 	br	2058 <alt_tse_mac_associate_phy+0x98>
    2088:	58800317 	ldw	r2,12(r11)
    208c:	11000003 	ldbu	r4,0(r2)
    2090:	20000b26 	beq	r4,zero,20c0 <alt_tse_mac_associate_phy+0x100>
    2094:	10c00117 	ldw	r3,4(r2)
    2098:	1ac06926 	beq	r3,r11,2240 <alt_tse_mac_associate_phy+0x280>
    209c:	10800204 	addi	r2,r2,8
    20a0:	000f883a 	mov	r7,zero
    20a4:	00000206 	br	20b0 <alt_tse_mac_associate_phy+0xf0>
    20a8:	10ffff17 	ldw	r3,-4(r2)
    20ac:	1ac05826 	beq	r3,r11,2210 <alt_tse_mac_associate_phy+0x250>
    20b0:	39c00044 	addi	r7,r7,1
    20b4:	10800104 	addi	r2,r2,4
    20b8:	393ffb16 	blt	r7,r4,20a8 <alt_tse_mac_associate_phy+0xe8>
    20bc:	01ffffc4 	movi	r7,-1
    20c0:	d2200603 	ldbu	r8,-32744(gp)
    20c4:	40000a26 	beq	r8,zero,20f0 <alt_tse_mac_associate_phy+0x130>
    20c8:	010000f4 	movhi	r4,3
    20cc:	21246004 	addi	r4,r4,-28288
    20d0:	0005883a 	mov	r2,zero
    20d4:	4900031e 	bne	r9,r4,20e4 <alt_tse_mac_associate_phy+0x124>
    20d8:	00000606 	br	20f4 <alt_tse_mac_associate_phy+0x134>
    20dc:	20c7883a 	add	r3,r4,r3
    20e0:	48c04f26 	beq	r9,r3,2220 <alt_tse_mac_associate_phy+0x260>
    20e4:	10800044 	addi	r2,r2,1
    20e8:	10c01224 	muli	r3,r2,72
    20ec:	123ffb16 	blt	r2,r8,20dc <alt_tse_mac_associate_phy+0x11c>
    20f0:	00bfffc4 	movi	r2,-1
    20f4:	59400115 	stw	r5,4(r11)
    20f8:	28c00003 	ldbu	r3,0(r5)
    20fc:	2ac00615 	stw	r11,24(r5)
    2100:	01000184 	movi	r4,6
    2104:	48c01015 	stw	r3,64(r9)
    2108:	d8800015 	stw	r2,0(sp)
    210c:	014000b4 	movhi	r5,2
    2110:	29533d04 	addi	r5,r5,19700
    2114:	00156600 	call	15660 <syslog>
    2118:	0005883a 	mov	r2,zero
    211c:	dfc00117 	ldw	ra,4(sp)
    2120:	dec00204 	addi	sp,sp,8
    2124:	f800283a 	ret
    2128:	4815883a 	mov	r10,r9
    212c:	5811883a 	mov	r8,r11
    2130:	40800317 	ldw	r2,12(r8)
    2134:	11000003 	ldbu	r4,0(r2)
    2138:	20000a26 	beq	r4,zero,2164 <alt_tse_mac_associate_phy+0x1a4>
    213c:	10c00117 	ldw	r3,4(r2)
    2140:	40c03d26 	beq	r8,r3,2238 <alt_tse_mac_associate_phy+0x278>
    2144:	10800204 	addi	r2,r2,8
    2148:	000f883a 	mov	r7,zero
    214c:	00000206 	br	2158 <alt_tse_mac_associate_phy+0x198>
    2150:	10ffff17 	ldw	r3,-4(r2)
    2154:	40c02626 	beq	r8,r3,21f0 <alt_tse_mac_associate_phy+0x230>
    2158:	39c00044 	addi	r7,r7,1
    215c:	10800104 	addi	r2,r2,4
    2160:	393ffb16 	blt	r7,r4,2150 <alt_tse_mac_associate_phy+0x190>
    2164:	01ffffc4 	movi	r7,-1
    2168:	d2600603 	ldbu	r9,-32744(gp)
    216c:	48000a26 	beq	r9,zero,2198 <alt_tse_mac_associate_phy+0x1d8>
    2170:	010000f4 	movhi	r4,3
    2174:	21246004 	addi	r4,r4,-28288
    2178:	0005883a 	mov	r2,zero
    217c:	5100031e 	bne	r10,r4,218c <alt_tse_mac_associate_phy+0x1cc>
    2180:	00000606 	br	219c <alt_tse_mac_associate_phy+0x1dc>
    2184:	20c7883a 	add	r3,r4,r3
    2188:	50c01d26 	beq	r10,r3,2200 <alt_tse_mac_associate_phy+0x240>
    218c:	10800044 	addi	r2,r2,1
    2190:	10c01224 	muli	r3,r2,72
    2194:	127ffb16 	blt	r2,r9,2184 <alt_tse_mac_associate_phy+0x1c4>
    2198:	00bfffc4 	movi	r2,-1
    219c:	41400115 	stw	r5,4(r8)
    21a0:	2a000615 	stw	r8,24(r5)
    21a4:	d8800015 	stw	r2,0(sp)
    21a8:	01000184 	movi	r4,6
    21ac:	014000b4 	movhi	r5,2
    21b0:	29532d04 	addi	r5,r5,19636
    21b4:	00156600 	call	15660 <syslog>
    21b8:	003fd706 	br	2118 <alt_tse_mac_associate_phy+0x158>
    21bc:	31803fcc 	andi	r6,r6,255
    21c0:	3180201c 	xori	r6,r6,128
    21c4:	31bfe004 	addi	r6,r6,-128
    21c8:	003f8e06 	br	2004 <alt_tse_mac_associate_phy+0x44>
    21cc:	28000615 	stw	zero,24(r5)
    21d0:	01000184 	movi	r4,6
    21d4:	014000b4 	movhi	r5,2
    21d8:	29534e04 	addi	r5,r5,19768
    21dc:	00156600 	call	15660 <syslog>
    21e0:	00bfffc4 	movi	r2,-1
    21e4:	dfc00117 	ldw	ra,4(sp)
    21e8:	dec00204 	addi	sp,sp,8
    21ec:	f800283a 	ret
    21f0:	39c03fcc 	andi	r7,r7,255
    21f4:	39c0201c 	xori	r7,r7,128
    21f8:	39ffe004 	addi	r7,r7,-128
    21fc:	003fda06 	br	2168 <alt_tse_mac_associate_phy+0x1a8>
    2200:	10803fcc 	andi	r2,r2,255
    2204:	1080201c 	xori	r2,r2,128
    2208:	10bfe004 	addi	r2,r2,-128
    220c:	003fe306 	br	219c <alt_tse_mac_associate_phy+0x1dc>
    2210:	39c03fcc 	andi	r7,r7,255
    2214:	39c0201c 	xori	r7,r7,128
    2218:	39ffe004 	addi	r7,r7,-128
    221c:	003fa806 	br	20c0 <alt_tse_mac_associate_phy+0x100>
    2220:	10803fcc 	andi	r2,r2,255
    2224:	1080201c 	xori	r2,r2,128
    2228:	10bfe004 	addi	r2,r2,-128
    222c:	003fb106 	br	20f4 <alt_tse_mac_associate_phy+0x134>
    2230:	000d883a 	mov	r6,zero
    2234:	003f7306 	br	2004 <alt_tse_mac_associate_phy+0x44>
    2238:	000f883a 	mov	r7,zero
    223c:	003fca06 	br	2168 <alt_tse_mac_associate_phy+0x1a8>
    2240:	000f883a 	mov	r7,zero
    2244:	003f9e06 	br	20c0 <alt_tse_mac_associate_phy+0x100>
    2248:	0001883a 	nop
    224c:	0001883a 	nop
    2250:	0001883a 	nop
    2254:	0001883a 	nop
    2258:	0001883a 	nop
    225c:	0001883a 	nop

00002260 <alt_tse_phy_cfg_pcs>:
    2260:	21400317 	ldw	r5,12(r4)
    2264:	defffa04 	addi	sp,sp,-24
    2268:	dc400115 	stw	r17,4(sp)
    226c:	dc000015 	stw	r16,0(sp)
    2270:	dfc00515 	stw	ra,20(sp)
    2274:	dd000415 	stw	r20,16(sp)
    2278:	dcc00315 	stw	r19,12(sp)
    227c:	dc800215 	stw	r18,8(sp)
    2280:	24000217 	ldw	r16,8(r4)
    2284:	29800003 	ldbu	r6,0(r5)
    2288:	84400017 	ldw	r17,0(r16)
    228c:	30000a26 	beq	r6,zero,22b8 <alt_tse_phy_cfg_pcs+0x58>
    2290:	28800117 	ldw	r2,4(r5)
    2294:	20804526 	beq	r4,r2,23ac <alt_tse_phy_cfg_pcs+0x14c>
    2298:	28800204 	addi	r2,r5,8
    229c:	000f883a 	mov	r7,zero
    22a0:	00000206 	br	22ac <alt_tse_phy_cfg_pcs+0x4c>
    22a4:	10ffff17 	ldw	r3,-4(r2)
    22a8:	20c00426 	beq	r4,r3,22bc <alt_tse_phy_cfg_pcs+0x5c>
    22ac:	39c00044 	addi	r7,r7,1
    22b0:	10800104 	addi	r2,r2,4
    22b4:	39bffb16 	blt	r7,r6,22a4 <alt_tse_phy_cfg_pcs+0x44>
    22b8:	01ffffc4 	movi	r7,-1
    22bc:	d1202c03 	ldbu	r4,-32592(gp)
    22c0:	20000c26 	beq	r4,zero,22f4 <alt_tse_phy_cfg_pcs+0x94>
    22c4:	008000f4 	movhi	r2,3
    22c8:	10a7f004 	addi	r2,r2,-24640
    22cc:	10c00017 	ldw	r3,0(r2)
    22d0:	28c03826 	beq	r5,r3,23b4 <alt_tse_phy_cfg_pcs+0x154>
    22d4:	10800104 	addi	r2,r2,4
    22d8:	000d883a 	mov	r6,zero
    22dc:	00000206 	br	22e8 <alt_tse_phy_cfg_pcs+0x88>
    22e0:	10ffff17 	ldw	r3,-4(r2)
    22e4:	28c00426 	beq	r5,r3,22f8 <alt_tse_phy_cfg_pcs+0x98>
    22e8:	31800044 	addi	r6,r6,1
    22ec:	10800104 	addi	r2,r2,4
    22f0:	313ffb16 	blt	r6,r4,22e0 <alt_tse_phy_cfg_pcs+0x80>
    22f4:	01bfffc4 	movi	r6,-1
    22f8:	808003c3 	ldbu	r2,15(r16)
    22fc:	1000091e 	bne	r2,zero,2324 <alt_tse_phy_cfg_pcs+0xc4>
    2300:	0005883a 	mov	r2,zero
    2304:	dfc00517 	ldw	ra,20(sp)
    2308:	dd000417 	ldw	r20,16(sp)
    230c:	dcc00317 	ldw	r19,12(sp)
    2310:	dc800217 	ldw	r18,8(sp)
    2314:	dc400117 	ldw	r17,4(sp)
    2318:	dc000017 	ldw	r16,0(sp)
    231c:	dec00604 	addi	sp,sp,24
    2320:	f800283a 	ret
    2324:	34c03fcc 	andi	r19,r6,255
    2328:	3c803fcc 	andi	r18,r7,255
    232c:	9cc0201c 	xori	r19,r19,128
    2330:	9480201c 	xori	r18,r18,128
    2334:	9cffe004 	addi	r19,r19,-128
    2338:	94bfe004 	addi	r18,r18,-128
    233c:	01000184 	movi	r4,6
    2340:	014000b4 	movhi	r5,2
    2344:	29537f04 	addi	r5,r5,19964
    2348:	980d883a 	mov	r6,r19
    234c:	900f883a 	mov	r7,r18
    2350:	00156600 	call	15660 <syslog>
    2354:	8c409404 	addi	r17,r17,592
    2358:	8d000037 	ldwio	r20,0(r17)
    235c:	01000184 	movi	r4,6
    2360:	80800403 	ldbu	r2,16(r16)
    2364:	1000091e 	bne	r2,zero,238c <alt_tse_phy_cfg_pcs+0x12c>
    2368:	014000b4 	movhi	r5,2
    236c:	29539904 	addi	r5,r5,20068
    2370:	980d883a 	mov	r6,r19
    2374:	900f883a 	mov	r7,r18
    2378:	00156600 	call	15660 <syslog>
    237c:	00bfff04 	movi	r2,-4
    2380:	a0a8703a 	and	r20,r20,r2
    2384:	8d000035 	stwio	r20,0(r17)
    2388:	003fdd06 	br	2300 <alt_tse_phy_cfg_pcs+0xa0>
    238c:	014000b4 	movhi	r5,2
    2390:	29538d04 	addi	r5,r5,20020
    2394:	980d883a 	mov	r6,r19
    2398:	900f883a 	mov	r7,r18
    239c:	00156600 	call	15660 <syslog>
    23a0:	a50000d4 	ori	r20,r20,3
    23a4:	8d000035 	stwio	r20,0(r17)
    23a8:	003fd506 	br	2300 <alt_tse_phy_cfg_pcs+0xa0>
    23ac:	000f883a 	mov	r7,zero
    23b0:	003fc206 	br	22bc <alt_tse_phy_cfg_pcs+0x5c>
    23b4:	000d883a 	mov	r6,zero
    23b8:	003fcf06 	br	22f8 <alt_tse_phy_cfg_pcs+0x98>
    23bc:	0001883a 	nop

000023c0 <alt_tse_phy_restart_an>:
    23c0:	22000617 	ldw	r8,24(r4)
    23c4:	defff804 	addi	sp,sp,-32
    23c8:	dc400215 	stw	r17,8(sp)
    23cc:	2023883a 	mov	r17,r4
    23d0:	41000317 	ldw	r4,12(r8)
    23d4:	dc800315 	stw	r18,12(sp)
    23d8:	dfc00715 	stw	ra,28(sp)
    23dc:	dd400615 	stw	r21,24(sp)
    23e0:	dd000515 	stw	r20,20(sp)
    23e4:	dcc00415 	stw	r19,16(sp)
    23e8:	dc000115 	stw	r16,4(sp)
    23ec:	2825883a 	mov	r18,r5
    23f0:	21400003 	ldbu	r5,0(r4)
    23f4:	22400117 	ldw	r9,4(r4)
    23f8:	28000926 	beq	r5,zero,2420 <alt_tse_phy_restart_an+0x60>
    23fc:	42407226 	beq	r8,r9,25c8 <alt_tse_phy_restart_an+0x208>
    2400:	20800204 	addi	r2,r4,8
    2404:	000f883a 	mov	r7,zero
    2408:	00000206 	br	2414 <alt_tse_phy_restart_an+0x54>
    240c:	10ffff17 	ldw	r3,-4(r2)
    2410:	40c05626 	beq	r8,r3,256c <alt_tse_phy_restart_an+0x1ac>
    2414:	39c00044 	addi	r7,r7,1
    2418:	10800104 	addi	r2,r2,4
    241c:	397ffb16 	blt	r7,r5,240c <alt_tse_phy_restart_an+0x4c>
    2420:	04ffffc4 	movi	r19,-1
    2424:	d1602c03 	ldbu	r5,-32592(gp)
    2428:	28000c26 	beq	r5,zero,245c <alt_tse_phy_restart_an+0x9c>
    242c:	008000f4 	movhi	r2,3
    2430:	10a7f004 	addi	r2,r2,-24640
    2434:	10c00017 	ldw	r3,0(r2)
    2438:	20c06526 	beq	r4,r3,25d0 <alt_tse_phy_restart_an+0x210>
    243c:	10800104 	addi	r2,r2,4
    2440:	000d883a 	mov	r6,zero
    2444:	00000206 	br	2450 <alt_tse_phy_restart_an+0x90>
    2448:	10ffff17 	ldw	r3,-4(r2)
    244c:	20c04b26 	beq	r4,r3,257c <alt_tse_phy_restart_an+0x1bc>
    2450:	31800044 	addi	r6,r6,1
    2454:	10800104 	addi	r2,r2,4
    2458:	317ffb16 	blt	r6,r5,2448 <alt_tse_phy_restart_an+0x88>
    245c:	053fffc4 	movi	r20,-1
    2460:	48800217 	ldw	r2,8(r9)
    2464:	10800017 	ldw	r2,0(r2)
    2468:	15401037 	ldwio	r21,64(r2)
    246c:	40800317 	ldw	r2,12(r8)
    2470:	88c00003 	ldbu	r3,0(r17)
    2474:	10800117 	ldw	r2,4(r2)
    2478:	10800217 	ldw	r2,8(r2)
    247c:	10800017 	ldw	r2,0(r2)
    2480:	10c01035 	stwio	r3,64(r2)
    2484:	04000044 	movi	r16,1
    2488:	8809883a 	mov	r4,r17
    248c:	800b883a 	mov	r5,r16
    2490:	018000c4 	movi	r6,3
    2494:	800f883a 	mov	r7,r16
    2498:	0001ae00 	call	1ae0 <alt_tse_phy_rd_mdio_reg>
    249c:	10004e26 	beq	r2,zero,25d8 <alt_tse_phy_restart_an+0x218>
    24a0:	800f883a 	mov	r7,r16
    24a4:	8809883a 	mov	r4,r17
    24a8:	000b883a 	mov	r5,zero
    24ac:	01800304 	movi	r6,12
    24b0:	dc000015 	stw	r16,0(sp)
    24b4:	0001a400 	call	1a40 <alt_tse_phy_wr_mdio_reg>
    24b8:	800f883a 	mov	r7,r16
    24bc:	8809883a 	mov	r4,r17
    24c0:	000b883a 	mov	r5,zero
    24c4:	01800244 	movi	r6,9
    24c8:	dc000015 	stw	r16,0(sp)
    24cc:	0001a400 	call	1a40 <alt_tse_phy_wr_mdio_reg>
    24d0:	01000184 	movi	r4,6
    24d4:	014000b4 	movhi	r5,2
    24d8:	2953b504 	addi	r5,r5,20180
    24dc:	a00d883a 	mov	r6,r20
    24e0:	980f883a 	mov	r7,r19
    24e4:	00156600 	call	15660 <syslog>
    24e8:	0021883a 	mov	r16,zero
    24ec:	01400044 	movi	r5,1
    24f0:	8809883a 	mov	r4,r17
    24f4:	01800144 	movi	r6,5
    24f8:	280f883a 	mov	r7,r5
    24fc:	8161883a 	add	r16,r16,r5
    2500:	0001ae00 	call	1ae0 <alt_tse_phy_rd_mdio_reg>
    2504:	80ffffc4 	addi	r3,r16,-1
    2508:	1000201e 	bne	r2,zero,258c <alt_tse_phy_restart_an+0x1cc>
    250c:	90fff72e 	bgeu	r18,r3,24ec <alt_tse_phy_restart_an+0x12c>
    2510:	01000184 	movi	r4,6
    2514:	014000b4 	movhi	r5,2
    2518:	2953c704 	addi	r5,r5,20252
    251c:	a00d883a 	mov	r6,r20
    2520:	980f883a 	mov	r7,r19
    2524:	00156600 	call	15660 <syslog>
    2528:	88800617 	ldw	r2,24(r17)
    252c:	ad403fcc 	andi	r21,r21,255
    2530:	10800317 	ldw	r2,12(r2)
    2534:	10800117 	ldw	r2,4(r2)
    2538:	10800217 	ldw	r2,8(r2)
    253c:	10800017 	ldw	r2,0(r2)
    2540:	15401035 	stwio	r21,64(r2)
    2544:	00bfffc4 	movi	r2,-1
    2548:	dfc00717 	ldw	ra,28(sp)
    254c:	dd400617 	ldw	r21,24(sp)
    2550:	dd000517 	ldw	r20,20(sp)
    2554:	dcc00417 	ldw	r19,16(sp)
    2558:	dc800317 	ldw	r18,12(sp)
    255c:	dc400217 	ldw	r17,8(sp)
    2560:	dc000117 	ldw	r16,4(sp)
    2564:	dec00804 	addi	sp,sp,32
    2568:	f800283a 	ret
    256c:	3cc03fcc 	andi	r19,r7,255
    2570:	9cc0201c 	xori	r19,r19,128
    2574:	9cffe004 	addi	r19,r19,-128
    2578:	003faa06 	br	2424 <alt_tse_phy_restart_an+0x64>
    257c:	35003fcc 	andi	r20,r6,255
    2580:	a500201c 	xori	r20,r20,128
    2584:	a53fe004 	addi	r20,r20,-128
    2588:	003fb506 	br	2460 <alt_tse_phy_restart_an+0xa0>
    258c:	01000184 	movi	r4,6
    2590:	014000b4 	movhi	r5,2
    2594:	2953d304 	addi	r5,r5,20300
    2598:	a00d883a 	mov	r6,r20
    259c:	980f883a 	mov	r7,r19
    25a0:	00156600 	call	15660 <syslog>
    25a4:	88800617 	ldw	r2,24(r17)
    25a8:	ad403fcc 	andi	r21,r21,255
    25ac:	10800317 	ldw	r2,12(r2)
    25b0:	10800117 	ldw	r2,4(r2)
    25b4:	10800217 	ldw	r2,8(r2)
    25b8:	10800017 	ldw	r2,0(r2)
    25bc:	15401035 	stwio	r21,64(r2)
    25c0:	0005883a 	mov	r2,zero
    25c4:	003fe006 	br	2548 <alt_tse_phy_restart_an+0x188>
    25c8:	0027883a 	mov	r19,zero
    25cc:	003f9506 	br	2424 <alt_tse_phy_restart_an+0x64>
    25d0:	0029883a 	mov	r20,zero
    25d4:	003fa206 	br	2460 <alt_tse_phy_restart_an+0xa0>
    25d8:	01000184 	movi	r4,6
    25dc:	014000b4 	movhi	r5,2
    25e0:	2953a504 	addi	r5,r5,20116
    25e4:	a00d883a 	mov	r6,r20
    25e8:	980f883a 	mov	r7,r19
    25ec:	00156600 	call	15660 <syslog>
    25f0:	88800617 	ldw	r2,24(r17)
    25f4:	ad403fcc 	andi	r21,r21,255
    25f8:	10800317 	ldw	r2,12(r2)
    25fc:	10800117 	ldw	r2,4(r2)
    2600:	10800217 	ldw	r2,8(r2)
    2604:	10800017 	ldw	r2,0(r2)
    2608:	15401035 	stwio	r21,64(r2)
    260c:	00bfff84 	movi	r2,-2
    2610:	003fcd06 	br	2548 <alt_tse_phy_restart_an+0x188>
    2614:	0001883a 	nop
    2618:	0001883a 	nop
    261c:	0001883a 	nop

00002620 <alt_tse_phy_check_link>:
    2620:	defff904 	addi	sp,sp,-28
    2624:	dc000115 	stw	r16,4(sp)
    2628:	2021883a 	mov	r16,r4
    262c:	21000617 	ldw	r4,24(r4)
    2630:	dc400215 	stw	r17,8(sp)
    2634:	dfc00615 	stw	ra,24(sp)
    2638:	22000317 	ldw	r8,12(r4)
    263c:	dd000515 	stw	r20,20(sp)
    2640:	dcc00415 	stw	r19,16(sp)
    2644:	dc800315 	stw	r18,12(sp)
    2648:	2823883a 	mov	r17,r5
    264c:	41400003 	ldbu	r5,0(r8)
    2650:	42400117 	ldw	r9,4(r8)
    2654:	28000926 	beq	r5,zero,267c <alt_tse_phy_check_link+0x5c>
    2658:	22406e26 	beq	r4,r9,2814 <alt_tse_phy_check_link+0x1f4>
    265c:	40800204 	addi	r2,r8,8
    2660:	000f883a 	mov	r7,zero
    2664:	00000206 	br	2670 <alt_tse_phy_check_link+0x50>
    2668:	10ffff17 	ldw	r3,-4(r2)
    266c:	20c06326 	beq	r4,r3,27fc <alt_tse_phy_check_link+0x1dc>
    2670:	39c00044 	addi	r7,r7,1
    2674:	10800104 	addi	r2,r2,4
    2678:	397ffb16 	blt	r7,r5,2668 <alt_tse_phy_check_link+0x48>
    267c:	04bfffc4 	movi	r18,-1
    2680:	d1602c03 	ldbu	r5,-32592(gp)
    2684:	28000c26 	beq	r5,zero,26b8 <alt_tse_phy_check_link+0x98>
    2688:	008000f4 	movhi	r2,3
    268c:	10a7f004 	addi	r2,r2,-24640
    2690:	10c00017 	ldw	r3,0(r2)
    2694:	40c05d26 	beq	r8,r3,280c <alt_tse_phy_check_link+0x1ec>
    2698:	10800104 	addi	r2,r2,4
    269c:	000d883a 	mov	r6,zero
    26a0:	00000206 	br	26ac <alt_tse_phy_check_link+0x8c>
    26a4:	10ffff17 	ldw	r3,-4(r2)
    26a8:	40c05026 	beq	r8,r3,27ec <alt_tse_phy_check_link+0x1cc>
    26ac:	31800044 	addi	r6,r6,1
    26b0:	10800104 	addi	r2,r2,4
    26b4:	317ffb16 	blt	r6,r5,26a4 <alt_tse_phy_check_link+0x84>
    26b8:	04ffffc4 	movi	r19,-1
    26bc:	48800217 	ldw	r2,8(r9)
    26c0:	10800017 	ldw	r2,0(r2)
    26c4:	15001037 	ldwio	r20,64(r2)
    26c8:	20800317 	ldw	r2,12(r4)
    26cc:	80c00003 	ldbu	r3,0(r16)
    26d0:	10800117 	ldw	r2,4(r2)
    26d4:	10800217 	ldw	r2,8(r2)
    26d8:	10800017 	ldw	r2,0(r2)
    26dc:	10c01035 	stwio	r3,64(r2)
    26e0:	014000b4 	movhi	r5,2
    26e4:	2953df04 	addi	r5,r5,20348
    26e8:	980d883a 	mov	r6,r19
    26ec:	900f883a 	mov	r7,r18
    26f0:	01000184 	movi	r4,6
    26f4:	00156600 	call	15660 <syslog>
    26f8:	8009883a 	mov	r4,r16
    26fc:	000b883a 	mov	r5,zero
    2700:	01800384 	movi	r6,14
    2704:	01c00044 	movi	r7,1
    2708:	0001ae00 	call	1ae0 <alt_tse_phy_rd_mdio_reg>
    270c:	10001c1e 	bne	r2,zero,2780 <alt_tse_phy_check_link+0x160>
    2710:	01400044 	movi	r5,1
    2714:	8009883a 	mov	r4,r16
    2718:	01800144 	movi	r6,5
    271c:	280f883a 	mov	r7,r5
    2720:	0001ae00 	call	1ae0 <alt_tse_phy_rd_mdio_reg>
    2724:	10001626 	beq	r2,zero,2780 <alt_tse_phy_check_link+0x160>
    2728:	01000184 	movi	r4,6
    272c:	014000b4 	movhi	r5,2
    2730:	29540b04 	addi	r5,r5,20524
    2734:	980d883a 	mov	r6,r19
    2738:	900f883a 	mov	r7,r18
    273c:	00156600 	call	15660 <syslog>
    2740:	80800617 	ldw	r2,24(r16)
    2744:	a5003fcc 	andi	r20,r20,255
    2748:	10800317 	ldw	r2,12(r2)
    274c:	10800117 	ldw	r2,4(r2)
    2750:	10800217 	ldw	r2,8(r2)
    2754:	10800017 	ldw	r2,0(r2)
    2758:	15001035 	stwio	r20,64(r2)
    275c:	0005883a 	mov	r2,zero
    2760:	dfc00617 	ldw	ra,24(sp)
    2764:	dd000517 	ldw	r20,20(sp)
    2768:	dcc00417 	ldw	r19,16(sp)
    276c:	dc800317 	ldw	r18,12(sp)
    2770:	dc400217 	ldw	r17,8(sp)
    2774:	dc000117 	ldw	r16,4(sp)
    2778:	dec00704 	addi	sp,sp,28
    277c:	f800283a 	ret
    2780:	980d883a 	mov	r6,r19
    2784:	900f883a 	mov	r7,r18
    2788:	01000184 	movi	r4,6
    278c:	014000b4 	movhi	r5,2
    2790:	2953ea04 	addi	r5,r5,20392
    2794:	00156600 	call	15660 <syslog>
    2798:	8009883a 	mov	r4,r16
    279c:	880b883a 	mov	r5,r17
    27a0:	00023c00 	call	23c0 <alt_tse_phy_restart_an>
    27a4:	00ffffc4 	movi	r3,-1
    27a8:	10ffdf1e 	bne	r2,r3,2728 <alt_tse_phy_check_link+0x108>
    27ac:	01000184 	movi	r4,6
    27b0:	014000b4 	movhi	r5,2
    27b4:	2953fe04 	addi	r5,r5,20472
    27b8:	980d883a 	mov	r6,r19
    27bc:	900f883a 	mov	r7,r18
    27c0:	d8800015 	stw	r2,0(sp)
    27c4:	00156600 	call	15660 <syslog>
    27c8:	80c00617 	ldw	r3,24(r16)
    27cc:	a5003fcc 	andi	r20,r20,255
    27d0:	18c00317 	ldw	r3,12(r3)
    27d4:	18c00117 	ldw	r3,4(r3)
    27d8:	18c00217 	ldw	r3,8(r3)
    27dc:	18c00017 	ldw	r3,0(r3)
    27e0:	1d001035 	stwio	r20,64(r3)
    27e4:	d8800017 	ldw	r2,0(sp)
    27e8:	003fdd06 	br	2760 <alt_tse_phy_check_link+0x140>
    27ec:	34c03fcc 	andi	r19,r6,255
    27f0:	9cc0201c 	xori	r19,r19,128
    27f4:	9cffe004 	addi	r19,r19,-128
    27f8:	003fb006 	br	26bc <alt_tse_phy_check_link+0x9c>
    27fc:	3c803fcc 	andi	r18,r7,255
    2800:	9480201c 	xori	r18,r18,128
    2804:	94bfe004 	addi	r18,r18,-128
    2808:	003f9d06 	br	2680 <alt_tse_phy_check_link+0x60>
    280c:	0027883a 	mov	r19,zero
    2810:	003faa06 	br	26bc <alt_tse_phy_check_link+0x9c>
    2814:	0025883a 	mov	r18,zero
    2818:	003f9906 	br	2680 <alt_tse_phy_check_link+0x60>
    281c:	0001883a 	nop

00002820 <alt_tse_phy_get_cap>:
    2820:	22000617 	ldw	r8,24(r4)
    2824:	defffb04 	addi	sp,sp,-20
    2828:	dc000015 	stw	r16,0(sp)
    282c:	41400317 	ldw	r5,12(r8)
    2830:	dfc00415 	stw	ra,16(sp)
    2834:	dcc00315 	stw	r19,12(sp)
    2838:	dc800215 	stw	r18,8(sp)
    283c:	dc400115 	stw	r17,4(sp)
    2840:	29800003 	ldbu	r6,0(r5)
    2844:	2021883a 	mov	r16,r4
    2848:	2a400117 	ldw	r9,4(r5)
    284c:	30000926 	beq	r6,zero,2874 <alt_tse_phy_get_cap+0x54>
    2850:	4240b326 	beq	r8,r9,2b20 <alt_tse_phy_get_cap+0x300>
    2854:	28c00204 	addi	r3,r5,8
    2858:	0005883a 	mov	r2,zero
    285c:	00000206 	br	2868 <alt_tse_phy_get_cap+0x48>
    2860:	193fff17 	ldw	r4,-4(r3)
    2864:	4100a826 	beq	r8,r4,2b08 <alt_tse_phy_get_cap+0x2e8>
    2868:	10800044 	addi	r2,r2,1
    286c:	18c00104 	addi	r3,r3,4
    2870:	11bffb16 	blt	r2,r6,2860 <alt_tse_phy_get_cap+0x40>
    2874:	047fffc4 	movi	r17,-1
    2878:	d1a02c03 	ldbu	r6,-32592(gp)
    287c:	30000c26 	beq	r6,zero,28b0 <alt_tse_phy_get_cap+0x90>
    2880:	00c000f4 	movhi	r3,3
    2884:	18e7f004 	addi	r3,r3,-24640
    2888:	18800017 	ldw	r2,0(r3)
    288c:	2880a226 	beq	r5,r2,2b18 <alt_tse_phy_get_cap+0x2f8>
    2890:	18c00104 	addi	r3,r3,4
    2894:	0005883a 	mov	r2,zero
    2898:	00000206 	br	28a4 <alt_tse_phy_get_cap+0x84>
    289c:	193fff17 	ldw	r4,-4(r3)
    28a0:	29009b26 	beq	r5,r4,2b10 <alt_tse_phy_get_cap+0x2f0>
    28a4:	10800044 	addi	r2,r2,1
    28a8:	18c00104 	addi	r3,r3,4
    28ac:	11bffb16 	blt	r2,r6,289c <alt_tse_phy_get_cap+0x7c>
    28b0:	04ffffc4 	movi	r19,-1
    28b4:	48800217 	ldw	r2,8(r9)
    28b8:	10800017 	ldw	r2,0(r2)
    28bc:	14801037 	ldwio	r18,64(r2)
    28c0:	40800317 	ldw	r2,12(r8)
    28c4:	81000003 	ldbu	r4,0(r16)
    28c8:	10800117 	ldw	r2,4(r2)
    28cc:	10c00217 	ldw	r3,8(r2)
    28d0:	18c00017 	ldw	r3,0(r3)
    28d4:	19001035 	stwio	r4,64(r3)
    28d8:	01400044 	movi	r5,1
    28dc:	8009883a 	mov	r4,r16
    28e0:	018000c4 	movi	r6,3
    28e4:	280f883a 	mov	r7,r5
    28e8:	0001ae00 	call	1ae0 <alt_tse_phy_rd_mdio_reg>
    28ec:	10008e26 	beq	r2,zero,2b28 <alt_tse_phy_get_cap+0x308>
    28f0:	8009883a 	mov	r4,r16
    28f4:	01400134 	movhi	r5,4
    28f8:	29742404 	addi	r5,r5,-12144
    28fc:	00023c00 	call	23c0 <alt_tse_phy_restart_an>
    2900:	01400044 	movi	r5,1
    2904:	8009883a 	mov	r4,r16
    2908:	280f883a 	mov	r7,r5
    290c:	01800144 	movi	r6,5
    2910:	0001ae00 	call	1ae0 <alt_tse_phy_rd_mdio_reg>
    2914:	014003c4 	movi	r5,15
    2918:	8009883a 	mov	r4,r16
    291c:	280d883a 	mov	r6,r5
    2920:	01c00044 	movi	r7,1
    2924:	1023003a 	cmpeq	r17,r2,zero
    2928:	0001ae00 	call	1ae0 <alt_tse_phy_rd_mdio_reg>
    292c:	8009883a 	mov	r4,r16
    2930:	80800045 	stb	r2,1(r16)
    2934:	014003c4 	movi	r5,15
    2938:	01800384 	movi	r6,14
    293c:	01c00044 	movi	r7,1
    2940:	0001ae00 	call	1ae0 <alt_tse_phy_rd_mdio_reg>
    2944:	8009883a 	mov	r4,r16
    2948:	80800085 	stb	r2,2(r16)
    294c:	014003c4 	movi	r5,15
    2950:	01800344 	movi	r6,13
    2954:	01c00044 	movi	r7,1
    2958:	0001ae00 	call	1ae0 <alt_tse_phy_rd_mdio_reg>
    295c:	8009883a 	mov	r4,r16
    2960:	808000c5 	stb	r2,3(r16)
    2964:	014003c4 	movi	r5,15
    2968:	01800304 	movi	r6,12
    296c:	01c00044 	movi	r7,1
    2970:	0001ae00 	call	1ae0 <alt_tse_phy_rd_mdio_reg>
    2974:	01400044 	movi	r5,1
    2978:	8009883a 	mov	r4,r16
    297c:	280f883a 	mov	r7,r5
    2980:	80800105 	stb	r2,4(r16)
    2984:	018003c4 	movi	r6,15
    2988:	0001ae00 	call	1ae0 <alt_tse_phy_rd_mdio_reg>
    298c:	01400044 	movi	r5,1
    2990:	8009883a 	mov	r4,r16
    2994:	280f883a 	mov	r7,r5
    2998:	80800145 	stb	r2,5(r16)
    299c:	01800384 	movi	r6,14
    29a0:	0001ae00 	call	1ae0 <alt_tse_phy_rd_mdio_reg>
    29a4:	01400044 	movi	r5,1
    29a8:	8009883a 	mov	r4,r16
    29ac:	280f883a 	mov	r7,r5
    29b0:	80800185 	stb	r2,6(r16)
    29b4:	01800344 	movi	r6,13
    29b8:	0001ae00 	call	1ae0 <alt_tse_phy_rd_mdio_reg>
    29bc:	01400044 	movi	r5,1
    29c0:	8009883a 	mov	r4,r16
    29c4:	280f883a 	mov	r7,r5
    29c8:	808001c5 	stb	r2,7(r16)
    29cc:	01800284 	movi	r6,10
    29d0:	0001ae00 	call	1ae0 <alt_tse_phy_rd_mdio_reg>
    29d4:	01400044 	movi	r5,1
    29d8:	8009883a 	mov	r4,r16
    29dc:	280f883a 	mov	r7,r5
    29e0:	80800205 	stb	r2,8(r16)
    29e4:	01800244 	movi	r6,9
    29e8:	0001ae00 	call	1ae0 <alt_tse_phy_rd_mdio_reg>
    29ec:	01400044 	movi	r5,1
    29f0:	8009883a 	mov	r4,r16
    29f4:	280f883a 	mov	r7,r5
    29f8:	80800245 	stb	r2,9(r16)
    29fc:	01800304 	movi	r6,12
    2a00:	0001ae00 	call	1ae0 <alt_tse_phy_rd_mdio_reg>
    2a04:	01400044 	movi	r5,1
    2a08:	8009883a 	mov	r4,r16
    2a0c:	280f883a 	mov	r7,r5
    2a10:	80800285 	stb	r2,10(r16)
    2a14:	018002c4 	movi	r6,11
    2a18:	0001ae00 	call	1ae0 <alt_tse_phy_rd_mdio_reg>
    2a1c:	8009883a 	mov	r4,r16
    2a20:	808002c5 	stb	r2,11(r16)
    2a24:	01400284 	movi	r5,10
    2a28:	018002c4 	movi	r6,11
    2a2c:	01c00044 	movi	r7,1
    2a30:	0001ae00 	call	1ae0 <alt_tse_phy_rd_mdio_reg>
    2a34:	01400284 	movi	r5,10
    2a38:	8009883a 	mov	r4,r16
    2a3c:	280d883a 	mov	r6,r5
    2a40:	80800305 	stb	r2,12(r16)
    2a44:	01c00044 	movi	r7,1
    2a48:	0001ae00 	call	1ae0 <alt_tse_phy_rd_mdio_reg>
    2a4c:	8009883a 	mov	r4,r16
    2a50:	80800345 	stb	r2,13(r16)
    2a54:	01400144 	movi	r5,5
    2a58:	01800244 	movi	r6,9
    2a5c:	01c00044 	movi	r7,1
    2a60:	0001ae00 	call	1ae0 <alt_tse_phy_rd_mdio_reg>
    2a64:	8009883a 	mov	r4,r16
    2a68:	80800385 	stb	r2,14(r16)
    2a6c:	01400144 	movi	r5,5
    2a70:	01800204 	movi	r6,8
    2a74:	01c00044 	movi	r7,1
    2a78:	0001ae00 	call	1ae0 <alt_tse_phy_rd_mdio_reg>
    2a7c:	8009883a 	mov	r4,r16
    2a80:	808003c5 	stb	r2,15(r16)
    2a84:	01400144 	movi	r5,5
    2a88:	018001c4 	movi	r6,7
    2a8c:	01c00044 	movi	r7,1
    2a90:	0001ae00 	call	1ae0 <alt_tse_phy_rd_mdio_reg>
    2a94:	8009883a 	mov	r4,r16
    2a98:	80800405 	stb	r2,16(r16)
    2a9c:	01400144 	movi	r5,5
    2aa0:	01800184 	movi	r6,6
    2aa4:	01c00044 	movi	r7,1
    2aa8:	0001ae00 	call	1ae0 <alt_tse_phy_rd_mdio_reg>
    2aac:	01400144 	movi	r5,5
    2ab0:	80800445 	stb	r2,17(r16)
    2ab4:	8009883a 	mov	r4,r16
    2ab8:	280d883a 	mov	r6,r5
    2abc:	01c00044 	movi	r7,1
    2ac0:	0001ae00 	call	1ae0 <alt_tse_phy_rd_mdio_reg>
    2ac4:	80c00617 	ldw	r3,24(r16)
    2ac8:	80800485 	stb	r2,18(r16)
    2acc:	0463c83a 	sub	r17,zero,r17
    2ad0:	18800317 	ldw	r2,12(r3)
    2ad4:	94803fcc 	andi	r18,r18,255
    2ad8:	10800117 	ldw	r2,4(r2)
    2adc:	10800217 	ldw	r2,8(r2)
    2ae0:	10800017 	ldw	r2,0(r2)
    2ae4:	14801035 	stwio	r18,64(r2)
    2ae8:	8805883a 	mov	r2,r17
    2aec:	dfc00417 	ldw	ra,16(sp)
    2af0:	dcc00317 	ldw	r19,12(sp)
    2af4:	dc800217 	ldw	r18,8(sp)
    2af8:	dc400117 	ldw	r17,4(sp)
    2afc:	dc000017 	ldw	r16,0(sp)
    2b00:	dec00504 	addi	sp,sp,20
    2b04:	f800283a 	ret
    2b08:	1023883a 	mov	r17,r2
    2b0c:	003f5a06 	br	2878 <alt_tse_phy_get_cap+0x58>
    2b10:	1027883a 	mov	r19,r2
    2b14:	003f6706 	br	28b4 <alt_tse_phy_get_cap+0x94>
    2b18:	0027883a 	mov	r19,zero
    2b1c:	003f6506 	br	28b4 <alt_tse_phy_get_cap+0x94>
    2b20:	0023883a 	mov	r17,zero
    2b24:	003f5406 	br	2878 <alt_tse_phy_get_cap+0x58>
    2b28:	99803fcc 	andi	r6,r19,255
    2b2c:	89c03fcc 	andi	r7,r17,255
    2b30:	3180201c 	xori	r6,r6,128
    2b34:	39c0201c 	xori	r7,r7,128
    2b38:	01000184 	movi	r4,6
    2b3c:	014000b4 	movhi	r5,2
    2b40:	2953a504 	addi	r5,r5,20116
    2b44:	31bfe004 	addi	r6,r6,-128
    2b48:	39ffe004 	addi	r7,r7,-128
    2b4c:	00156600 	call	15660 <syslog>
    2b50:	80800617 	ldw	r2,24(r16)
    2b54:	94803fcc 	andi	r18,r18,255
    2b58:	10800317 	ldw	r2,12(r2)
    2b5c:	10800117 	ldw	r2,4(r2)
    2b60:	10800217 	ldw	r2,8(r2)
    2b64:	10800017 	ldw	r2,0(r2)
    2b68:	14801035 	stwio	r18,64(r2)
    2b6c:	047fff84 	movi	r17,-2
    2b70:	003fdd06 	br	2ae8 <alt_tse_phy_get_cap+0x2c8>
    2b74:	0001883a 	nop
    2b78:	0001883a 	nop
    2b7c:	0001883a 	nop

00002b80 <alt_tse_phy_set_adv_1000>:
    2b80:	21c00617 	ldw	r7,24(r4)
    2b84:	defffc04 	addi	sp,sp,-16
    2b88:	dc000115 	stw	r16,4(sp)
    2b8c:	38c00317 	ldw	r3,12(r7)
    2b90:	dfc00315 	stw	ra,12(sp)
    2b94:	dc400215 	stw	r17,8(sp)
    2b98:	1a000003 	ldbu	r8,0(r3)
    2b9c:	2021883a 	mov	r16,r4
    2ba0:	19000117 	ldw	r4,4(r3)
    2ba4:	40000926 	beq	r8,zero,2bcc <alt_tse_phy_set_adv_1000+0x4c>
    2ba8:	39000826 	beq	r7,r4,2bcc <alt_tse_phy_set_adv_1000+0x4c>
    2bac:	18c00204 	addi	r3,r3,8
    2bb0:	0005883a 	mov	r2,zero
    2bb4:	00000206 	br	2bc0 <alt_tse_phy_set_adv_1000+0x40>
    2bb8:	19bfff17 	ldw	r6,-4(r3)
    2bbc:	39800326 	beq	r7,r6,2bcc <alt_tse_phy_set_adv_1000+0x4c>
    2bc0:	10800044 	addi	r2,r2,1
    2bc4:	18c00104 	addi	r3,r3,4
    2bc8:	123ffb16 	blt	r2,r8,2bb8 <alt_tse_phy_set_adv_1000+0x38>
    2bcc:	20800217 	ldw	r2,8(r4)
    2bd0:	10800017 	ldw	r2,0(r2)
    2bd4:	14401037 	ldwio	r17,64(r2)
    2bd8:	38800317 	ldw	r2,12(r7)
    2bdc:	80c00003 	ldbu	r3,0(r16)
    2be0:	10800117 	ldw	r2,4(r2)
    2be4:	10800217 	ldw	r2,8(r2)
    2be8:	10800017 	ldw	r2,0(r2)
    2bec:	10c01035 	stwio	r3,64(r2)
    2bf0:	29403fcc 	andi	r5,r5,255
    2bf4:	2800191e 	bne	r5,zero,2c5c <alt_tse_phy_set_adv_1000+0xdc>
    2bf8:	01400244 	movi	r5,9
    2bfc:	280d883a 	mov	r6,r5
    2c00:	8009883a 	mov	r4,r16
    2c04:	01c00044 	movi	r7,1
    2c08:	d8000015 	stw	zero,0(sp)
    2c0c:	0001a400 	call	1a40 <alt_tse_phy_wr_mdio_reg>
    2c10:	8009883a 	mov	r4,r16
    2c14:	d8000015 	stw	zero,0(sp)
    2c18:	01400244 	movi	r5,9
    2c1c:	01800204 	movi	r6,8
    2c20:	01c00044 	movi	r7,1
    2c24:	0001a400 	call	1a40 <alt_tse_phy_wr_mdio_reg>
    2c28:	80800617 	ldw	r2,24(r16)
    2c2c:	8c403fcc 	andi	r17,r17,255
    2c30:	10800317 	ldw	r2,12(r2)
    2c34:	10800117 	ldw	r2,4(r2)
    2c38:	10800217 	ldw	r2,8(r2)
    2c3c:	10800017 	ldw	r2,0(r2)
    2c40:	14401035 	stwio	r17,64(r2)
    2c44:	0005883a 	mov	r2,zero
    2c48:	dfc00317 	ldw	ra,12(sp)
    2c4c:	dc400217 	ldw	r17,8(sp)
    2c50:	dc000117 	ldw	r16,4(sp)
    2c54:	dec00404 	addi	sp,sp,16
    2c58:	f800283a 	ret
    2c5c:	8009883a 	mov	r4,r16
    2c60:	014003c4 	movi	r5,15
    2c64:	01800344 	movi	r6,13
    2c68:	01c00044 	movi	r7,1
    2c6c:	0001ae00 	call	1ae0 <alt_tse_phy_rd_mdio_reg>
    2c70:	01400244 	movi	r5,9
    2c74:	10803fcc 	andi	r2,r2,255
    2c78:	280d883a 	mov	r6,r5
    2c7c:	8009883a 	mov	r4,r16
    2c80:	d8800015 	stw	r2,0(sp)
    2c84:	01c00044 	movi	r7,1
    2c88:	0001a400 	call	1a40 <alt_tse_phy_wr_mdio_reg>
    2c8c:	8009883a 	mov	r4,r16
    2c90:	014003c4 	movi	r5,15
    2c94:	01800304 	movi	r6,12
    2c98:	01c00044 	movi	r7,1
    2c9c:	0001ae00 	call	1ae0 <alt_tse_phy_rd_mdio_reg>
    2ca0:	10803fcc 	andi	r2,r2,255
    2ca4:	d8800015 	stw	r2,0(sp)
    2ca8:	8009883a 	mov	r4,r16
    2cac:	01400244 	movi	r5,9
    2cb0:	01800204 	movi	r6,8
    2cb4:	01c00044 	movi	r7,1
    2cb8:	0001a400 	call	1a40 <alt_tse_phy_wr_mdio_reg>
    2cbc:	003fda06 	br	2c28 <alt_tse_phy_set_adv_1000+0xa8>

00002cc0 <alt_tse_phy_set_adv_100>:
    2cc0:	21c00617 	ldw	r7,24(r4)
    2cc4:	defffc04 	addi	sp,sp,-16
    2cc8:	dc000115 	stw	r16,4(sp)
    2ccc:	38c00317 	ldw	r3,12(r7)
    2cd0:	dfc00315 	stw	ra,12(sp)
    2cd4:	dc400215 	stw	r17,8(sp)
    2cd8:	1a000003 	ldbu	r8,0(r3)
    2cdc:	2021883a 	mov	r16,r4
    2ce0:	19000117 	ldw	r4,4(r3)
    2ce4:	40000926 	beq	r8,zero,2d0c <alt_tse_phy_set_adv_100+0x4c>
    2ce8:	39000826 	beq	r7,r4,2d0c <alt_tse_phy_set_adv_100+0x4c>
    2cec:	18c00204 	addi	r3,r3,8
    2cf0:	0005883a 	mov	r2,zero
    2cf4:	00000206 	br	2d00 <alt_tse_phy_set_adv_100+0x40>
    2cf8:	19bfff17 	ldw	r6,-4(r3)
    2cfc:	39800326 	beq	r7,r6,2d0c <alt_tse_phy_set_adv_100+0x4c>
    2d00:	10800044 	addi	r2,r2,1
    2d04:	18c00104 	addi	r3,r3,4
    2d08:	123ffb16 	blt	r2,r8,2cf8 <alt_tse_phy_set_adv_100+0x38>
    2d0c:	20800217 	ldw	r2,8(r4)
    2d10:	10800017 	ldw	r2,0(r2)
    2d14:	14401037 	ldwio	r17,64(r2)
    2d18:	38800317 	ldw	r2,12(r7)
    2d1c:	80c00003 	ldbu	r3,0(r16)
    2d20:	10800117 	ldw	r2,4(r2)
    2d24:	10800217 	ldw	r2,8(r2)
    2d28:	10800017 	ldw	r2,0(r2)
    2d2c:	10c01035 	stwio	r3,64(r2)
    2d30:	29403fcc 	andi	r5,r5,255
    2d34:	28001f1e 	bne	r5,zero,2db4 <alt_tse_phy_set_adv_100+0xf4>
    2d38:	8009883a 	mov	r4,r16
    2d3c:	01400104 	movi	r5,4
    2d40:	01800244 	movi	r6,9
    2d44:	01c00044 	movi	r7,1
    2d48:	d8000015 	stw	zero,0(sp)
    2d4c:	0001a400 	call	1a40 <alt_tse_phy_wr_mdio_reg>
    2d50:	8009883a 	mov	r4,r16
    2d54:	01400104 	movi	r5,4
    2d58:	01800204 	movi	r6,8
    2d5c:	01c00044 	movi	r7,1
    2d60:	d8000015 	stw	zero,0(sp)
    2d64:	0001a400 	call	1a40 <alt_tse_phy_wr_mdio_reg>
    2d68:	8009883a 	mov	r4,r16
    2d6c:	d8000015 	stw	zero,0(sp)
    2d70:	01400104 	movi	r5,4
    2d74:	018001c4 	movi	r6,7
    2d78:	01c00044 	movi	r7,1
    2d7c:	0001a400 	call	1a40 <alt_tse_phy_wr_mdio_reg>
    2d80:	80800617 	ldw	r2,24(r16)
    2d84:	8c403fcc 	andi	r17,r17,255
    2d88:	10800317 	ldw	r2,12(r2)
    2d8c:	10800117 	ldw	r2,4(r2)
    2d90:	10800217 	ldw	r2,8(r2)
    2d94:	10800017 	ldw	r2,0(r2)
    2d98:	14401035 	stwio	r17,64(r2)
    2d9c:	0005883a 	mov	r2,zero
    2da0:	dfc00317 	ldw	ra,12(sp)
    2da4:	dc400217 	ldw	r17,8(sp)
    2da8:	dc000117 	ldw	r16,4(sp)
    2dac:	dec00404 	addi	sp,sp,16
    2db0:	f800283a 	ret
    2db4:	01400044 	movi	r5,1
    2db8:	8009883a 	mov	r4,r16
    2dbc:	280f883a 	mov	r7,r5
    2dc0:	018003c4 	movi	r6,15
    2dc4:	0001ae00 	call	1ae0 <alt_tse_phy_rd_mdio_reg>
    2dc8:	10803fcc 	andi	r2,r2,255
    2dcc:	8009883a 	mov	r4,r16
    2dd0:	d8800015 	stw	r2,0(sp)
    2dd4:	01400104 	movi	r5,4
    2dd8:	01800244 	movi	r6,9
    2ddc:	01c00044 	movi	r7,1
    2de0:	0001a400 	call	1a40 <alt_tse_phy_wr_mdio_reg>
    2de4:	01400044 	movi	r5,1
    2de8:	8009883a 	mov	r4,r16
    2dec:	280f883a 	mov	r7,r5
    2df0:	01800384 	movi	r6,14
    2df4:	0001ae00 	call	1ae0 <alt_tse_phy_rd_mdio_reg>
    2df8:	10803fcc 	andi	r2,r2,255
    2dfc:	8009883a 	mov	r4,r16
    2e00:	d8800015 	stw	r2,0(sp)
    2e04:	01400104 	movi	r5,4
    2e08:	01800204 	movi	r6,8
    2e0c:	01c00044 	movi	r7,1
    2e10:	0001a400 	call	1a40 <alt_tse_phy_wr_mdio_reg>
    2e14:	01400044 	movi	r5,1
    2e18:	8009883a 	mov	r4,r16
    2e1c:	280f883a 	mov	r7,r5
    2e20:	01800344 	movi	r6,13
    2e24:	0001ae00 	call	1ae0 <alt_tse_phy_rd_mdio_reg>
    2e28:	10803fcc 	andi	r2,r2,255
    2e2c:	d8800015 	stw	r2,0(sp)
    2e30:	8009883a 	mov	r4,r16
    2e34:	01400104 	movi	r5,4
    2e38:	018001c4 	movi	r6,7
    2e3c:	01c00044 	movi	r7,1
    2e40:	0001a400 	call	1a40 <alt_tse_phy_wr_mdio_reg>
    2e44:	003fce06 	br	2d80 <alt_tse_phy_set_adv_100+0xc0>
    2e48:	0001883a 	nop
    2e4c:	0001883a 	nop
    2e50:	0001883a 	nop
    2e54:	0001883a 	nop
    2e58:	0001883a 	nop
    2e5c:	0001883a 	nop

00002e60 <alt_tse_phy_set_adv_10>:
    2e60:	21c00617 	ldw	r7,24(r4)
    2e64:	defffc04 	addi	sp,sp,-16
    2e68:	dc000115 	stw	r16,4(sp)
    2e6c:	38c00317 	ldw	r3,12(r7)
    2e70:	dfc00315 	stw	ra,12(sp)
    2e74:	dc400215 	stw	r17,8(sp)
    2e78:	1a000003 	ldbu	r8,0(r3)
    2e7c:	2021883a 	mov	r16,r4
    2e80:	19000117 	ldw	r4,4(r3)
    2e84:	40000926 	beq	r8,zero,2eac <alt_tse_phy_set_adv_10+0x4c>
    2e88:	39000826 	beq	r7,r4,2eac <alt_tse_phy_set_adv_10+0x4c>
    2e8c:	18c00204 	addi	r3,r3,8
    2e90:	0005883a 	mov	r2,zero
    2e94:	00000206 	br	2ea0 <alt_tse_phy_set_adv_10+0x40>
    2e98:	19bfff17 	ldw	r6,-4(r3)
    2e9c:	39800326 	beq	r7,r6,2eac <alt_tse_phy_set_adv_10+0x4c>
    2ea0:	10800044 	addi	r2,r2,1
    2ea4:	18c00104 	addi	r3,r3,4
    2ea8:	123ffb16 	blt	r2,r8,2e98 <alt_tse_phy_set_adv_10+0x38>
    2eac:	20800217 	ldw	r2,8(r4)
    2eb0:	10800017 	ldw	r2,0(r2)
    2eb4:	14401037 	ldwio	r17,64(r2)
    2eb8:	38800317 	ldw	r2,12(r7)
    2ebc:	80c00003 	ldbu	r3,0(r16)
    2ec0:	10800117 	ldw	r2,4(r2)
    2ec4:	10800217 	ldw	r2,8(r2)
    2ec8:	10800017 	ldw	r2,0(r2)
    2ecc:	10c01035 	stwio	r3,64(r2)
    2ed0:	29403fcc 	andi	r5,r5,255
    2ed4:	2800191e 	bne	r5,zero,2f3c <alt_tse_phy_set_adv_10+0xdc>
    2ed8:	8009883a 	mov	r4,r16
    2edc:	01400104 	movi	r5,4
    2ee0:	01800184 	movi	r6,6
    2ee4:	01c00044 	movi	r7,1
    2ee8:	d8000015 	stw	zero,0(sp)
    2eec:	0001a400 	call	1a40 <alt_tse_phy_wr_mdio_reg>
    2ef0:	8009883a 	mov	r4,r16
    2ef4:	d8000015 	stw	zero,0(sp)
    2ef8:	01400104 	movi	r5,4
    2efc:	01800144 	movi	r6,5
    2f00:	01c00044 	movi	r7,1
    2f04:	0001a400 	call	1a40 <alt_tse_phy_wr_mdio_reg>
    2f08:	80800617 	ldw	r2,24(r16)
    2f0c:	8c403fcc 	andi	r17,r17,255
    2f10:	10800317 	ldw	r2,12(r2)
    2f14:	10800117 	ldw	r2,4(r2)
    2f18:	10800217 	ldw	r2,8(r2)
    2f1c:	10800017 	ldw	r2,0(r2)
    2f20:	14401035 	stwio	r17,64(r2)
    2f24:	0005883a 	mov	r2,zero
    2f28:	dfc00317 	ldw	ra,12(sp)
    2f2c:	dc400217 	ldw	r17,8(sp)
    2f30:	dc000117 	ldw	r16,4(sp)
    2f34:	dec00404 	addi	sp,sp,16
    2f38:	f800283a 	ret
    2f3c:	01400044 	movi	r5,1
    2f40:	8009883a 	mov	r4,r16
    2f44:	280f883a 	mov	r7,r5
    2f48:	01800304 	movi	r6,12
    2f4c:	0001ae00 	call	1ae0 <alt_tse_phy_rd_mdio_reg>
    2f50:	10803fcc 	andi	r2,r2,255
    2f54:	8009883a 	mov	r4,r16
    2f58:	d8800015 	stw	r2,0(sp)
    2f5c:	01400104 	movi	r5,4
    2f60:	01800184 	movi	r6,6
    2f64:	01c00044 	movi	r7,1
    2f68:	0001a400 	call	1a40 <alt_tse_phy_wr_mdio_reg>
    2f6c:	01400044 	movi	r5,1
    2f70:	8009883a 	mov	r4,r16
    2f74:	280f883a 	mov	r7,r5
    2f78:	018002c4 	movi	r6,11
    2f7c:	0001ae00 	call	1ae0 <alt_tse_phy_rd_mdio_reg>
    2f80:	10803fcc 	andi	r2,r2,255
    2f84:	d8800015 	stw	r2,0(sp)
    2f88:	8009883a 	mov	r4,r16
    2f8c:	01400104 	movi	r5,4
    2f90:	01800144 	movi	r6,5
    2f94:	01c00044 	movi	r7,1
    2f98:	0001a400 	call	1a40 <alt_tse_phy_wr_mdio_reg>
    2f9c:	003fda06 	br	2f08 <alt_tse_phy_set_adv_10+0xa8>

00002fa0 <alt_tse_mac_get_phy>:
    2fa0:	20800117 	ldw	r2,4(r4)
    2fa4:	deffee04 	addi	sp,sp,-72
    2fa8:	dc400915 	stw	r17,36(sp)
    2fac:	10800217 	ldw	r2,8(r2)
    2fb0:	dc000815 	stw	r16,32(sp)
    2fb4:	2021883a 	mov	r16,r4
    2fb8:	10800017 	ldw	r2,0(r2)
    2fbc:	dfc01115 	stw	ra,68(sp)
    2fc0:	df001015 	stw	fp,64(sp)
    2fc4:	14401004 	addi	r17,r2,64
    2fc8:	ddc00f15 	stw	r23,60(sp)
    2fcc:	dd800e15 	stw	r22,56(sp)
    2fd0:	dd400d15 	stw	r21,52(sp)
    2fd4:	dd000c15 	stw	r20,48(sp)
    2fd8:	dcc00b15 	stw	r19,44(sp)
    2fdc:	dc800a15 	stw	r18,40(sp)
    2fe0:	d8800315 	stw	r2,12(sp)
    2fe4:	88c00037 	ldwio	r3,0(r17)
    2fe8:	d1602c03 	ldbu	r5,-32592(gp)
    2fec:	d8c00615 	stw	r3,24(sp)
    2ff0:	28000c26 	beq	r5,zero,3024 <alt_tse_mac_get_phy+0x84>
    2ff4:	00c000f4 	movhi	r3,3
    2ff8:	18e7f004 	addi	r3,r3,-24640
    2ffc:	18800017 	ldw	r2,0(r3)
    3000:	2080a426 	beq	r4,r2,3294 <alt_tse_mac_get_phy+0x2f4>
    3004:	18c00104 	addi	r3,r3,4
    3008:	0005883a 	mov	r2,zero
    300c:	00000206 	br	3018 <alt_tse_mac_get_phy+0x78>
    3010:	193fff17 	ldw	r4,-4(r3)
    3014:	81008b26 	beq	r16,r4,3244 <alt_tse_mac_get_phy+0x2a4>
    3018:	10800044 	addi	r2,r2,1
    301c:	18c00104 	addi	r3,r3,4
    3020:	117ffb16 	blt	r2,r5,3010 <alt_tse_mac_get_phy+0x70>
    3024:	00ffffc4 	movi	r3,-1
    3028:	d8c00505 	stb	r3,20(sp)
    302c:	d8c00317 	ldw	r3,12(sp)
    3030:	0039883a 	mov	fp,zero
    3034:	0025883a 	mov	r18,zero
    3038:	1d00a204 	addi	r20,r3,648
    303c:	1cc0a304 	addi	r19,r3,652
    3040:	d8c00507 	ldb	r3,20(sp)
    3044:	d8000115 	stw	zero,4(sp)
    3048:	05400804 	movi	r21,32
    304c:	d8c00215 	stw	r3,8(sp)
    3050:	8f000035 	stwio	fp,0(r17)
    3054:	a1400037 	ldwio	r5,0(r20)
    3058:	9d800037 	ldwio	r22,0(r19)
    305c:	2d802c26 	beq	r5,r22,3110 <alt_tse_mac_get_phy+0x170>
    3060:	01000704 	movi	r4,28
    3064:	d9400715 	stw	r5,28(sp)
    3068:	001ae8c0 	call	1ae8c <malloc>
    306c:	102f883a 	mov	r23,r2
    3070:	d9400717 	ldw	r5,28(sp)
    3074:	10007526 	beq	r2,zero,324c <alt_tse_mac_get_phy+0x2ac>
    3078:	b019d2ba 	srai	r12,r22,10
    307c:	280a91ba 	slli	r5,r5,6
    3080:	b007d13a 	srai	r3,r22,4
    3084:	d2e02c43 	ldbu	r11,-32591(gp)
    3088:	63000fcc 	andi	r12,r12,63
    308c:	17000005 	stb	fp,0(r2)
    3090:	6158b03a 	or	r12,r12,r5
    3094:	18800fcc 	andi	r2,r3,63
    3098:	58000a26 	beq	r11,zero,30c4 <alt_tse_mac_get_phy+0x124>
    309c:	00c000f4 	movhi	r3,3
    30a0:	18e7f804 	addi	r3,r3,-24608
    30a4:	0011883a 	mov	r8,zero
    30a8:	10803fcc 	andi	r2,r2,255
    30ac:	1a400017 	ldw	r9,0(r3)
    30b0:	42000044 	addi	r8,r8,1
    30b4:	18c00104 	addi	r3,r3,4
    30b8:	4a801417 	ldw	r10,80(r9)
    30bc:	53003026 	beq	r10,r12,3180 <alt_tse_mac_get_phy+0x1e0>
    30c0:	42fffa16 	blt	r8,r11,30ac <alt_tse_mac_get_phy+0x10c>
    30c4:	d9c00217 	ldw	r7,8(sp)
    30c8:	01000184 	movi	r4,6
    30cc:	014000b4 	movhi	r5,2
    30d0:	29546004 	addi	r5,r5,20864
    30d4:	e00d883a 	mov	r6,fp
    30d8:	b8000515 	stw	zero,20(r23)
    30dc:	00156600 	call	15660 <syslog>
    30e0:	01000184 	movi	r4,6
    30e4:	014000b4 	movhi	r5,2
    30e8:	29547104 	addi	r5,r5,20932
    30ec:	00156600 	call	15660 <syslog>
    30f0:	d8800117 	ldw	r2,4(sp)
    30f4:	8009883a 	mov	r4,r16
    30f8:	b80b883a 	mov	r5,r23
    30fc:	10800044 	addi	r2,r2,1
    3100:	d8800115 	stw	r2,4(sp)
    3104:	0001fc00 	call	1fc0 <alt_tse_mac_associate_phy>
    3108:	10002c26 	beq	r2,zero,31bc <alt_tse_mac_get_phy+0x21c>
    310c:	94800044 	addi	r18,r18,1
    3110:	e7000044 	addi	fp,fp,1
    3114:	e57fce1e 	bne	fp,r21,3050 <alt_tse_mac_get_phy+0xb0>
    3118:	91c03fcc 	andi	r7,r18,255
    311c:	80800003 	ldbu	r2,0(r16)
    3120:	39c0201c 	xori	r7,r7,128
    3124:	39ffe004 	addi	r7,r7,-128
    3128:	11c00626 	beq	r2,r7,3144 <alt_tse_mac_get_phy+0x1a4>
    312c:	3800521e 	bne	r7,zero,3278 <alt_tse_mac_get_phy+0x2d8>
    3130:	d9800507 	ldb	r6,20(sp)
    3134:	01000184 	movi	r4,6
    3138:	014000b4 	movhi	r5,2
    313c:	29543504 	addi	r5,r5,20692
    3140:	00156600 	call	15660 <syslog>
    3144:	d8c00617 	ldw	r3,24(sp)
    3148:	88c00035 	stwio	r3,0(r17)
    314c:	d8800117 	ldw	r2,4(sp)
    3150:	dfc01117 	ldw	ra,68(sp)
    3154:	df001017 	ldw	fp,64(sp)
    3158:	ddc00f17 	ldw	r23,60(sp)
    315c:	dd800e17 	ldw	r22,56(sp)
    3160:	dd400d17 	ldw	r21,52(sp)
    3164:	dd000c17 	ldw	r20,48(sp)
    3168:	dcc00b17 	ldw	r19,44(sp)
    316c:	dc800a17 	ldw	r18,40(sp)
    3170:	dc400917 	ldw	r17,36(sp)
    3174:	dc000817 	ldw	r16,32(sp)
    3178:	dec01204 	addi	sp,sp,72
    317c:	f800283a 	ret
    3180:	49801503 	ldbu	r6,84(r9)
    3184:	30bfce1e 	bne	r6,r2,30c0 <alt_tse_mac_get_phy+0x120>
    3188:	d8c00217 	ldw	r3,8(sp)
    318c:	01000184 	movi	r4,6
    3190:	014000b4 	movhi	r5,2
    3194:	29542504 	addi	r5,r5,20628
    3198:	d8c00015 	stw	r3,0(sp)
    319c:	480d883a 	mov	r6,r9
    31a0:	e00f883a 	mov	r7,fp
    31a4:	ba400515 	stw	r9,20(r23)
    31a8:	00156600 	call	15660 <syslog>
    31ac:	8009883a 	mov	r4,r16
    31b0:	b80b883a 	mov	r5,r23
    31b4:	0001fc00 	call	1fc0 <alt_tse_mac_associate_phy>
    31b8:	103fd41e 	bne	r2,zero,310c <alt_tse_mac_get_phy+0x16c>
    31bc:	b8800617 	ldw	r2,24(r23)
    31c0:	01800384 	movi	r6,14
    31c4:	01c00044 	movi	r7,1
    31c8:	10800217 	ldw	r2,8(r2)
    31cc:	000b883a 	mov	r5,zero
    31d0:	b809883a 	mov	r4,r23
    31d4:	d8000015 	stw	zero,0(sp)
    31d8:	d8800415 	stw	r2,16(sp)
    31dc:	0001a400 	call	1a40 <alt_tse_phy_wr_mdio_reg>
    31e0:	b809883a 	mov	r4,r23
    31e4:	01400044 	movi	r5,1
    31e8:	0002b800 	call	2b80 <alt_tse_phy_set_adv_1000>
    31ec:	b809883a 	mov	r4,r23
    31f0:	01400044 	movi	r5,1
    31f4:	0002cc00 	call	2cc0 <alt_tse_phy_set_adv_100>
    31f8:	b809883a 	mov	r4,r23
    31fc:	01400044 	movi	r5,1
    3200:	0002e600 	call	2e60 <alt_tse_phy_set_adv_10>
    3204:	b809883a 	mov	r4,r23
    3208:	014003f4 	movhi	r5,15
    320c:	29509004 	addi	r5,r5,16960
    3210:	00023c00 	call	23c0 <alt_tse_phy_restart_an>
    3214:	b8800517 	ldw	r2,20(r23)
    3218:	10000426 	beq	r2,zero,322c <alt_tse_mac_get_phy+0x28c>
    321c:	10801717 	ldw	r2,92(r2)
    3220:	10000226 	beq	r2,zero,322c <alt_tse_mac_get_phy+0x28c>
    3224:	d9000317 	ldw	r4,12(sp)
    3228:	103ee83a 	callr	r2
    322c:	d8c00417 	ldw	r3,16(sp)
    3230:	18801117 	ldw	r2,68(r3)
    3234:	103fb526 	beq	r2,zero,310c <alt_tse_mac_get_phy+0x16c>
    3238:	d9000317 	ldw	r4,12(sp)
    323c:	103ee83a 	callr	r2
    3240:	003fb206 	br	310c <alt_tse_mac_get_phy+0x16c>
    3244:	d8800505 	stb	r2,20(sp)
    3248:	003f7806 	br	302c <alt_tse_mac_get_phy+0x8c>
    324c:	d9800507 	ldb	r6,20(sp)
    3250:	91c03fcc 	andi	r7,r18,255
    3254:	39c0201c 	xori	r7,r7,128
    3258:	01000184 	movi	r4,6
    325c:	014000b4 	movhi	r5,2
    3260:	29541604 	addi	r5,r5,20568
    3264:	39ffe004 	addi	r7,r7,-128
    3268:	00156600 	call	15660 <syslog>
    326c:	00bfffc4 	movi	r2,-1
    3270:	d8800115 	stw	r2,4(sp)
    3274:	003fb506 	br	314c <alt_tse_mac_get_phy+0x1ac>
    3278:	d9800507 	ldb	r6,20(sp)
    327c:	d8800015 	stw	r2,0(sp)
    3280:	01000184 	movi	r4,6
    3284:	014000b4 	movhi	r5,2
    3288:	29544104 	addi	r5,r5,20740
    328c:	00156600 	call	15660 <syslog>
    3290:	003fac06 	br	3144 <alt_tse_mac_get_phy+0x1a4>
    3294:	d8000505 	stb	zero,20(sp)
    3298:	003f6406 	br	302c <alt_tse_mac_get_phy+0x8c>
    329c:	0001883a 	nop

000032a0 <alt_tse_phy_init>:
    32a0:	defffb04 	addi	sp,sp,-20
    32a4:	dfc00415 	stw	ra,16(sp)
    32a8:	dcc00315 	stw	r19,12(sp)
    32ac:	dc800215 	stw	r18,8(sp)
    32b0:	dc400115 	stw	r17,4(sp)
    32b4:	dc000015 	stw	r16,0(sp)
    32b8:	0001b600 	call	1b60 <alt_tse_phy_add_profile_default>
    32bc:	0001da00 	call	1da0 <alt_tse_mac_group_init>
    32c0:	d0a02c03 	ldbu	r2,-32592(gp)
    32c4:	10002226 	beq	r2,zero,3350 <alt_tse_phy_init+0xb0>
    32c8:	04800044 	movi	r18,1
    32cc:	000d883a 	mov	r6,zero
    32d0:	000f883a 	mov	r7,zero
    32d4:	04c000f4 	movhi	r19,3
    32d8:	9ce7f004 	addi	r19,r19,-24640
    32dc:	3185883a 	add	r2,r6,r6
    32e0:	1085883a 	add	r2,r2,r2
    32e4:	9885883a 	add	r2,r19,r2
    32e8:	14400017 	ldw	r17,0(r2)
    32ec:	88800117 	ldw	r2,4(r17)
    32f0:	10800217 	ldw	r2,8(r2)
    32f4:	10800203 	ldbu	r2,8(r2)
    32f8:	10001d26 	beq	r2,zero,3370 <alt_tse_phy_init+0xd0>
    32fc:	8809883a 	mov	r4,r17
    3300:	0002fa00 	call	2fa0 <alt_tse_mac_get_phy>
    3304:	88800003 	ldbu	r2,0(r17)
    3308:	10002226 	beq	r2,zero,3394 <alt_tse_phy_init+0xf4>
    330c:	04000044 	movi	r16,1
    3310:	0005883a 	mov	r2,zero
    3314:	10800044 	addi	r2,r2,1
    3318:	1085883a 	add	r2,r2,r2
    331c:	1085883a 	add	r2,r2,r2
    3320:	8885883a 	add	r2,r17,r2
    3324:	11000017 	ldw	r4,0(r2)
    3328:	00022600 	call	2260 <alt_tse_phy_cfg_pcs>
    332c:	88c00003 	ldbu	r3,0(r17)
    3330:	8005883a 	mov	r2,r16
    3334:	800f883a 	mov	r7,r16
    3338:	84000044 	addi	r16,r16,1
    333c:	10fff516 	blt	r2,r3,3314 <alt_tse_phy_init+0x74>
    3340:	d0a02c03 	ldbu	r2,-32592(gp)
    3344:	900d883a 	mov	r6,r18
    3348:	94800044 	addi	r18,r18,1
    334c:	30bfe316 	blt	r6,r2,32dc <alt_tse_phy_init+0x3c>
    3350:	0005883a 	mov	r2,zero
    3354:	dfc00417 	ldw	ra,16(sp)
    3358:	dcc00317 	ldw	r19,12(sp)
    335c:	dc800217 	ldw	r18,8(sp)
    3360:	dc400117 	ldw	r17,4(sp)
    3364:	dc000017 	ldw	r16,0(sp)
    3368:	dec00504 	addi	sp,sp,20
    336c:	f800283a 	ret
    3370:	39c03fcc 	andi	r7,r7,255
    3374:	39c0201c 	xori	r7,r7,128
    3378:	01000184 	movi	r4,6
    337c:	014000b4 	movhi	r5,2
    3380:	29547f04 	addi	r5,r5,20988
    3384:	39ffe004 	addi	r7,r7,-128
    3388:	00156600 	call	15660 <syslog>
    338c:	88800003 	ldbu	r2,0(r17)
    3390:	103fde1e 	bne	r2,zero,330c <alt_tse_phy_init+0x6c>
    3394:	d0a02c03 	ldbu	r2,-32592(gp)
    3398:	900d883a 	mov	r6,r18
    339c:	000f883a 	mov	r7,zero
    33a0:	94800044 	addi	r18,r18,1
    33a4:	30bfcd16 	blt	r6,r2,32dc <alt_tse_phy_init+0x3c>
    33a8:	003fe906 	br	3350 <alt_tse_phy_init+0xb0>
    33ac:	0001883a 	nop
    33b0:	0001883a 	nop
    33b4:	0001883a 	nop
    33b8:	0001883a 	nop
    33bc:	0001883a 	nop

000033c0 <getPHYSpeed>:
    33c0:	d0a02cc3 	ldbu	r2,-32589(gp)
    33c4:	defff504 	addi	sp,sp,-44
    33c8:	dc400415 	stw	r17,16(sp)
    33cc:	dfc00a15 	stw	ra,40(sp)
    33d0:	dd800915 	stw	r22,36(sp)
    33d4:	dd400815 	stw	r21,32(sp)
    33d8:	dd000715 	stw	r20,28(sp)
    33dc:	dcc00615 	stw	r19,24(sp)
    33e0:	dc800515 	stw	r18,20(sp)
    33e4:	dc000315 	stw	r16,12(sp)
    33e8:	2023883a 	mov	r17,r4
    33ec:	10008d26 	beq	r2,zero,3624 <getPHYSpeed+0x264>
    33f0:	d2a02c03 	ldbu	r10,-32592(gp)
    33f4:	50001826 	beq	r10,zero,3458 <getPHYSpeed+0x98>
    33f8:	02c000f4 	movhi	r11,3
    33fc:	5ae7f004 	addi	r11,r11,-24640
    3400:	5809883a 	mov	r4,r11
    3404:	0011883a 	mov	r8,zero
    3408:	20c00017 	ldw	r3,0(r4)
    340c:	19c00003 	ldbu	r7,0(r3)
    3410:	38000e26 	beq	r7,zero,344c <getPHYSpeed+0x8c>
    3414:	19400117 	ldw	r5,4(r3)
    3418:	2c000217 	ldw	r16,8(r5)
    341c:	80800017 	ldw	r2,0(r16)
    3420:	88801c26 	beq	r17,r2,3494 <getPHYSpeed+0xd4>
    3424:	18c00204 	addi	r3,r3,8
    3428:	0005883a 	mov	r2,zero
    342c:	00000506 	br	3444 <getPHYSpeed+0x84>
    3430:	19400017 	ldw	r5,0(r3)
    3434:	18c00104 	addi	r3,r3,4
    3438:	2c000217 	ldw	r16,8(r5)
    343c:	81800017 	ldw	r6,0(r16)
    3440:	89801426 	beq	r17,r6,3494 <getPHYSpeed+0xd4>
    3444:	10800044 	addi	r2,r2,1
    3448:	11fff916 	blt	r2,r7,3430 <getPHYSpeed+0x70>
    344c:	42000044 	addi	r8,r8,1
    3450:	21000104 	addi	r4,r4,4
    3454:	42bfec16 	blt	r8,r10,3408 <getPHYSpeed+0x48>
    3458:	01000184 	movi	r4,6
    345c:	014000b4 	movhi	r5,2
    3460:	29552604 	addi	r5,r5,21656
    3464:	018000b4 	movhi	r6,2
    3468:	31949504 	addi	r6,r6,21076
    346c:	01c000b4 	movhi	r7,2
    3470:	39d49b04 	addi	r7,r7,21100
    3474:	00156600 	call	15660 <syslog>
    3478:	01000184 	movi	r4,6
    347c:	014000b4 	movhi	r5,2
    3480:	29553e04 	addi	r5,r5,21752
    3484:	00156600 	call	15660 <syslog>
    3488:	00802034 	movhi	r2,128
    348c:	10800144 	addi	r2,r2,5
    3490:	00007806 	br	3674 <getPHYSpeed+0x2b4>
    3494:	2a400317 	ldw	r9,12(r5)
    3498:	2cc00117 	ldw	r19,4(r5)
    349c:	49c00003 	ldbu	r7,0(r9)
    34a0:	49000117 	ldw	r4,4(r9)
    34a4:	38000926 	beq	r7,zero,34cc <getPHYSpeed+0x10c>
    34a8:	29010b26 	beq	r5,r4,38d8 <getPHYSpeed+0x518>
    34ac:	48c00204 	addi	r3,r9,8
    34b0:	0005883a 	mov	r2,zero
    34b4:	00000206 	br	34c0 <getPHYSpeed+0x100>
    34b8:	19bfff17 	ldw	r6,-4(r3)
    34bc:	29805726 	beq	r5,r6,361c <getPHYSpeed+0x25c>
    34c0:	10800044 	addi	r2,r2,1
    34c4:	18c00104 	addi	r3,r3,4
    34c8:	11fffb16 	blt	r2,r7,34b8 <getPHYSpeed+0xf8>
    34cc:	04bfffc4 	movi	r18,-1
    34d0:	58800017 	ldw	r2,0(r11)
    34d4:	48810226 	beq	r9,r2,38e0 <getPHYSpeed+0x520>
    34d8:	00c000f4 	movhi	r3,3
    34dc:	18e7f104 	addi	r3,r3,-24636
    34e0:	000d883a 	mov	r6,zero
    34e4:	00000206 	br	34f0 <getPHYSpeed+0x130>
    34e8:	1a3fff17 	ldw	r8,-4(r3)
    34ec:	4a002c26 	beq	r9,r8,35a0 <getPHYSpeed+0x1e0>
    34f0:	31800044 	addi	r6,r6,1
    34f4:	18c00104 	addi	r3,r3,4
    34f8:	32bffb16 	blt	r6,r10,34e8 <getPHYSpeed+0x128>
    34fc:	053fffc4 	movi	r20,-1
    3500:	20800217 	ldw	r2,8(r4)
    3504:	10c00203 	ldbu	r3,8(r2)
    3508:	18002b26 	beq	r3,zero,35b8 <getPHYSpeed+0x1f8>
    350c:	14000017 	ldw	r16,0(r2)
    3510:	9800b226 	beq	r19,zero,37dc <getPHYSpeed+0x41c>
    3514:	28800003 	ldbu	r2,0(r5)
    3518:	00c00044 	movi	r3,1
    351c:	10c0c026 	beq	r2,r3,3820 <getPHYSpeed+0x460>
    3520:	00c00084 	movi	r3,2
    3524:	10c0c626 	beq	r2,r3,3840 <getPHYSpeed+0x480>
    3528:	9809883a 	mov	r4,r19
    352c:	01400134 	movhi	r5,4
    3530:	29742404 	addi	r5,r5,-12144
    3534:	00026200 	call	2620 <alt_tse_phy_check_link>
    3538:	00ffffc4 	movi	r3,-1
    353c:	10c03d26 	beq	r2,r3,3634 <getPHYSpeed+0x274>
    3540:	98800003 	ldbu	r2,0(r19)
    3544:	80801035 	stwio	r2,64(r16)
    3548:	04400044 	movi	r17,1
    354c:	d8000015 	stw	zero,0(sp)
    3550:	9809883a 	mov	r4,r19
    3554:	000b883a 	mov	r5,zero
    3558:	01800384 	movi	r6,14
    355c:	880f883a 	mov	r7,r17
    3560:	0001a400 	call	1a40 <alt_tse_phy_wr_mdio_reg>
    3564:	98800517 	ldw	r2,20(r19)
    3568:	1000df26 	beq	r2,zero,38e8 <getPHYSpeed+0x528>
    356c:	10c01817 	ldw	r3,96(r2)
    3570:	18004a26 	beq	r3,zero,369c <getPHYSpeed+0x2dc>
    3574:	8009883a 	mov	r4,r16
    3578:	183ee83a 	callr	r3
    357c:	1100008c 	andi	r4,r2,2
    3580:	1007883a 	mov	r3,r2
    3584:	2000601e 	bne	r4,zero,3708 <getPHYSpeed+0x348>
    3588:	1900010c 	andi	r4,r3,4
    358c:	2000c11e 	bne	r4,zero,3894 <getPHYSpeed+0x4d4>
    3590:	1900020c 	andi	r4,r3,8
    3594:	2000c126 	beq	r4,zero,389c <getPHYSpeed+0x4dc>
    3598:	002b883a 	mov	r21,zero
    359c:	00005b06 	br	370c <getPHYSpeed+0x34c>
    35a0:	20800217 	ldw	r2,8(r4)
    35a4:	35003fcc 	andi	r20,r6,255
    35a8:	a500201c 	xori	r20,r20,128
    35ac:	10c00203 	ldbu	r3,8(r2)
    35b0:	a53fe004 	addi	r20,r20,-128
    35b4:	183fd51e 	bne	r3,zero,350c <getPHYSpeed+0x14c>
    35b8:	010003f4 	movhi	r4,15
    35bc:	21109004 	addi	r4,r4,16960
    35c0:	00048600 	call	4860 <usleep>
    35c4:	80801117 	ldw	r2,68(r16)
    35c8:	1000b626 	beq	r2,zero,38a4 <getPHYSpeed+0x4e4>
    35cc:	91c03fcc 	andi	r7,r18,255
    35d0:	39c0201c 	xori	r7,r7,128
    35d4:	01000184 	movi	r4,6
    35d8:	014000b4 	movhi	r5,2
    35dc:	29549f04 	addi	r5,r5,21116
    35e0:	a00d883a 	mov	r6,r20
    35e4:	39ffe004 	addi	r7,r7,-128
    35e8:	00156600 	call	15660 <syslog>
    35ec:	80801117 	ldw	r2,68(r16)
    35f0:	8809883a 	mov	r4,r17
    35f4:	dfc00a17 	ldw	ra,40(sp)
    35f8:	dd800917 	ldw	r22,36(sp)
    35fc:	dd400817 	ldw	r21,32(sp)
    3600:	dd000717 	ldw	r20,28(sp)
    3604:	dcc00617 	ldw	r19,24(sp)
    3608:	dc800517 	ldw	r18,20(sp)
    360c:	dc400417 	ldw	r17,16(sp)
    3610:	dc000317 	ldw	r16,12(sp)
    3614:	dec00b04 	addi	sp,sp,44
    3618:	1000683a 	jmp	r2
    361c:	1025883a 	mov	r18,r2
    3620:	003fab06 	br	34d0 <getPHYSpeed+0x110>
    3624:	00032a00 	call	32a0 <alt_tse_phy_init>
    3628:	00800044 	movi	r2,1
    362c:	d0a02cc5 	stb	r2,-32589(gp)
    3630:	003f6f06 	br	33f0 <getPHYSpeed+0x30>
    3634:	008000b4 	movhi	r2,2
    3638:	10949504 	addi	r2,r2,21076
    363c:	91c03fcc 	andi	r7,r18,255
    3640:	d8800015 	stw	r2,0(sp)
    3644:	39c0201c 	xori	r7,r7,128
    3648:	008000b4 	movhi	r2,2
    364c:	10949b04 	addi	r2,r2,21100
    3650:	d8800115 	stw	r2,4(sp)
    3654:	01000184 	movi	r4,6
    3658:	014000b4 	movhi	r5,2
    365c:	2954d404 	addi	r5,r5,21328
    3660:	a00d883a 	mov	r6,r20
    3664:	39ffe004 	addi	r7,r7,-128
    3668:	00156600 	call	15660 <syslog>
    366c:	00800234 	movhi	r2,8
    3670:	10800144 	addi	r2,r2,5
    3674:	dfc00a17 	ldw	ra,40(sp)
    3678:	dd800917 	ldw	r22,36(sp)
    367c:	dd400817 	ldw	r21,32(sp)
    3680:	dd000717 	ldw	r20,28(sp)
    3684:	dcc00617 	ldw	r19,24(sp)
    3688:	dc800517 	ldw	r18,20(sp)
    368c:	dc400417 	ldw	r17,16(sp)
    3690:	dc000317 	ldw	r16,12(sp)
    3694:	dec00b04 	addi	sp,sp,44
    3698:	f800283a 	ret
    369c:	11401583 	ldbu	r5,86(r2)
    36a0:	28003b26 	beq	r5,zero,3790 <getPHYSpeed+0x3d0>
    36a4:	118015c3 	ldbu	r6,87(r2)
    36a8:	05800084 	movi	r22,2
    36ac:	9809883a 	mov	r4,r19
    36b0:	b00f883a 	mov	r7,r22
    36b4:	0001ae00 	call	1ae0 <alt_tse_phy_rd_mdio_reg>
    36b8:	102b883a 	mov	r21,r2
    36bc:	98800517 	ldw	r2,20(r19)
    36c0:	9809883a 	mov	r4,r19
    36c4:	880f883a 	mov	r7,r17
    36c8:	11401583 	ldbu	r5,86(r2)
    36cc:	11801603 	ldbu	r6,88(r2)
    36d0:	0001ae00 	call	1ae0 <alt_tse_phy_rd_mdio_reg>
    36d4:	a9003fcc 	andi	r4,r21,255
    36d8:	1021883a 	mov	r16,r2
    36dc:	10c0004c 	andi	r3,r2,1
    36e0:	25809026 	beq	r4,r22,3924 <getPHYSpeed+0x564>
    36e4:	24408c26 	beq	r4,r17,3918 <getPHYSpeed+0x558>
    36e8:	2000941e 	bne	r4,zero,393c <getPHYSpeed+0x57c>
    36ec:	18c00214 	ori	r3,r3,8
    36f0:	0005883a 	mov	r2,zero
    36f4:	94803fcc 	andi	r18,r18,255
    36f8:	9480201c 	xori	r18,r18,128
    36fc:	1884b03a 	or	r2,r3,r2
    3700:	94bfe004 	addi	r18,r18,-128
    3704:	00000806 	br	3728 <getPHYSpeed+0x368>
    3708:	05400084 	movi	r21,2
    370c:	94803fcc 	andi	r18,r18,255
    3710:	9480201c 	xori	r18,r18,128
    3714:	1900006c 	andhi	r4,r3,1
    3718:	1c00004c 	andi	r16,r3,1
    371c:	94bfe004 	addi	r18,r18,-128
    3720:	2000521e 	bne	r4,zero,386c <getPHYSpeed+0x4ac>
    3724:	a9003fcc 	andi	r4,r21,255
    3728:	00c00084 	movi	r3,2
    372c:	20c01526 	beq	r4,r3,3784 <getPHYSpeed+0x3c4>
    3730:	00c00044 	movi	r3,1
    3734:	20c07e26 	beq	r4,r3,3930 <getPHYSpeed+0x570>
    3738:	2000251e 	bne	r4,zero,37d0 <getPHYSpeed+0x410>
    373c:	010000b4 	movhi	r4,2
    3740:	21149a04 	addi	r4,r4,21096
    3744:	84003fcc 	andi	r16,r16,255
    3748:	00c00044 	movi	r3,1
    374c:	80c01d26 	beq	r16,r3,37c4 <getPHYSpeed+0x404>
    3750:	00c000b4 	movhi	r3,2
    3754:	18d49d04 	addi	r3,r3,21108
    3758:	d9000015 	stw	r4,0(sp)
    375c:	d8c00115 	stw	r3,4(sp)
    3760:	01000184 	movi	r4,6
    3764:	014000b4 	movhi	r5,2
    3768:	29551a04 	addi	r5,r5,21608
    376c:	a00d883a 	mov	r6,r20
    3770:	900f883a 	mov	r7,r18
    3774:	d8800215 	stw	r2,8(sp)
    3778:	00156600 	call	15660 <syslog>
    377c:	d8800217 	ldw	r2,8(sp)
    3780:	003fbc06 	br	3674 <getPHYSpeed+0x2b4>
    3784:	010000b4 	movhi	r4,2
    3788:	21149604 	addi	r4,r4,21080
    378c:	003fed06 	br	3744 <getPHYSpeed+0x384>
    3790:	94803fcc 	andi	r18,r18,255
    3794:	9480201c 	xori	r18,r18,128
    3798:	94bfe004 	addi	r18,r18,-128
    379c:	01000184 	movi	r4,6
    37a0:	014000b4 	movhi	r5,2
    37a4:	29550304 	addi	r5,r5,21516
    37a8:	a00d883a 	mov	r6,r20
    37ac:	900f883a 	mov	r7,r18
    37b0:	00156600 	call	15660 <syslog>
    37b4:	008000b4 	movhi	r2,2
    37b8:	10800144 	addi	r2,r2,5
    37bc:	010000b4 	movhi	r4,2
    37c0:	21149504 	addi	r4,r4,21076
    37c4:	00c000b4 	movhi	r3,2
    37c8:	18d49b04 	addi	r3,r3,21100
    37cc:	003fe206 	br	3758 <getPHYSpeed+0x398>
    37d0:	010000b4 	movhi	r4,2
    37d4:	21149804 	addi	r4,r4,21088
    37d8:	003fda06 	br	3744 <getPHYSpeed+0x384>
    37dc:	008000b4 	movhi	r2,2
    37e0:	10949504 	addi	r2,r2,21076
    37e4:	91c03fcc 	andi	r7,r18,255
    37e8:	d8800015 	stw	r2,0(sp)
    37ec:	39c0201c 	xori	r7,r7,128
    37f0:	008000b4 	movhi	r2,2
    37f4:	10949b04 	addi	r2,r2,21100
    37f8:	d8800115 	stw	r2,4(sp)
    37fc:	01000184 	movi	r4,6
    3800:	014000b4 	movhi	r5,2
    3804:	2954c304 	addi	r5,r5,21260
    3808:	a00d883a 	mov	r6,r20
    380c:	39ffe004 	addi	r7,r7,-128
    3810:	00156600 	call	15660 <syslog>
    3814:	00800834 	movhi	r2,32
    3818:	10800144 	addi	r2,r2,5
    381c:	003f9506 	br	3674 <getPHYSpeed+0x2b4>
    3820:	9809883a 	mov	r4,r19
    3824:	000b883a 	mov	r5,zero
    3828:	0002b800 	call	2b80 <alt_tse_phy_set_adv_1000>
    382c:	9809883a 	mov	r4,r19
    3830:	01400134 	movhi	r5,4
    3834:	29742404 	addi	r5,r5,-12144
    3838:	00023c00 	call	23c0 <alt_tse_phy_restart_an>
    383c:	003f3a06 	br	3528 <getPHYSpeed+0x168>
    3840:	9809883a 	mov	r4,r19
    3844:	000b883a 	mov	r5,zero
    3848:	0002cc00 	call	2cc0 <alt_tse_phy_set_adv_100>
    384c:	9809883a 	mov	r4,r19
    3850:	000b883a 	mov	r5,zero
    3854:	0002e600 	call	2e60 <alt_tse_phy_set_adv_10>
    3858:	9809883a 	mov	r4,r19
    385c:	01400134 	movhi	r5,4
    3860:	29742404 	addi	r5,r5,-12144
    3864:	00023c00 	call	23c0 <alt_tse_phy_restart_an>
    3868:	003f2f06 	br	3528 <getPHYSpeed+0x168>
    386c:	01000184 	movi	r4,6
    3870:	014000b4 	movhi	r5,2
    3874:	2954f604 	addi	r5,r5,21464
    3878:	a00d883a 	mov	r6,r20
    387c:	900f883a 	mov	r7,r18
    3880:	d8800215 	stw	r2,8(sp)
    3884:	00156600 	call	15660 <syslog>
    3888:	a9003fcc 	andi	r4,r21,255
    388c:	d8800217 	ldw	r2,8(sp)
    3890:	003fa506 	br	3728 <getPHYSpeed+0x368>
    3894:	882b883a 	mov	r21,r17
    3898:	003f9c06 	br	370c <getPHYSpeed+0x34c>
    389c:	054000c4 	movi	r21,3
    38a0:	003f9a06 	br	370c <getPHYSpeed+0x34c>
    38a4:	008000b4 	movhi	r2,2
    38a8:	10949b04 	addi	r2,r2,21100
    38ac:	d8800015 	stw	r2,0(sp)
    38b0:	01000184 	movi	r4,6
    38b4:	014000b4 	movhi	r5,2
    38b8:	2954b104 	addi	r5,r5,21188
    38bc:	a00d883a 	mov	r6,r20
    38c0:	01c000b4 	movhi	r7,2
    38c4:	39d49504 	addi	r7,r7,21076
    38c8:	00156600 	call	15660 <syslog>
    38cc:	00801034 	movhi	r2,64
    38d0:	10800144 	addi	r2,r2,5
    38d4:	003f6706 	br	3674 <getPHYSpeed+0x2b4>
    38d8:	0025883a 	mov	r18,zero
    38dc:	003efc06 	br	34d0 <getPHYSpeed+0x110>
    38e0:	0029883a 	mov	r20,zero
    38e4:	003f0606 	br	3500 <getPHYSpeed+0x140>
    38e8:	94803fcc 	andi	r18,r18,255
    38ec:	9480201c 	xori	r18,r18,128
    38f0:	94bfe004 	addi	r18,r18,-128
    38f4:	01000184 	movi	r4,6
    38f8:	014000b4 	movhi	r5,2
    38fc:	2954e804 	addi	r5,r5,21408
    3900:	a00d883a 	mov	r6,r20
    3904:	900f883a 	mov	r7,r18
    3908:	00156600 	call	15660 <syslog>
    390c:	00800134 	movhi	r2,4
    3910:	10800144 	addi	r2,r2,5
    3914:	003fa906 	br	37bc <getPHYSpeed+0x3fc>
    3918:	18c00114 	ori	r3,r3,4
    391c:	0005883a 	mov	r2,zero
    3920:	003f7406 	br	36f4 <getPHYSpeed+0x334>
    3924:	18c00094 	ori	r3,r3,2
    3928:	0005883a 	mov	r2,zero
    392c:	003f7106 	br	36f4 <getPHYSpeed+0x334>
    3930:	010000b4 	movhi	r4,2
    3934:	21149504 	addi	r4,r4,21076
    3938:	003f8206 	br	3744 <getPHYSpeed+0x384>
    393c:	208000e0 	cmpeqi	r2,r4,3
    3940:	1004943a 	slli	r2,r2,16
    3944:	003f6b06 	br	36f4 <getPHYSpeed+0x334>
    3948:	0001883a 	nop
    394c:	0001883a 	nop
    3950:	0001883a 	nop
    3954:	0001883a 	nop
    3958:	0001883a 	nop
    395c:	0001883a 	nop

00003960 <alt_tse_phy_get_common_speed>:
    3960:	d1602c03 	ldbu	r5,-32592(gp)
    3964:	defff504 	addi	sp,sp,-44
    3968:	ddc00815 	stw	r23,32(sp)
    396c:	dfc00a15 	stw	ra,40(sp)
    3970:	df000915 	stw	fp,36(sp)
    3974:	dd800715 	stw	r22,28(sp)
    3978:	dd400615 	stw	r21,24(sp)
    397c:	dd000515 	stw	r20,20(sp)
    3980:	dcc00415 	stw	r19,16(sp)
    3984:	dc800315 	stw	r18,12(sp)
    3988:	dc400215 	stw	r17,8(sp)
    398c:	dc000115 	stw	r16,4(sp)
    3990:	202f883a 	mov	r23,r4
    3994:	2800ac26 	beq	r5,zero,3c48 <alt_tse_phy_get_common_speed+0x2e8>
    3998:	008000f4 	movhi	r2,3
    399c:	10a7f004 	addi	r2,r2,-24640
    39a0:	11000017 	ldw	r4,0(r2)
    39a4:	b900ab26 	beq	r23,r4,3c54 <alt_tse_phy_get_common_speed+0x2f4>
    39a8:	10800104 	addi	r2,r2,4
    39ac:	000d883a 	mov	r6,zero
    39b0:	00000206 	br	39bc <alt_tse_phy_get_common_speed+0x5c>
    39b4:	113fff17 	ldw	r4,-4(r2)
    39b8:	b9008e26 	beq	r23,r4,3bf4 <alt_tse_phy_get_common_speed+0x294>
    39bc:	31800044 	addi	r6,r6,1
    39c0:	10800104 	addi	r2,r2,4
    39c4:	317ffb16 	blt	r6,r5,39b4 <alt_tse_phy_get_common_speed+0x54>
    39c8:	00bfffc4 	movi	r2,-1
    39cc:	d8800015 	stw	r2,0(sp)
    39d0:	b8800003 	ldbu	r2,0(r23)
    39d4:	10008d26 	beq	r2,zero,3c0c <alt_tse_phy_get_common_speed+0x2ac>
    39d8:	bf000104 	addi	fp,r23,4
    39dc:	e025883a 	mov	r18,fp
    39e0:	0023883a 	mov	r17,zero
    39e4:	91000017 	ldw	r4,0(r18)
    39e8:	01400044 	movi	r5,1
    39ec:	8963883a 	add	r17,r17,r5
    39f0:	24000117 	ldw	r16,4(r4)
    39f4:	94800104 	addi	r18,r18,4
    39f8:	8009883a 	mov	r4,r16
    39fc:	80000826 	beq	r16,zero,3a20 <alt_tse_phy_get_common_speed+0xc0>
    3a00:	0002b800 	call	2b80 <alt_tse_phy_set_adv_1000>
    3a04:	8009883a 	mov	r4,r16
    3a08:	01400044 	movi	r5,1
    3a0c:	0002cc00 	call	2cc0 <alt_tse_phy_set_adv_100>
    3a10:	8009883a 	mov	r4,r16
    3a14:	01400044 	movi	r5,1
    3a18:	0002e600 	call	2e60 <alt_tse_phy_set_adv_10>
    3a1c:	b8800003 	ldbu	r2,0(r23)
    3a20:	88bff016 	blt	r17,r2,39e4 <alt_tse_phy_get_common_speed+0x84>
    3a24:	0080790e 	bge	zero,r2,3c0c <alt_tse_phy_get_common_speed+0x2ac>
    3a28:	04400044 	movi	r17,1
    3a2c:	8829883a 	mov	r20,r17
    3a30:	8827883a 	mov	r19,r17
    3a34:	8825883a 	mov	r18,r17
    3a38:	002d883a 	mov	r22,zero
    3a3c:	00000406 	br	3a50 <alt_tse_phy_get_common_speed+0xf0>
    3a40:	b8800003 	ldbu	r2,0(r23)
    3a44:	b5800044 	addi	r22,r22,1
    3a48:	e7000104 	addi	fp,fp,4
    3a4c:	b080280e 	bge	r22,r2,3af0 <alt_tse_phy_get_common_speed+0x190>
    3a50:	e5400017 	ldw	r21,0(fp)
    3a54:	ac000117 	ldw	r16,4(r21)
    3a58:	8009883a 	mov	r4,r16
    3a5c:	803ff926 	beq	r16,zero,3a44 <alt_tse_phy_get_common_speed+0xe4>
    3a60:	00028200 	call	2820 <alt_tse_phy_get_cap>
    3a64:	103ff61e 	bne	r2,zero,3a40 <alt_tse_phy_get_common_speed+0xe0>
    3a68:	a8800003 	ldbu	r2,0(r21)
    3a6c:	00c00044 	movi	r3,1
    3a70:	10c03b26 	beq	r2,r3,3b60 <alt_tse_phy_get_common_speed+0x200>
    3a74:	00c00084 	movi	r3,2
    3a78:	10c04f26 	beq	r2,r3,3bb8 <alt_tse_phy_get_common_speed+0x258>
    3a7c:	83400183 	ldbu	r13,6(r16)
    3a80:	83c003c3 	ldbu	r15,15(r16)
    3a84:	838001c3 	ldbu	r14,7(r16)
    3a88:	82000403 	ldbu	r8,16(r16)
    3a8c:	83000143 	ldbu	r12,5(r16)
    3a90:	81000383 	ldbu	r4,14(r16)
    3a94:	81c00283 	ldbu	r7,10(r16)
    3a98:	82c00443 	ldbu	r11,17(r16)
    3a9c:	828002c3 	ldbu	r10,11(r16)
    3aa0:	80800483 	ldbu	r2,18(r16)
    3aa4:	824000c3 	ldbu	r9,3(r16)
    3aa8:	81800303 	ldbu	r6,12(r16)
    3aac:	7b5a703a 	and	r13,r15,r13
    3ab0:	4390703a 	and	r8,r8,r14
    3ab4:	4350b03a 	or	r8,r8,r13
    3ab8:	2308703a 	and	r4,r4,r12
    3abc:	59ce703a 	and	r7,r11,r7
    3ac0:	1284703a 	and	r2,r2,r10
    3ac4:	498c703a 	and	r6,r9,r6
    3ac8:	4108b03a 	or	r4,r8,r4
    3acc:	11c4b03a 	or	r2,r2,r7
    3ad0:	34a4703a 	and	r18,r6,r18
    3ad4:	24e6703a 	and	r19,r4,r19
    3ad8:	1528703a 	and	r20,r2,r20
    3adc:	b8800003 	ldbu	r2,0(r23)
    3ae0:	b5800044 	addi	r22,r22,1
    3ae4:	0023883a 	mov	r17,zero
    3ae8:	e7000104 	addi	fp,fp,4
    3aec:	b0bfd816 	blt	r22,r2,3a50 <alt_tse_phy_get_common_speed+0xf0>
    3af0:	8c403fcc 	andi	r17,r17,255
    3af4:	04000044 	movi	r16,1
    3af8:	8c004426 	beq	r17,r16,3c0c <alt_tse_phy_get_common_speed+0x2ac>
    3afc:	94803fcc 	andi	r18,r18,255
    3b00:	9000341e 	bne	r18,zero,3bd4 <alt_tse_phy_get_common_speed+0x274>
    3b04:	9cc03fcc 	andi	r19,r19,255
    3b08:	9800471e 	bne	r19,zero,3c28 <alt_tse_phy_get_common_speed+0x2c8>
    3b0c:	a5003fcc 	andi	r20,r20,255
    3b10:	01000184 	movi	r4,6
    3b14:	a0005126 	beq	r20,zero,3c5c <alt_tse_phy_get_common_speed+0x2fc>
    3b18:	d9800017 	ldw	r6,0(sp)
    3b1c:	014000b4 	movhi	r5,2
    3b20:	29556104 	addi	r5,r5,21892
    3b24:	01c00284 	movi	r7,10
    3b28:	00156600 	call	15660 <syslog>
    3b2c:	0005883a 	mov	r2,zero
    3b30:	dfc00a17 	ldw	ra,40(sp)
    3b34:	df000917 	ldw	fp,36(sp)
    3b38:	ddc00817 	ldw	r23,32(sp)
    3b3c:	dd800717 	ldw	r22,28(sp)
    3b40:	dd400617 	ldw	r21,24(sp)
    3b44:	dd000517 	ldw	r20,20(sp)
    3b48:	dcc00417 	ldw	r19,16(sp)
    3b4c:	dc800317 	ldw	r18,12(sp)
    3b50:	dc400217 	ldw	r17,8(sp)
    3b54:	dc000117 	ldw	r16,4(sp)
    3b58:	dec00b04 	addi	sp,sp,44
    3b5c:	f800283a 	ret
    3b60:	82c00183 	ldbu	r11,6(r16)
    3b64:	834003c3 	ldbu	r13,15(r16)
    3b68:	830001c3 	ldbu	r12,7(r16)
    3b6c:	81c00403 	ldbu	r7,16(r16)
    3b70:	82800143 	ldbu	r10,5(r16)
    3b74:	81000383 	ldbu	r4,14(r16)
    3b78:	81800283 	ldbu	r6,10(r16)
    3b7c:	82400443 	ldbu	r9,17(r16)
    3b80:	820002c3 	ldbu	r8,11(r16)
    3b84:	80800483 	ldbu	r2,18(r16)
    3b88:	6ad6703a 	and	r11,r13,r11
    3b8c:	3b0e703a 	and	r7,r7,r12
    3b90:	3aceb03a 	or	r7,r7,r11
    3b94:	2288703a 	and	r4,r4,r10
    3b98:	498c703a 	and	r6,r9,r6
    3b9c:	1204703a 	and	r2,r2,r8
    3ba0:	3908b03a 	or	r4,r7,r4
    3ba4:	1184b03a 	or	r2,r2,r6
    3ba8:	24e6703a 	and	r19,r4,r19
    3bac:	1528703a 	and	r20,r2,r20
    3bb0:	0025883a 	mov	r18,zero
    3bb4:	003fc906 	br	3adc <alt_tse_phy_get_common_speed+0x17c>
    3bb8:	808000c3 	ldbu	r2,3(r16)
    3bbc:	81000303 	ldbu	r4,12(r16)
    3bc0:	0029883a 	mov	r20,zero
    3bc4:	0027883a 	mov	r19,zero
    3bc8:	2084703a 	and	r2,r4,r2
    3bcc:	14a4703a 	and	r18,r2,r18
    3bd0:	003fc206 	br	3adc <alt_tse_phy_get_common_speed+0x17c>
    3bd4:	d9800017 	ldw	r6,0(sp)
    3bd8:	01000184 	movi	r4,6
    3bdc:	014000b4 	movhi	r5,2
    3be0:	29556104 	addi	r5,r5,21892
    3be4:	01c0fa04 	movi	r7,1000
    3be8:	00156600 	call	15660 <syslog>
    3bec:	00800084 	movi	r2,2
    3bf0:	003fcf06 	br	3b30 <alt_tse_phy_get_common_speed+0x1d0>
    3bf4:	31803fcc 	andi	r6,r6,255
    3bf8:	3180201c 	xori	r6,r6,128
    3bfc:	b8800003 	ldbu	r2,0(r23)
    3c00:	31bfe004 	addi	r6,r6,-128
    3c04:	d9800015 	stw	r6,0(sp)
    3c08:	103f731e 	bne	r2,zero,39d8 <alt_tse_phy_get_common_speed+0x78>
    3c0c:	d9800017 	ldw	r6,0(sp)
    3c10:	01000184 	movi	r4,6
    3c14:	014000b4 	movhi	r5,2
    3c18:	29554f04 	addi	r5,r5,21820
    3c1c:	00156600 	call	15660 <syslog>
    3c20:	00bfffc4 	movi	r2,-1
    3c24:	003fc206 	br	3b30 <alt_tse_phy_get_common_speed+0x1d0>
    3c28:	d9800017 	ldw	r6,0(sp)
    3c2c:	01000184 	movi	r4,6
    3c30:	014000b4 	movhi	r5,2
    3c34:	29556104 	addi	r5,r5,21892
    3c38:	01c01904 	movi	r7,100
    3c3c:	00156600 	call	15660 <syslog>
    3c40:	8005883a 	mov	r2,r16
    3c44:	003fba06 	br	3b30 <alt_tse_phy_get_common_speed+0x1d0>
    3c48:	00ffffc4 	movi	r3,-1
    3c4c:	d8c00015 	stw	r3,0(sp)
    3c50:	003f5f06 	br	39d0 <alt_tse_phy_get_common_speed+0x70>
    3c54:	d8000015 	stw	zero,0(sp)
    3c58:	003f5d06 	br	39d0 <alt_tse_phy_get_common_speed+0x70>
    3c5c:	d9800017 	ldw	r6,0(sp)
    3c60:	014000b4 	movhi	r5,2
    3c64:	29556e04 	addi	r5,r5,21944
    3c68:	00156600 	call	15660 <syslog>
    3c6c:	00bfffc4 	movi	r2,-1
    3c70:	003faf06 	br	3b30 <alt_tse_phy_get_common_speed+0x1d0>
    3c74:	0001883a 	nop
    3c78:	0001883a 	nop
    3c7c:	0001883a 	nop

00003c80 <alt_tse_mac_get_common_speed>:
    3c80:	d2a02c03 	ldbu	r10,-32592(gp)
    3c84:	50001726 	beq	r10,zero,3ce4 <alt_tse_mac_get_common_speed+0x64>
    3c88:	020000f4 	movhi	r8,3
    3c8c:	4227f004 	addi	r8,r8,-24640
    3c90:	0013883a 	mov	r9,zero
    3c94:	40c00017 	ldw	r3,0(r8)
    3c98:	19c00003 	ldbu	r7,0(r3)
    3c9c:	38000e26 	beq	r7,zero,3cd8 <alt_tse_mac_get_common_speed+0x58>
    3ca0:	19400117 	ldw	r5,4(r3)
    3ca4:	28800217 	ldw	r2,8(r5)
    3ca8:	10800017 	ldw	r2,0(r2)
    3cac:	20800e26 	beq	r4,r2,3ce8 <alt_tse_mac_get_common_speed+0x68>
    3cb0:	18c00204 	addi	r3,r3,8
    3cb4:	0005883a 	mov	r2,zero
    3cb8:	00000506 	br	3cd0 <alt_tse_mac_get_common_speed+0x50>
    3cbc:	19400017 	ldw	r5,0(r3)
    3cc0:	18c00104 	addi	r3,r3,4
    3cc4:	29800217 	ldw	r6,8(r5)
    3cc8:	31800017 	ldw	r6,0(r6)
    3ccc:	21800626 	beq	r4,r6,3ce8 <alt_tse_mac_get_common_speed+0x68>
    3cd0:	10800044 	addi	r2,r2,1
    3cd4:	11fff916 	blt	r2,r7,3cbc <alt_tse_mac_get_common_speed+0x3c>
    3cd8:	4a400044 	addi	r9,r9,1
    3cdc:	42000104 	addi	r8,r8,4
    3ce0:	4abfec16 	blt	r9,r10,3c94 <alt_tse_mac_get_common_speed+0x14>
    3ce4:	000b883a 	mov	r5,zero
    3ce8:	29000317 	ldw	r4,12(r5)
    3cec:	00039601 	jmpi	3960 <alt_tse_phy_get_common_speed>
    3cf0:	0001883a 	nop
    3cf4:	0001883a 	nop
    3cf8:	0001883a 	nop
    3cfc:	0001883a 	nop

00003d00 <alt_tse_phy_set_common_speed>:
    3d00:	d1a02c03 	ldbu	r6,-32592(gp)
    3d04:	defff004 	addi	sp,sp,-64
    3d08:	dcc00915 	stw	r19,36(sp)
    3d0c:	dc800815 	stw	r18,32(sp)
    3d10:	dfc00f15 	stw	ra,60(sp)
    3d14:	df000e15 	stw	fp,56(sp)
    3d18:	ddc00d15 	stw	r23,52(sp)
    3d1c:	dd800c15 	stw	r22,48(sp)
    3d20:	dd400b15 	stw	r21,44(sp)
    3d24:	dd000a15 	stw	r20,40(sp)
    3d28:	dc400715 	stw	r17,28(sp)
    3d2c:	dc000615 	stw	r16,24(sp)
    3d30:	2025883a 	mov	r18,r4
    3d34:	2827883a 	mov	r19,r5
    3d38:	30011b26 	beq	r6,zero,41a8 <alt_tse_phy_set_common_speed+0x4a8>
    3d3c:	008000f4 	movhi	r2,3
    3d40:	10a7f004 	addi	r2,r2,-24640
    3d44:	10c00017 	ldw	r3,0(r2)
    3d48:	20c11a26 	beq	r4,r3,41b4 <alt_tse_phy_set_common_speed+0x4b4>
    3d4c:	10800104 	addi	r2,r2,4
    3d50:	002f883a 	mov	r23,zero
    3d54:	00000206 	br	3d60 <alt_tse_phy_set_common_speed+0x60>
    3d58:	10ffff17 	ldw	r3,-4(r2)
    3d5c:	90c0e926 	beq	r18,r3,4104 <alt_tse_phy_set_common_speed+0x404>
    3d60:	bdc00044 	addi	r23,r23,1
    3d64:	10800104 	addi	r2,r2,4
    3d68:	b9bffb16 	blt	r23,r6,3d58 <alt_tse_phy_set_common_speed+0x58>
    3d6c:	00bfffc4 	movi	r2,-1
    3d70:	d8800115 	stw	r2,4(sp)
    3d74:	90800117 	ldw	r2,4(r18)
    3d78:	10800217 	ldw	r2,8(r2)
    3d7c:	10800017 	ldw	r2,0(r2)
    3d80:	10c01004 	addi	r3,r2,64
    3d84:	d8800315 	stw	r2,12(sp)
    3d88:	d8c00215 	stw	r3,8(sp)
    3d8c:	18c00037 	ldwio	r3,0(r3)
    3d90:	00800084 	movi	r2,2
    3d94:	d8c00515 	stw	r3,20(sp)
    3d98:	14c10836 	bltu	r2,r19,41bc <alt_tse_phy_set_common_speed+0x4bc>
    3d9c:	91800003 	ldbu	r6,0(r18)
    3da0:	30005226 	beq	r6,zero,3eec <alt_tse_phy_set_common_speed+0x1ec>
    3da4:	9807d07a 	srai	r3,r19,1
    3da8:	94000104 	addi	r16,r18,4
    3dac:	0023883a 	mov	r17,zero
    3db0:	d8c00415 	stw	r3,16(sp)
    3db4:	05400044 	movi	r21,1
    3db8:	81400017 	ldw	r5,0(r16)
    3dbc:	28800317 	ldw	r2,12(r5)
    3dc0:	11000003 	ldbu	r4,0(r2)
    3dc4:	20000a26 	beq	r4,zero,3df0 <alt_tse_phy_set_common_speed+0xf0>
    3dc8:	10c00117 	ldw	r3,4(r2)
    3dcc:	28c0cb26 	beq	r5,r3,40fc <alt_tse_phy_set_common_speed+0x3fc>
    3dd0:	10800204 	addi	r2,r2,8
    3dd4:	0029883a 	mov	r20,zero
    3dd8:	00000206 	br	3de4 <alt_tse_phy_set_common_speed+0xe4>
    3ddc:	10ffff17 	ldw	r3,-4(r2)
    3de0:	28c00426 	beq	r5,r3,3df4 <alt_tse_phy_set_common_speed+0xf4>
    3de4:	a5000044 	addi	r20,r20,1
    3de8:	10800104 	addi	r2,r2,4
    3dec:	a13ffb16 	blt	r20,r4,3ddc <alt_tse_phy_set_common_speed+0xdc>
    3df0:	053fffc4 	movi	r20,-1
    3df4:	2dc00117 	ldw	r23,4(r5)
    3df8:	b8003926 	beq	r23,zero,3ee0 <alt_tse_phy_set_common_speed+0x1e0>
    3dfc:	b8800617 	ldw	r2,24(r23)
    3e00:	2d800217 	ldw	r22,8(r5)
    3e04:	b9000003 	ldbu	r4,0(r23)
    3e08:	10800317 	ldw	r2,12(r2)
    3e0c:	10800117 	ldw	r2,4(r2)
    3e10:	10800217 	ldw	r2,8(r2)
    3e14:	10800017 	ldw	r2,0(r2)
    3e18:	11001035 	stwio	r4,64(r2)
    3e1c:	b88000c3 	ldbu	r2,3(r23)
    3e20:	1000531e 	bne	r2,zero,3f70 <alt_tse_phy_set_common_speed+0x270>
    3e24:	b8800103 	ldbu	r2,4(r23)
    3e28:	1000511e 	bne	r2,zero,3f70 <alt_tse_phy_set_common_speed+0x270>
    3e2c:	b8800017 	ldw	r2,0(r23)
    3e30:	00c04034 	movhi	r3,256
    3e34:	18ffc004 	addi	r3,r3,-256
    3e38:	10c4703a 	and	r2,r2,r3
    3e3c:	10004c1e 	bne	r2,zero,3f70 <alt_tse_phy_set_common_speed+0x270>
    3e40:	00800084 	movi	r2,2
    3e44:	9880b426 	beq	r19,r2,4118 <alt_tse_phy_set_common_speed+0x418>
    3e48:	01400044 	movi	r5,1
    3e4c:	b809883a 	mov	r4,r23
    3e50:	018000c4 	movi	r6,3
    3e54:	280f883a 	mov	r7,r5
    3e58:	0001ae00 	call	1ae0 <alt_tse_phy_rd_mdio_reg>
    3e5c:	10005126 	beq	r2,zero,3fa4 <alt_tse_phy_set_common_speed+0x2a4>
    3e60:	0039883a 	mov	fp,zero
    3e64:	9d405e26 	beq	r19,r21,3fe0 <alt_tse_phy_set_common_speed+0x2e0>
    3e68:	000b883a 	mov	r5,zero
    3e6c:	b809883a 	mov	r4,r23
    3e70:	0002b800 	call	2b80 <alt_tse_phy_set_adv_1000>
    3e74:	b809883a 	mov	r4,r23
    3e78:	000b883a 	mov	r5,zero
    3e7c:	0002cc00 	call	2cc0 <alt_tse_phy_set_adv_100>
    3e80:	b809883a 	mov	r4,r23
    3e84:	01400044 	movi	r5,1
    3e88:	0002e600 	call	2e60 <alt_tse_phy_set_adv_10>
    3e8c:	01400044 	movi	r5,1
    3e90:	b809883a 	mov	r4,r23
    3e94:	01800144 	movi	r6,5
    3e98:	280f883a 	mov	r7,r5
    3e9c:	0001ae00 	call	1ae0 <alt_tse_phy_rd_mdio_reg>
    3ea0:	15405e26 	beq	r2,r21,401c <alt_tse_phy_set_common_speed+0x31c>
    3ea4:	b809883a 	mov	r4,r23
    3ea8:	01400044 	movi	r5,1
    3eac:	000d883a 	mov	r6,zero
    3eb0:	01c00404 	movi	r7,16
    3eb4:	0001ae00 	call	1ae0 <alt_tse_phy_rd_mdio_reg>
    3eb8:	d9800117 	ldw	r6,4(sp)
    3ebc:	a1c03fcc 	andi	r7,r20,255
    3ec0:	39c0201c 	xori	r7,r7,128
    3ec4:	d8800015 	stw	r2,0(sp)
    3ec8:	01000184 	movi	r4,6
    3ecc:	014000b4 	movhi	r5,2
    3ed0:	2955a604 	addi	r5,r5,22168
    3ed4:	39ffe004 	addi	r7,r7,-128
    3ed8:	00156600 	call	15660 <syslog>
    3edc:	91800003 	ldbu	r6,0(r18)
    3ee0:	8c400044 	addi	r17,r17,1
    3ee4:	84000104 	addi	r16,r16,4
    3ee8:	89bfb316 	blt	r17,r6,3db8 <alt_tse_phy_set_common_speed+0xb8>
    3eec:	00800084 	movi	r2,2
    3ef0:	98809626 	beq	r19,r2,414c <alt_tse_phy_set_common_speed+0x44c>
    3ef4:	00800044 	movi	r2,1
    3ef8:	01000184 	movi	r4,6
    3efc:	014000b4 	movhi	r5,2
    3f00:	2955b204 	addi	r5,r5,22216
    3f04:	d9800117 	ldw	r6,4(sp)
    3f08:	98809e26 	beq	r19,r2,4184 <alt_tse_phy_set_common_speed+0x484>
    3f0c:	01c00284 	movi	r7,10
    3f10:	00156600 	call	15660 <syslog>
    3f14:	d8c00317 	ldw	r3,12(sp)
    3f18:	18800204 	addi	r2,r3,8
    3f1c:	11000037 	ldwio	r4,0(r2)
    3f20:	00fffdc4 	movi	r3,-9
    3f24:	20c6703a 	and	r3,r4,r3
    3f28:	18c08034 	orhi	r3,r3,512
    3f2c:	10c00035 	stwio	r3,0(r2)
    3f30:	d8800517 	ldw	r2,20(sp)
    3f34:	d8c00217 	ldw	r3,8(sp)
    3f38:	18800035 	stwio	r2,0(r3)
    3f3c:	9805883a 	mov	r2,r19
    3f40:	dfc00f17 	ldw	ra,60(sp)
    3f44:	df000e17 	ldw	fp,56(sp)
    3f48:	ddc00d17 	ldw	r23,52(sp)
    3f4c:	dd800c17 	ldw	r22,48(sp)
    3f50:	dd400b17 	ldw	r21,44(sp)
    3f54:	dd000a17 	ldw	r20,40(sp)
    3f58:	dcc00917 	ldw	r19,36(sp)
    3f5c:	dc800817 	ldw	r18,32(sp)
    3f60:	dc400717 	ldw	r17,28(sp)
    3f64:	dc000617 	ldw	r16,24(sp)
    3f68:	dec01004 	addi	sp,sp,64
    3f6c:	f800283a 	ret
    3f70:	01400044 	movi	r5,1
    3f74:	b809883a 	mov	r4,r23
    3f78:	018000c4 	movi	r6,3
    3f7c:	280f883a 	mov	r7,r5
    3f80:	0001ae00 	call	1ae0 <alt_tse_phy_rd_mdio_reg>
    3f84:	1000121e 	bne	r2,zero,3fd0 <alt_tse_phy_set_common_speed+0x2d0>
    3f88:	d8c00417 	ldw	r3,16(sp)
    3f8c:	b809883a 	mov	r4,r23
    3f90:	000b883a 	mov	r5,zero
    3f94:	d8c00015 	stw	r3,0(sp)
    3f98:	01800184 	movi	r6,6
    3f9c:	01c00044 	movi	r7,1
    3fa0:	0001a400 	call	1a40 <alt_tse_phy_wr_mdio_reg>
    3fa4:	01800344 	movi	r6,13
    3fa8:	dcc00015 	stw	r19,0(sp)
    3fac:	b809883a 	mov	r4,r23
    3fb0:	000b883a 	mov	r5,zero
    3fb4:	01c00044 	movi	r7,1
    3fb8:	0001a400 	call	1a40 <alt_tse_phy_wr_mdio_reg>
    3fbc:	91800003 	ldbu	r6,0(r18)
    3fc0:	8c400044 	addi	r17,r17,1
    3fc4:	84000104 	addi	r16,r16,4
    3fc8:	89bf7b16 	blt	r17,r6,3db8 <alt_tse_phy_set_common_speed+0xb8>
    3fcc:	003fc706 	br	3eec <alt_tse_phy_set_common_speed+0x1ec>
    3fd0:	00800084 	movi	r2,2
    3fd4:	98803926 	beq	r19,r2,40bc <alt_tse_phy_set_common_speed+0x3bc>
    3fd8:	07000044 	movi	fp,1
    3fdc:	9d7fa21e 	bne	r19,r21,3e68 <alt_tse_phy_set_common_speed+0x168>
    3fe0:	b809883a 	mov	r4,r23
    3fe4:	000b883a 	mov	r5,zero
    3fe8:	0002b800 	call	2b80 <alt_tse_phy_set_adv_1000>
    3fec:	b809883a 	mov	r4,r23
    3ff0:	980b883a 	mov	r5,r19
    3ff4:	0002cc00 	call	2cc0 <alt_tse_phy_set_adv_100>
    3ff8:	b809883a 	mov	r4,r23
    3ffc:	980b883a 	mov	r5,r19
    4000:	0002e600 	call	2e60 <alt_tse_phy_set_adv_10>
    4004:	01400044 	movi	r5,1
    4008:	b809883a 	mov	r4,r23
    400c:	01800144 	movi	r6,5
    4010:	280f883a 	mov	r7,r5
    4014:	0001ae00 	call	1ae0 <alt_tse_phy_rd_mdio_reg>
    4018:	157fa21e 	bne	r2,r21,3ea4 <alt_tse_phy_set_common_speed+0x1a4>
    401c:	e7003fcc 	andi	fp,fp,255
    4020:	e0001f26 	beq	fp,zero,40a0 <alt_tse_phy_set_common_speed+0x3a0>
    4024:	b8800517 	ldw	r2,20(r23)
    4028:	b809883a 	mov	r4,r23
    402c:	01c00084 	movi	r7,2
    4030:	11401583 	ldbu	r5,86(r2)
    4034:	118015c3 	ldbu	r6,87(r2)
    4038:	0001ae00 	call	1ae0 <alt_tse_phy_rd_mdio_reg>
    403c:	10803fcc 	andi	r2,r2,255
    4040:	14c00426 	beq	r2,r19,4054 <alt_tse_phy_set_common_speed+0x354>
    4044:	b809883a 	mov	r4,r23
    4048:	01400134 	movhi	r5,4
    404c:	29742404 	addi	r5,r5,-12144
    4050:	00023c00 	call	23c0 <alt_tse_phy_restart_an>
    4054:	b8800517 	ldw	r2,20(r23)
    4058:	b809883a 	mov	r4,r23
    405c:	01c00044 	movi	r7,1
    4060:	11401583 	ldbu	r5,86(r2)
    4064:	11801603 	ldbu	r6,88(r2)
    4068:	0001ae00 	call	1ae0 <alt_tse_phy_rd_mdio_reg>
    406c:	b1000017 	ldw	r4,0(r22)
    4070:	21000204 	addi	r4,r4,8
    4074:	21400037 	ldwio	r5,0(r4)
    4078:	10803fcc 	andi	r2,r2,255
    407c:	1000031e 	bne	r2,zero,408c <alt_tse_phy_set_common_speed+0x38c>
    4080:	29410014 	ori	r5,r5,1024
    4084:	21400035 	stwio	r5,0(r4)
    4088:	003f8606 	br	3ea4 <alt_tse_phy_set_common_speed+0x1a4>
    408c:	157f851e 	bne	r2,r21,3ea4 <alt_tse_phy_set_common_speed+0x1a4>
    4090:	00beffc4 	movi	r2,-1025
    4094:	288a703a 	and	r5,r5,r2
    4098:	21400035 	stwio	r5,0(r4)
    409c:	003f8106 	br	3ea4 <alt_tse_phy_set_common_speed+0x1a4>
    40a0:	b8800517 	ldw	r2,20(r23)
    40a4:	b809883a 	mov	r4,r23
    40a8:	a80f883a 	mov	r7,r21
    40ac:	11401583 	ldbu	r5,86(r2)
    40b0:	118015c3 	ldbu	r6,87(r2)
    40b4:	0001ae00 	call	1ae0 <alt_tse_phy_rd_mdio_reg>
    40b8:	003fe006 	br	403c <alt_tse_phy_set_common_speed+0x33c>
    40bc:	01400044 	movi	r5,1
    40c0:	b809883a 	mov	r4,r23
    40c4:	0002b800 	call	2b80 <alt_tse_phy_set_adv_1000>
    40c8:	b809883a 	mov	r4,r23
    40cc:	01400044 	movi	r5,1
    40d0:	0002cc00 	call	2cc0 <alt_tse_phy_set_adv_100>
    40d4:	b809883a 	mov	r4,r23
    40d8:	01400044 	movi	r5,1
    40dc:	0002e600 	call	2e60 <alt_tse_phy_set_adv_10>
    40e0:	01400044 	movi	r5,1
    40e4:	b809883a 	mov	r4,r23
    40e8:	01800144 	movi	r6,5
    40ec:	280f883a 	mov	r7,r5
    40f0:	0001ae00 	call	1ae0 <alt_tse_phy_rd_mdio_reg>
    40f4:	157f6b1e 	bne	r2,r21,3ea4 <alt_tse_phy_set_common_speed+0x1a4>
    40f8:	003fca06 	br	4024 <alt_tse_phy_set_common_speed+0x324>
    40fc:	0029883a 	mov	r20,zero
    4100:	003f3c06 	br	3df4 <alt_tse_phy_set_common_speed+0xf4>
    4104:	bdc03fcc 	andi	r23,r23,255
    4108:	bdc0201c 	xori	r23,r23,128
    410c:	bdffe004 	addi	r23,r23,-128
    4110:	ddc00115 	stw	r23,4(sp)
    4114:	003f1706 	br	3d74 <alt_tse_phy_set_common_speed+0x74>
    4118:	a1c03fcc 	andi	r7,r20,255
    411c:	d9800117 	ldw	r6,4(sp)
    4120:	39c0201c 	xori	r7,r7,128
    4124:	01000184 	movi	r4,6
    4128:	014000b4 	movhi	r5,2
    412c:	29558f04 	addi	r5,r5,22076
    4130:	39ffe004 	addi	r7,r7,-128
    4134:	00156600 	call	15660 <syslog>
    4138:	d8800517 	ldw	r2,20(sp)
    413c:	d8c00217 	ldw	r3,8(sp)
    4140:	18800035 	stwio	r2,0(r3)
    4144:	04ffffc4 	movi	r19,-1
    4148:	003f7c06 	br	3f3c <alt_tse_phy_set_common_speed+0x23c>
    414c:	d9800117 	ldw	r6,4(sp)
    4150:	01000184 	movi	r4,6
    4154:	014000b4 	movhi	r5,2
    4158:	2955b204 	addi	r5,r5,22216
    415c:	01c0fa04 	movi	r7,1000
    4160:	00156600 	call	15660 <syslog>
    4164:	d8c00317 	ldw	r3,12(sp)
    4168:	18800204 	addi	r2,r3,8
    416c:	11000037 	ldwio	r4,0(r2)
    4170:	00ff8034 	movhi	r3,65024
    4174:	18ffffc4 	addi	r3,r3,-1
    4178:	20c6703a 	and	r3,r4,r3
    417c:	18c00214 	ori	r3,r3,8
    4180:	003f6a06 	br	3f2c <alt_tse_phy_set_common_speed+0x22c>
    4184:	01c01904 	movi	r7,100
    4188:	00156600 	call	15660 <syslog>
    418c:	d8c00317 	ldw	r3,12(sp)
    4190:	18800204 	addi	r2,r3,8
    4194:	11000037 	ldwio	r4,0(r2)
    4198:	00ff8034 	movhi	r3,65024
    419c:	18fffdc4 	addi	r3,r3,-9
    41a0:	20c6703a 	and	r3,r4,r3
    41a4:	003f6106 	br	3f2c <alt_tse_phy_set_common_speed+0x22c>
    41a8:	00ffffc4 	movi	r3,-1
    41ac:	d8c00115 	stw	r3,4(sp)
    41b0:	003ef006 	br	3d74 <alt_tse_phy_set_common_speed+0x74>
    41b4:	d8000115 	stw	zero,4(sp)
    41b8:	003eee06 	br	3d74 <alt_tse_phy_set_common_speed+0x74>
    41bc:	01000184 	movi	r4,6
    41c0:	014000b4 	movhi	r5,2
    41c4:	29557b04 	addi	r5,r5,21996
    41c8:	d9800117 	ldw	r6,4(sp)
    41cc:	980f883a 	mov	r7,r19
    41d0:	003fd806 	br	4134 <alt_tse_phy_set_common_speed+0x434>
    41d4:	0001883a 	nop
    41d8:	0001883a 	nop
    41dc:	0001883a 	nop

000041e0 <alt_tse_mac_set_common_speed>:
    41e0:	d2e02c03 	ldbu	r11,-32592(gp)
    41e4:	58001726 	beq	r11,zero,4244 <alt_tse_mac_set_common_speed+0x64>
    41e8:	024000f4 	movhi	r9,3
    41ec:	4a67f004 	addi	r9,r9,-24640
    41f0:	0015883a 	mov	r10,zero
    41f4:	48c00017 	ldw	r3,0(r9)
    41f8:	1a000003 	ldbu	r8,0(r3)
    41fc:	40000e26 	beq	r8,zero,4238 <alt_tse_mac_set_common_speed+0x58>
    4200:	19800117 	ldw	r6,4(r3)
    4204:	30800217 	ldw	r2,8(r6)
    4208:	10800017 	ldw	r2,0(r2)
    420c:	20800e26 	beq	r4,r2,4248 <alt_tse_mac_set_common_speed+0x68>
    4210:	18c00204 	addi	r3,r3,8
    4214:	0005883a 	mov	r2,zero
    4218:	00000506 	br	4230 <alt_tse_mac_set_common_speed+0x50>
    421c:	19800017 	ldw	r6,0(r3)
    4220:	18c00104 	addi	r3,r3,4
    4224:	31c00217 	ldw	r7,8(r6)
    4228:	39c00017 	ldw	r7,0(r7)
    422c:	21c00626 	beq	r4,r7,4248 <alt_tse_mac_set_common_speed+0x68>
    4230:	10800044 	addi	r2,r2,1
    4234:	123ff916 	blt	r2,r8,421c <alt_tse_mac_set_common_speed+0x3c>
    4238:	52800044 	addi	r10,r10,1
    423c:	4a400104 	addi	r9,r9,4
    4240:	52ffec16 	blt	r10,r11,41f4 <alt_tse_mac_set_common_speed+0x14>
    4244:	000d883a 	mov	r6,zero
    4248:	31000317 	ldw	r4,12(r6)
    424c:	0003d001 	jmpi	3d00 <alt_tse_phy_set_common_speed>
    4250:	0001883a 	nop
    4254:	0001883a 	nop
    4258:	0001883a 	nop
    425c:	0001883a 	nop

00004260 <marvell_cfg_gmii>:
    4260:	defffb04 	addi	sp,sp,-20
    4264:	dc800215 	stw	r18,8(sp)
    4268:	dc000015 	stw	r16,0(sp)
    426c:	2480bb04 	addi	r18,r4,748
    4270:	2021883a 	mov	r16,r4
    4274:	dfc00415 	stw	ra,16(sp)
    4278:	dcc00315 	stw	r19,12(sp)
    427c:	dc400115 	stw	r17,4(sp)
    4280:	94c00037 	ldwio	r19,0(r18)
    4284:	04400184 	movi	r17,6
    4288:	8809883a 	mov	r4,r17
    428c:	014000b4 	movhi	r5,2
    4290:	2955c304 	addi	r5,r5,22284
    4294:	9cfffc0c 	andi	r19,r19,65520
    4298:	00156600 	call	15660 <syslog>
    429c:	9cc003d4 	ori	r19,r19,15
    42a0:	94c00035 	stwio	r19,0(r18)
    42a4:	8809883a 	mov	r4,r17
    42a8:	014000b4 	movhi	r5,2
    42ac:	2955cf04 	addi	r5,r5,22332
    42b0:	00156600 	call	15660 <syslog>
    42b4:	8080b404 	addi	r2,r16,720
    42b8:	10c00037 	ldwio	r3,0(r2)
    42bc:	18ffdf4c 	andi	r3,r3,65405
    42c0:	10c00035 	stwio	r3,0(r2)
    42c4:	8809883a 	mov	r4,r17
    42c8:	014000b4 	movhi	r5,2
    42cc:	2951fd04 	addi	r5,r5,18420
    42d0:	00156600 	call	15660 <syslog>
    42d4:	8400a004 	addi	r16,r16,640
    42d8:	80800037 	ldwio	r2,0(r16)
    42dc:	10bfffcc 	andi	r2,r2,65535
    42e0:	10a00014 	ori	r2,r2,32768
    42e4:	80800035 	stwio	r2,0(r16)
    42e8:	00800044 	movi	r2,1
    42ec:	dfc00417 	ldw	ra,16(sp)
    42f0:	dcc00317 	ldw	r19,12(sp)
    42f4:	dc800217 	ldw	r18,8(sp)
    42f8:	dc400117 	ldw	r17,4(sp)
    42fc:	dc000017 	ldw	r16,0(sp)
    4300:	dec00504 	addi	sp,sp,20
    4304:	f800283a 	ret
    4308:	0001883a 	nop
    430c:	0001883a 	nop
    4310:	0001883a 	nop
    4314:	0001883a 	nop
    4318:	0001883a 	nop
    431c:	0001883a 	nop

00004320 <marvell_cfg_sgmii>:
    4320:	defffb04 	addi	sp,sp,-20
    4324:	dc800215 	stw	r18,8(sp)
    4328:	dc000015 	stw	r16,0(sp)
    432c:	2480bb04 	addi	r18,r4,748
    4330:	2021883a 	mov	r16,r4
    4334:	dfc00415 	stw	ra,16(sp)
    4338:	dcc00315 	stw	r19,12(sp)
    433c:	dc400115 	stw	r17,4(sp)
    4340:	94c00037 	ldwio	r19,0(r18)
    4344:	04400184 	movi	r17,6
    4348:	8809883a 	mov	r4,r17
    434c:	014000b4 	movhi	r5,2
    4350:	2955d904 	addi	r5,r5,22372
    4354:	9cfffc0c 	andi	r19,r19,65520
    4358:	00156600 	call	15660 <syslog>
    435c:	9cc00114 	ori	r19,r19,4
    4360:	94c00035 	stwio	r19,0(r18)
    4364:	8809883a 	mov	r4,r17
    4368:	014000b4 	movhi	r5,2
    436c:	2955cf04 	addi	r5,r5,22332
    4370:	00156600 	call	15660 <syslog>
    4374:	8080b404 	addi	r2,r16,720
    4378:	10c00037 	ldwio	r3,0(r2)
    437c:	18ffdf4c 	andi	r3,r3,65405
    4380:	10c00035 	stwio	r3,0(r2)
    4384:	8809883a 	mov	r4,r17
    4388:	014000b4 	movhi	r5,2
    438c:	2951fd04 	addi	r5,r5,18420
    4390:	00156600 	call	15660 <syslog>
    4394:	8400a004 	addi	r16,r16,640
    4398:	80800037 	ldwio	r2,0(r16)
    439c:	10bfffcc 	andi	r2,r2,65535
    43a0:	10a00014 	ori	r2,r2,32768
    43a4:	80800035 	stwio	r2,0(r16)
    43a8:	00800044 	movi	r2,1
    43ac:	dfc00417 	ldw	ra,16(sp)
    43b0:	dcc00317 	ldw	r19,12(sp)
    43b4:	dc800217 	ldw	r18,8(sp)
    43b8:	dc400117 	ldw	r17,4(sp)
    43bc:	dc000017 	ldw	r16,0(sp)
    43c0:	dec00504 	addi	sp,sp,20
    43c4:	f800283a 	ret
    43c8:	0001883a 	nop
    43cc:	0001883a 	nop
    43d0:	0001883a 	nop
    43d4:	0001883a 	nop
    43d8:	0001883a 	nop
    43dc:	0001883a 	nop

000043e0 <marvell_cfg_rgmii>:
    43e0:	defffb04 	addi	sp,sp,-20
    43e4:	dc800215 	stw	r18,8(sp)
    43e8:	dc000015 	stw	r16,0(sp)
    43ec:	2480bb04 	addi	r18,r4,748
    43f0:	2021883a 	mov	r16,r4
    43f4:	dfc00415 	stw	ra,16(sp)
    43f8:	dcc00315 	stw	r19,12(sp)
    43fc:	dc400115 	stw	r17,4(sp)
    4400:	94c00037 	ldwio	r19,0(r18)
    4404:	04400184 	movi	r17,6
    4408:	8809883a 	mov	r4,r17
    440c:	014000b4 	movhi	r5,2
    4410:	2955ee04 	addi	r5,r5,22456
    4414:	9cfffc0c 	andi	r19,r19,65520
    4418:	00156600 	call	15660 <syslog>
    441c:	9cc002d4 	ori	r19,r19,11
    4420:	94c00035 	stwio	r19,0(r18)
    4424:	8809883a 	mov	r4,r17
    4428:	014000b4 	movhi	r5,2
    442c:	2955fe04 	addi	r5,r5,22520
    4430:	00156600 	call	15660 <syslog>
    4434:	8080b404 	addi	r2,r16,720
    4438:	10c00037 	ldwio	r3,0(r2)
    443c:	18ffdf4c 	andi	r3,r3,65405
    4440:	18c02094 	ori	r3,r3,130
    4444:	10c00035 	stwio	r3,0(r2)
    4448:	8809883a 	mov	r4,r17
    444c:	014000b4 	movhi	r5,2
    4450:	2951fd04 	addi	r5,r5,18420
    4454:	00156600 	call	15660 <syslog>
    4458:	8400a004 	addi	r16,r16,640
    445c:	80800037 	ldwio	r2,0(r16)
    4460:	10bfffcc 	andi	r2,r2,65535
    4464:	10a00014 	ori	r2,r2,32768
    4468:	80800035 	stwio	r2,0(r16)
    446c:	00800044 	movi	r2,1
    4470:	dfc00417 	ldw	ra,16(sp)
    4474:	dcc00317 	ldw	r19,12(sp)
    4478:	dc800217 	ldw	r18,8(sp)
    447c:	dc400117 	ldw	r17,4(sp)
    4480:	dc000017 	ldw	r16,0(sp)
    4484:	dec00504 	addi	sp,sp,20
    4488:	f800283a 	ret
	...

000044a0 <alt_ic_irq_enable>:
    44a0:	2000141e 	bne	r4,zero,44f4 <alt_ic_irq_enable+0x54>
    44a4:	008000f4 	movhi	r2,3
    44a8:	10a7a004 	addi	r2,r2,-24960
    44ac:	10800017 	ldw	r2,0(r2)
    44b0:	10c00217 	ldw	r3,8(r2)
    44b4:	28c00f2e 	bgeu	r5,r3,44f4 <alt_ic_irq_enable+0x54>
    44b8:	0007303a 	rdctl	r3,status
    44bc:	013fff84 	movi	r4,-2
    44c0:	190c703a 	and	r6,r3,r4
    44c4:	3001703a 	wrctl	status,r6
    44c8:	01800044 	movi	r6,1
    44cc:	10800017 	ldw	r2,0(r2)
    44d0:	314a983a 	sll	r5,r6,r5
    44d4:	11402135 	stwio	r5,132(r2)
    44d8:	0005303a 	rdctl	r2,status
    44dc:	1108703a 	and	r4,r2,r4
    44e0:	1986703a 	and	r3,r3,r6
    44e4:	1906b03a 	or	r3,r3,r4
    44e8:	1801703a 	wrctl	status,r3
    44ec:	0005883a 	mov	r2,zero
    44f0:	f800283a 	ret
    44f4:	00bfffc4 	movi	r2,-1
    44f8:	f800283a 	ret
    44fc:	0001883a 	nop

00004500 <alt_ic_irq_disable>:
    4500:	2000141e 	bne	r4,zero,4554 <alt_ic_irq_disable+0x54>
    4504:	008000f4 	movhi	r2,3
    4508:	10a7a004 	addi	r2,r2,-24960
    450c:	10800017 	ldw	r2,0(r2)
    4510:	10c00217 	ldw	r3,8(r2)
    4514:	28c00f2e 	bgeu	r5,r3,4554 <alt_ic_irq_disable+0x54>
    4518:	0007303a 	rdctl	r3,status
    451c:	013fff84 	movi	r4,-2
    4520:	190c703a 	and	r6,r3,r4
    4524:	3001703a 	wrctl	status,r6
    4528:	01800044 	movi	r6,1
    452c:	10800017 	ldw	r2,0(r2)
    4530:	314a983a 	sll	r5,r6,r5
    4534:	11402235 	stwio	r5,136(r2)
    4538:	0005303a 	rdctl	r2,status
    453c:	1108703a 	and	r4,r2,r4
    4540:	1986703a 	and	r3,r3,r6
    4544:	1906b03a 	or	r3,r3,r4
    4548:	1801703a 	wrctl	status,r3
    454c:	0005883a 	mov	r2,zero
    4550:	f800283a 	ret
    4554:	00bfffc4 	movi	r2,-1
    4558:	f800283a 	ret
    455c:	0001883a 	nop

00004560 <alt_ic_irq_enabled>:
    4560:	2000051e 	bne	r4,zero,4578 <alt_ic_irq_enabled+0x18>
    4564:	008000f4 	movhi	r2,3
    4568:	10a7a004 	addi	r2,r2,-24960
    456c:	10800017 	ldw	r2,0(r2)
    4570:	10c00217 	ldw	r3,8(r2)
    4574:	28c00236 	bltu	r5,r3,4580 <alt_ic_irq_enabled+0x20>
    4578:	0005883a 	mov	r2,zero
    457c:	f800283a 	ret
    4580:	10800017 	ldw	r2,0(r2)
    4584:	10802037 	ldwio	r2,128(r2)
    4588:	00c00044 	movi	r3,1
    458c:	194a983a 	sll	r5,r3,r5
    4590:	1144703a 	and	r2,r2,r5
    4594:	1004c03a 	cmpne	r2,r2,zero
    4598:	f800283a 	ret
    459c:	00000000 	call	0 <__alt_mem_ext_flash>

000045a0 <alt_vic_irq_init>:
    45a0:	20800117 	ldw	r2,4(r4)
    45a4:	20c00017 	ldw	r3,0(r4)
    45a8:	d1602d04 	addi	r5,gp,-32588
    45ac:	1085883a 	add	r2,r2,r2
    45b0:	1085883a 	add	r2,r2,r2
    45b4:	2885883a 	add	r2,r5,r2
    45b8:	11000015 	stw	r4,0(r2)
    45bc:	00bfffc4 	movi	r2,-1
    45c0:	18802235 	stwio	r2,136(r3)
    45c4:	20800217 	ldw	r2,8(r4)
    45c8:	10000d26 	beq	r2,zero,4600 <alt_vic_irq_init+0x60>
    45cc:	023ff904 	movi	r8,-28
    45d0:	20800704 	addi	r2,r4,28
    45d4:	0007883a 	mov	r3,zero
    45d8:	4111c83a 	sub	r8,r8,r4
    45dc:	21c00017 	ldw	r7,0(r4)
    45e0:	11800017 	ldw	r6,0(r2)
    45e4:	408b883a 	add	r5,r8,r2
    45e8:	394b883a 	add	r5,r7,r5
    45ec:	29800035 	stwio	r6,0(r5)
    45f0:	21400217 	ldw	r5,8(r4)
    45f4:	18c00044 	addi	r3,r3,1
    45f8:	10800104 	addi	r2,r2,4
    45fc:	197ff736 	bltu	r3,r5,45dc <alt_vic_irq_init+0x3c>
    4600:	21800517 	ldw	r6,20(r4)
    4604:	008000b4 	movhi	r2,2
    4608:	10962104 	addi	r2,r2,22660
    460c:	0007883a 	mov	r3,zero
    4610:	01c00204 	movi	r7,8
    4614:	11400017 	ldw	r5,0(r2)
    4618:	10800104 	addi	r2,r2,4
    461c:	29800626 	beq	r5,r6,4638 <alt_vic_irq_init+0x98>
    4620:	18c00044 	addi	r3,r3,1
    4624:	19fffb1e 	bne	r3,r7,4614 <alt_vic_irq_init+0x74>
    4628:	20800017 	ldw	r2,0(r4)
    462c:	20c00617 	ldw	r3,24(r4)
    4630:	10c02a35 	stwio	r3,168(r2)
    4634:	f800283a 	ret
    4638:	21400417 	ldw	r5,16(r4)
    463c:	20800017 	ldw	r2,0(r4)
    4640:	280a90fa 	slli	r5,r5,3
    4644:	1946b03a 	or	r3,r3,r5
    4648:	10c02835 	stwio	r3,160(r2)
    464c:	20800017 	ldw	r2,0(r4)
    4650:	20c00617 	ldw	r3,24(r4)
    4654:	10c02a35 	stwio	r3,168(r2)
    4658:	f800283a 	ret
    465c:	00000000 	call	0 <__alt_mem_ext_flash>

00004660 <alt_ic_isr_register>:
    4660:	2000251e 	bne	r4,zero,46f8 <alt_ic_isr_register+0x98>
    4664:	008000f4 	movhi	r2,3
    4668:	10a7a004 	addi	r2,r2,-24960
    466c:	10800017 	ldw	r2,0(r2)
    4670:	10c00217 	ldw	r3,8(r2)
    4674:	28c0202e 	bgeu	r5,r3,46f8 <alt_ic_isr_register+0x98>
    4678:	0007303a 	rdctl	r3,status
    467c:	013fff84 	movi	r4,-2
    4680:	1908703a 	and	r4,r3,r4
    4684:	2001703a 	wrctl	status,r4
    4688:	11000517 	ldw	r4,20(r2)
    468c:	12000617 	ldw	r8,24(r2)
    4690:	10800017 	ldw	r2,0(r2)
    4694:	2909383a 	mul	r4,r5,r4
    4698:	4109883a 	add	r4,r8,r4
    469c:	21800215 	stw	r6,8(r4)
    46a0:	21c00315 	stw	r7,12(r4)
    46a4:	01000044 	movi	r4,1
    46a8:	214a983a 	sll	r5,r4,r5
    46ac:	30000926 	beq	r6,zero,46d4 <alt_ic_isr_register+0x74>
    46b0:	11402135 	stwio	r5,132(r2)
    46b4:	0009303a 	rdctl	r4,status
    46b8:	00bfff84 	movi	r2,-2
    46bc:	2084703a 	and	r2,r4,r2
    46c0:	18c0004c 	andi	r3,r3,1
    46c4:	10c6b03a 	or	r3,r2,r3
    46c8:	1801703a 	wrctl	status,r3
    46cc:	0005883a 	mov	r2,zero
    46d0:	f800283a 	ret
    46d4:	11402235 	stwio	r5,136(r2)
    46d8:	0009303a 	rdctl	r4,status
    46dc:	00bfff84 	movi	r2,-2
    46e0:	2084703a 	and	r2,r4,r2
    46e4:	18c0004c 	andi	r3,r3,1
    46e8:	10c6b03a 	or	r3,r2,r3
    46ec:	1801703a 	wrctl	status,r3
    46f0:	0005883a 	mov	r2,zero
    46f4:	f800283a 	ret
    46f8:	00bfffc4 	movi	r2,-1
    46fc:	f800283a 	ret

00004700 <alt_vic_sw_interrupt_set>:
    4700:	20000b1e 	bne	r4,zero,4730 <alt_vic_sw_interrupt_set+0x30>
    4704:	008000f4 	movhi	r2,3
    4708:	10a7a004 	addi	r2,r2,-24960
    470c:	10800017 	ldw	r2,0(r2)
    4710:	10c00217 	ldw	r3,8(r2)
    4714:	28c0062e 	bgeu	r5,r3,4730 <alt_vic_sw_interrupt_set+0x30>
    4718:	00c00044 	movi	r3,1
    471c:	10800017 	ldw	r2,0(r2)
    4720:	194a983a 	sll	r5,r3,r5
    4724:	11402635 	stwio	r5,152(r2)
    4728:	0005883a 	mov	r2,zero
    472c:	f800283a 	ret
    4730:	00bfffc4 	movi	r2,-1
    4734:	f800283a 	ret
    4738:	0001883a 	nop
    473c:	0001883a 	nop

00004740 <alt_vic_sw_interrupt_clear>:
    4740:	20000b1e 	bne	r4,zero,4770 <alt_vic_sw_interrupt_clear+0x30>
    4744:	008000f4 	movhi	r2,3
    4748:	10a7a004 	addi	r2,r2,-24960
    474c:	10800017 	ldw	r2,0(r2)
    4750:	10c00217 	ldw	r3,8(r2)
    4754:	28c0062e 	bgeu	r5,r3,4770 <alt_vic_sw_interrupt_clear+0x30>
    4758:	00c00044 	movi	r3,1
    475c:	10800017 	ldw	r2,0(r2)
    4760:	194a983a 	sll	r5,r3,r5
    4764:	11402735 	stwio	r5,156(r2)
    4768:	0005883a 	mov	r2,zero
    476c:	f800283a 	ret
    4770:	00bfffc4 	movi	r2,-1
    4774:	f800283a 	ret
    4778:	0001883a 	nop
    477c:	0001883a 	nop

00004780 <alt_vic_sw_interrupt_status>:
    4780:	2000051e 	bne	r4,zero,4798 <alt_vic_sw_interrupt_status+0x18>
    4784:	008000f4 	movhi	r2,3
    4788:	10a7a004 	addi	r2,r2,-24960
    478c:	10800017 	ldw	r2,0(r2)
    4790:	10c00217 	ldw	r3,8(r2)
    4794:	28c00236 	bltu	r5,r3,47a0 <alt_vic_sw_interrupt_status+0x20>
    4798:	0005883a 	mov	r2,zero
    479c:	f800283a 	ret
    47a0:	10800017 	ldw	r2,0(r2)
    47a4:	10802537 	ldwio	r2,148(r2)
    47a8:	00c00044 	movi	r3,1
    47ac:	194a983a 	sll	r5,r3,r5
    47b0:	1144703a 	and	r2,r2,r5
    47b4:	1004c03a 	cmpne	r2,r2,zero
    47b8:	f800283a 	ret
    47bc:	00000000 	call	0 <__alt_mem_ext_flash>

000047c0 <alt_vic_irq_set_level>:
    47c0:	20001e1e 	bne	r4,zero,483c <alt_vic_irq_set_level+0x7c>
    47c4:	008000f4 	movhi	r2,3
    47c8:	10a7a004 	addi	r2,r2,-24960
    47cc:	10800017 	ldw	r2,0(r2)
    47d0:	10c00217 	ldw	r3,8(r2)
    47d4:	28c0192e 	bgeu	r5,r3,483c <alt_vic_irq_set_level+0x7c>
    47d8:	10c00317 	ldw	r3,12(r2)
    47dc:	01000044 	movi	r4,1
    47e0:	20c6983a 	sll	r3,r4,r3
    47e4:	30c0152e 	bgeu	r6,r3,483c <alt_vic_irq_set_level+0x7c>
    47e8:	10800017 	ldw	r2,0(r2)
    47ec:	294b883a 	add	r5,r5,r5
    47f0:	294b883a 	add	r5,r5,r5
    47f4:	114b883a 	add	r5,r2,r5
    47f8:	29000037 	ldwio	r4,0(r5)
    47fc:	00bff004 	movi	r2,-64
    4800:	2088703a 	and	r4,r4,r2
    4804:	0005303a 	rdctl	r2,status
    4808:	00ffff84 	movi	r3,-2
    480c:	10ce703a 	and	r7,r2,r3
    4810:	3801703a 	wrctl	status,r7
    4814:	31800fcc 	andi	r6,r6,63
    4818:	218cb03a 	or	r6,r4,r6
    481c:	29800035 	stwio	r6,0(r5)
    4820:	0009303a 	rdctl	r4,status
    4824:	20c6703a 	and	r3,r4,r3
    4828:	1080004c 	andi	r2,r2,1
    482c:	10c4b03a 	or	r2,r2,r3
    4830:	1001703a 	wrctl	status,r2
    4834:	0005883a 	mov	r2,zero
    4838:	f800283a 	ret
    483c:	00bfffc4 	movi	r2,-1
    4840:	f800283a 	ret
	...

00004860 <usleep>:
    4860:	00048801 	jmpi	4880 <alt_busy_sleep>
	...

00004880 <alt_busy_sleep>:
    4880:	00c0f874 	movhi	r3,993
    4884:	18fe0f84 	addi	r3,r3,-1986
    4888:	20c7203a 	divu	r3,r4,r3
    488c:	18000f26 	beq	r3,zero,48cc <alt_busy_sleep+0x4c>
    4890:	0005883a 	mov	r2,zero
    4894:	01a00034 	movhi	r6,32768
    4898:	31bfffc4 	addi	r6,r6,-1
    489c:	017f07f4 	movhi	r5,64543
    48a0:	2941f084 	addi	r5,r5,1986
    48a4:	31bfffc4 	addi	r6,r6,-1
    48a8:	303ffe1e 	bne	r6,zero,48a4 <alt_busy_sleep+0x24>
    48ac:	10800044 	addi	r2,r2,1
    48b0:	2149883a 	add	r4,r4,r5
    48b4:	10fffb16 	blt	r2,r3,48a4 <alt_busy_sleep+0x24>
    48b8:	21000864 	muli	r4,r4,33
    48bc:	213fffc4 	addi	r4,r4,-1
    48c0:	203ffe1e 	bne	r4,zero,48bc <alt_busy_sleep+0x3c>
    48c4:	0005883a 	mov	r2,zero
    48c8:	f800283a 	ret
    48cc:	21000864 	muli	r4,r4,33
    48d0:	213fffc4 	addi	r4,r4,-1
    48d4:	013ffe16 	blt	zero,r4,48d0 <alt_busy_sleep+0x50>
    48d8:	0005883a 	mov	r2,zero
    48dc:	f800283a 	ret

000048e0 <alt_dcache_flush>:
    48e0:	f800283a 	ret
	...

00004900 <alt_remap_uncached>:
    4900:	defffe04 	addi	sp,sp,-8
    4904:	dc000015 	stw	r16,0(sp)
    4908:	dfc00115 	stw	ra,4(sp)
    490c:	2021883a 	mov	r16,r4
    4910:	00048e00 	call	48e0 <alt_dcache_flush>
    4914:	80a00034 	orhi	r2,r16,32768
    4918:	dfc00117 	ldw	ra,4(sp)
    491c:	dc000017 	ldw	r16,0(sp)
    4920:	dec00204 	addi	sp,sp,8
    4924:	f800283a 	ret
	...

00004940 <alt_uncached_malloc>:
    4940:	defffd04 	addi	sp,sp,-12
    4944:	dc400115 	stw	r17,4(sp)
    4948:	dc000015 	stw	r16,0(sp)
    494c:	2023883a 	mov	r17,r4
    4950:	dfc00215 	stw	ra,8(sp)
    4954:	001ae8c0 	call	1ae8c <malloc>
    4958:	1021883a 	mov	r16,r2
    495c:	1009883a 	mov	r4,r2
    4960:	880b883a 	mov	r5,r17
    4964:	00048e00 	call	48e0 <alt_dcache_flush>
    4968:	80000626 	beq	r16,zero,4984 <alt_uncached_malloc+0x44>
    496c:	80a00034 	orhi	r2,r16,32768
    4970:	dfc00217 	ldw	ra,8(sp)
    4974:	dc400117 	ldw	r17,4(sp)
    4978:	dc000017 	ldw	r16,0(sp)
    497c:	dec00304 	addi	sp,sp,12
    4980:	f800283a 	ret
    4984:	0005883a 	mov	r2,zero
    4988:	003ff906 	br	4970 <alt_uncached_malloc+0x30>
	...

000049a0 <_do_ctors>:
    49a0:	defffc04 	addi	sp,sp,-16
    49a4:	dc800215 	stw	r18,8(sp)
    49a8:	dc000015 	stw	r16,0(sp)
    49ac:	dfc00315 	stw	ra,12(sp)
    49b0:	dc400115 	stw	r17,4(sp)
    49b4:	040000b4 	movhi	r16,2
    49b8:	8411eb04 	addi	r16,r16,18348
    49bc:	048000b4 	movhi	r18,2
    49c0:	9491ec04 	addi	r18,r18,18352
    49c4:	84800936 	bltu	r16,r18,49ec <_do_ctors+0x4c>
    49c8:	84a5c83a 	sub	r18,r16,r18
    49cc:	9024d0ba 	srli	r18,r18,2
    49d0:	0023883a 	mov	r17,zero
    49d4:	94800044 	addi	r18,r18,1
    49d8:	80800017 	ldw	r2,0(r16)
    49dc:	8c400044 	addi	r17,r17,1
    49e0:	843fff04 	addi	r16,r16,-4
    49e4:	103ee83a 	callr	r2
    49e8:	8cbffb1e 	bne	r17,r18,49d8 <_do_ctors+0x38>
    49ec:	dfc00317 	ldw	ra,12(sp)
    49f0:	dc800217 	ldw	r18,8(sp)
    49f4:	dc400117 	ldw	r17,4(sp)
    49f8:	dc000017 	ldw	r16,0(sp)
    49fc:	dec00404 	addi	sp,sp,16
    4a00:	f800283a 	ret
	...

00004a20 <_do_dtors>:
    4a20:	defffc04 	addi	sp,sp,-16
    4a24:	dc800215 	stw	r18,8(sp)
    4a28:	dc000015 	stw	r16,0(sp)
    4a2c:	dfc00315 	stw	ra,12(sp)
    4a30:	dc400115 	stw	r17,4(sp)
    4a34:	040000b4 	movhi	r16,2
    4a38:	8411eb04 	addi	r16,r16,18348
    4a3c:	048000b4 	movhi	r18,2
    4a40:	9491ec04 	addi	r18,r18,18352
    4a44:	84800936 	bltu	r16,r18,4a6c <_do_dtors+0x4c>
    4a48:	84a5c83a 	sub	r18,r16,r18
    4a4c:	9024d0ba 	srli	r18,r18,2
    4a50:	0023883a 	mov	r17,zero
    4a54:	94800044 	addi	r18,r18,1
    4a58:	80800017 	ldw	r2,0(r16)
    4a5c:	8c400044 	addi	r17,r17,1
    4a60:	843fff04 	addi	r16,r16,-4
    4a64:	103ee83a 	callr	r2
    4a68:	8cbffb1e 	bne	r17,r18,4a58 <_do_dtors+0x38>
    4a6c:	dfc00317 	ldw	ra,12(sp)
    4a70:	dc800217 	ldw	r18,8(sp)
    4a74:	dc400117 	ldw	r17,4(sp)
    4a78:	dc000017 	ldw	r16,0(sp)
    4a7c:	dec00404 	addi	sp,sp,16
    4a80:	f800283a 	ret
	...

00004aa0 <alt_dev_null_write>:
    4aa0:	3005883a 	mov	r2,r6
    4aa4:	f800283a 	ret
	...

00004ac0 <alt_dev_llist_insert>:
    4ac0:	deffff04 	addi	sp,sp,-4
    4ac4:	dfc00015 	stw	ra,0(sp)
    4ac8:	20000c26 	beq	r4,zero,4afc <alt_dev_llist_insert+0x3c>
    4acc:	20800217 	ldw	r2,8(r4)
    4ad0:	10000a26 	beq	r2,zero,4afc <alt_dev_llist_insert+0x3c>
    4ad4:	28c00017 	ldw	r3,0(r5)
    4ad8:	21400115 	stw	r5,4(r4)
    4adc:	0005883a 	mov	r2,zero
    4ae0:	20c00015 	stw	r3,0(r4)
    4ae4:	28c00017 	ldw	r3,0(r5)
    4ae8:	29000015 	stw	r4,0(r5)
    4aec:	19000115 	stw	r4,4(r3)
    4af0:	dfc00017 	ldw	ra,0(sp)
    4af4:	dec00104 	addi	sp,sp,4
    4af8:	f800283a 	ret
    4afc:	008000f4 	movhi	r2,3
    4b00:	10a77f04 	addi	r2,r2,-25092
    4b04:	10800017 	ldw	r2,0(r2)
    4b08:	10000526 	beq	r2,zero,4b20 <alt_dev_llist_insert+0x60>
    4b0c:	103ee83a 	callr	r2
    4b10:	00c00584 	movi	r3,22
    4b14:	10c00015 	stw	r3,0(r2)
    4b18:	00bffa84 	movi	r2,-22
    4b1c:	003ff406 	br	4af0 <alt_dev_llist_insert+0x30>
    4b20:	008000f4 	movhi	r2,3
    4b24:	10a7e804 	addi	r2,r2,-24672
    4b28:	003ff906 	br	4b10 <alt_dev_llist_insert+0x50>
	...

00004b40 <alt_find_dev>:
    4b40:	defffb04 	addi	sp,sp,-20
    4b44:	dc000015 	stw	r16,0(sp)
    4b48:	2c000017 	ldw	r16,0(r5)
    4b4c:	dcc00315 	stw	r19,12(sp)
    4b50:	dc800215 	stw	r18,8(sp)
    4b54:	dc400115 	stw	r17,4(sp)
    4b58:	dfc00415 	stw	ra,16(sp)
    4b5c:	2823883a 	mov	r17,r5
    4b60:	2027883a 	mov	r19,r4
    4b64:	001bb240 	call	1bb24 <strlen>
    4b68:	14800044 	addi	r18,r2,1
    4b6c:	8c00031e 	bne	r17,r16,4b7c <alt_find_dev+0x3c>
    4b70:	00000f06 	br	4bb0 <alt_find_dev+0x70>
    4b74:	84000017 	ldw	r16,0(r16)
    4b78:	8c000d26 	beq	r17,r16,4bb0 <alt_find_dev+0x70>
    4b7c:	81000217 	ldw	r4,8(r16)
    4b80:	980b883a 	mov	r5,r19
    4b84:	900d883a 	mov	r6,r18
    4b88:	001b6380 	call	1b638 <memcmp>
    4b8c:	103ff91e 	bne	r2,zero,4b74 <alt_find_dev+0x34>
    4b90:	8005883a 	mov	r2,r16
    4b94:	dfc00417 	ldw	ra,16(sp)
    4b98:	dcc00317 	ldw	r19,12(sp)
    4b9c:	dc800217 	ldw	r18,8(sp)
    4ba0:	dc400117 	ldw	r17,4(sp)
    4ba4:	dc000017 	ldw	r16,0(sp)
    4ba8:	dec00504 	addi	sp,sp,20
    4bac:	f800283a 	ret
    4bb0:	0021883a 	mov	r16,zero
    4bb4:	8005883a 	mov	r2,r16
    4bb8:	dfc00417 	ldw	ra,16(sp)
    4bbc:	dcc00317 	ldw	r19,12(sp)
    4bc0:	dc800217 	ldw	r18,8(sp)
    4bc4:	dc400117 	ldw	r17,4(sp)
    4bc8:	dc000017 	ldw	r16,0(sp)
    4bcc:	dec00504 	addi	sp,sp,20
    4bd0:	f800283a 	ret
	...

00004be0 <alt_open_fd.constprop.0>:
    4be0:	defffe04 	addi	sp,sp,-8
    4be4:	dc000015 	stw	r16,0(sp)
    4be8:	2021883a 	mov	r16,r4
    4bec:	2809883a 	mov	r4,r5
    4bf0:	300b883a 	mov	r5,r6
    4bf4:	01807fc4 	movi	r6,511
    4bf8:	dfc00115 	stw	ra,4(sp)
    4bfc:	00247640 	call	24764 <open>
    4c00:	10000f16 	blt	r2,zero,4c40 <alt_open_fd.constprop.0+0x60>
    4c04:	10c00324 	muli	r3,r2,12
    4c08:	1009883a 	mov	r4,r2
    4c0c:	008000f4 	movhi	r2,3
    4c10:	10a4f004 	addi	r2,r2,-27712
    4c14:	10c5883a 	add	r2,r2,r3
    4c18:	11400017 	ldw	r5,0(r2)
    4c1c:	10c00117 	ldw	r3,4(r2)
    4c20:	10800217 	ldw	r2,8(r2)
    4c24:	81400015 	stw	r5,0(r16)
    4c28:	80c00115 	stw	r3,4(r16)
    4c2c:	80800215 	stw	r2,8(r16)
    4c30:	dfc00117 	ldw	ra,4(sp)
    4c34:	dc000017 	ldw	r16,0(sp)
    4c38:	dec00204 	addi	sp,sp,8
    4c3c:	0004d801 	jmpi	4d80 <alt_release_fd>
    4c40:	dfc00117 	ldw	ra,4(sp)
    4c44:	dc000017 	ldw	r16,0(sp)
    4c48:	dec00204 	addi	sp,sp,8
    4c4c:	f800283a 	ret
    4c50:	0001883a 	nop
    4c54:	0001883a 	nop
    4c58:	0001883a 	nop
    4c5c:	0001883a 	nop

00004c60 <alt_io_redirect>:
    4c60:	defffb04 	addi	sp,sp,-20
    4c64:	2005883a 	mov	r2,r4
    4c68:	dc400115 	stw	r17,4(sp)
    4c6c:	dc000015 	stw	r16,0(sp)
    4c70:	04400044 	movi	r17,1
    4c74:	040000f4 	movhi	r16,3
    4c78:	8424f304 	addi	r16,r16,-27700
    4c7c:	dcc00315 	stw	r19,12(sp)
    4c80:	dc800215 	stw	r18,8(sp)
    4c84:	2827883a 	mov	r19,r5
    4c88:	3025883a 	mov	r18,r6
    4c8c:	100b883a 	mov	r5,r2
    4c90:	8009883a 	mov	r4,r16
    4c94:	880d883a 	mov	r6,r17
    4c98:	dfc00415 	stw	ra,16(sp)
    4c9c:	0004be00 	call	4be0 <alt_open_fd.constprop.0>
    4ca0:	813ffd04 	addi	r4,r16,-12
    4ca4:	980b883a 	mov	r5,r19
    4ca8:	000d883a 	mov	r6,zero
    4cac:	0004be00 	call	4be0 <alt_open_fd.constprop.0>
    4cb0:	81000304 	addi	r4,r16,12
    4cb4:	900b883a 	mov	r5,r18
    4cb8:	880d883a 	mov	r6,r17
    4cbc:	dfc00417 	ldw	ra,16(sp)
    4cc0:	dcc00317 	ldw	r19,12(sp)
    4cc4:	dc800217 	ldw	r18,8(sp)
    4cc8:	dc400117 	ldw	r17,4(sp)
    4ccc:	dc000017 	ldw	r16,0(sp)
    4cd0:	dec00504 	addi	sp,sp,20
    4cd4:	0004be01 	jmpi	4be0 <alt_open_fd.constprop.0>
	...

00004ce0 <alt_main>:
    4ce0:	defffe04 	addi	sp,sp,-8
    4ce4:	dfc00115 	stw	ra,4(sp)
    4ce8:	dc000015 	stw	r16,0(sp)
    4cec:	0004dc00 	call	4dc0 <alt_sys_init>
    4cf0:	010000b4 	movhi	r4,2
    4cf4:	21162c04 	addi	r4,r4,22704
    4cf8:	200b883a 	mov	r5,r4
    4cfc:	200d883a 	mov	r6,r4
    4d00:	0004c600 	call	4c60 <alt_io_redirect>
    4d04:	00049a00 	call	49a0 <_do_ctors>
    4d08:	01000034 	movhi	r4,0
    4d0c:	21128804 	addi	r4,r4,18976
    4d10:	001ae400 	call	1ae40 <atexit>
    4d14:	d1203017 	ldw	r4,-32576(gp)
    4d18:	d1602f17 	ldw	r5,-32580(gp)
    4d1c:	d1a02e17 	ldw	r6,-32584(gp)
    4d20:	0014fa00 	call	14fa0 <main>
    4d24:	01000044 	movi	r4,1
    4d28:	1021883a 	mov	r16,r2
    4d2c:	00246900 	call	24690 <close>
    4d30:	8009883a 	mov	r4,r16
    4d34:	001ae540 	call	1ae54 <exit>
	...

00004d40 <__malloc_lock>:
    4d40:	f800283a 	ret
    4d44:	0001883a 	nop
    4d48:	0001883a 	nop
    4d4c:	0001883a 	nop
    4d50:	0001883a 	nop
    4d54:	0001883a 	nop
    4d58:	0001883a 	nop
    4d5c:	0001883a 	nop

00004d60 <__malloc_unlock>:
    4d60:	f800283a 	ret
	...

00004d80 <alt_release_fd>:
    4d80:	00800084 	movi	r2,2
    4d84:	1100060e 	bge	r2,r4,4da0 <alt_release_fd+0x20>
    4d88:	21000324 	muli	r4,r4,12
    4d8c:	008000f4 	movhi	r2,3
    4d90:	10a4f004 	addi	r2,r2,-27712
    4d94:	1109883a 	add	r4,r2,r4
    4d98:	20000215 	stw	zero,8(r4)
    4d9c:	20000015 	stw	zero,0(r4)
    4da0:	f800283a 	ret
	...

00004dc0 <alt_sys_init>:
    4dc0:	deffff04 	addi	sp,sp,-4
    4dc4:	010000f4 	movhi	r4,3
    4dc8:	21255a04 	addi	r4,r4,-27288
    4dcc:	000b883a 	mov	r5,zero
    4dd0:	01800304 	movi	r6,12
    4dd4:	dfc00015 	stw	ra,0(sp)
    4dd8:	0000e800 	call	e80 <alt_avalon_sgdma_init>
    4ddc:	010000f4 	movhi	r4,3
    4de0:	21256604 	addi	r4,r4,-27240
    4de4:	000b883a 	mov	r5,zero
    4de8:	01800344 	movi	r6,13
    4dec:	dfc00017 	ldw	ra,0(sp)
    4df0:	dec00104 	addi	sp,sp,4
    4df4:	0000e801 	jmpi	e80 <alt_avalon_sgdma_init>
	...

00004e00 <mem_init>:
    4e00:	00c000f4 	movhi	r3,3
    4e04:	18e800c4 	addi	r3,r3,-24573
    4e08:	00bfff04 	movi	r2,-4
    4e0c:	1884703a 	and	r2,r3,r2
    4e10:	11019004 	addi	r4,r2,1600
    4e14:	00c19004 	movi	r3,1600
    4e18:	d1203215 	stw	r4,-32568(gp)
    4e1c:	01000044 	movi	r4,1
    4e20:	10c0000d 	sth	r3,0(r2)
    4e24:	d0a03115 	stw	r2,-32572(gp)
    4e28:	1000008d 	sth	zero,2(r2)
    4e2c:	10000105 	stb	zero,4(r2)
    4e30:	11019105 	stb	r4,1604(r2)
    4e34:	10c1900d 	sth	r3,1600(r2)
    4e38:	10c1908d 	sth	r3,1602(r2)
    4e3c:	d0a03315 	stw	r2,-32564(gp)
    4e40:	008000f4 	movhi	r2,3
    4e44:	109d1204 	addi	r2,r2,29768
    4e48:	10c02a0d 	sth	r3,168(r2)
    4e4c:	f800283a 	ret
    4e50:	0001883a 	nop
    4e54:	0001883a 	nop
    4e58:	0001883a 	nop
    4e5c:	0001883a 	nop

00004e60 <mem_free>:
    4e60:	deffff04 	addi	sp,sp,-4
    4e64:	dfc00015 	stw	ra,0(sp)
    4e68:	20003526 	beq	r4,zero,4f40 <mem_free+0xe0>
    4e6c:	208000cc 	andi	r2,r4,3
    4e70:	10003f1e 	bne	r2,zero,4f70 <mem_free+0x110>
    4e74:	d0e03117 	ldw	r3,-32572(gp)
    4e78:	20c03436 	bltu	r4,r3,4f4c <mem_free+0xec>
    4e7c:	d1a03217 	ldw	r6,-32568(gp)
    4e80:	2180322e 	bgeu	r4,r6,4f4c <mem_free+0xec>
    4e84:	217fff03 	ldbu	r5,-4(r4)
    4e88:	20bffe04 	addi	r2,r4,-8
    4e8c:	28004126 	beq	r5,zero,4f94 <mem_free+0x134>
    4e90:	d1603317 	ldw	r5,-32564(gp)
    4e94:	203fff05 	stb	zero,-4(r4)
    4e98:	1140012e 	bgeu	r2,r5,4ea0 <mem_free+0x40>
    4e9c:	d0a03315 	stw	r2,-32564(gp)
    4ea0:	020000f4 	movhi	r8,3
    4ea4:	421d1204 	addi	r8,r8,29768
    4ea8:	217ffe0b 	ldhu	r5,-8(r4)
    4eac:	42402a8b 	ldhu	r9,170(r8)
    4eb0:	10cfc83a 	sub	r7,r2,r3
    4eb4:	4953c83a 	sub	r9,r9,r5
    4eb8:	49d3883a 	add	r9,r9,r7
    4ebc:	42402a8d 	sth	r9,170(r8)
    4ec0:	10c04f36 	bltu	r2,r3,5000 <mem_free+0x1a0>
    4ec4:	1180452e 	bgeu	r2,r6,4fdc <mem_free+0x17c>
    4ec8:	297fffcc 	andi	r5,r5,65535
    4ecc:	02019004 	movi	r8,1600
    4ed0:	41403936 	bltu	r8,r5,4fb8 <mem_free+0x158>
    4ed4:	194b883a 	add	r5,r3,r5
    4ed8:	11400b26 	beq	r2,r5,4f08 <mem_free+0xa8>
    4edc:	2a000103 	ldbu	r8,4(r5)
    4ee0:	4000091e 	bne	r8,zero,4f08 <mem_free+0xa8>
    4ee4:	31400826 	beq	r6,r5,4f08 <mem_free+0xa8>
    4ee8:	d1a03317 	ldw	r6,-32564(gp)
    4eec:	2980011e 	bne	r5,r6,4ef4 <mem_free+0x94>
    4ef0:	d0a03315 	stw	r2,-32564(gp)
    4ef4:	2980000b 	ldhu	r6,0(r5)
    4ef8:	21bffe0d 	sth	r6,-8(r4)
    4efc:	2940000b 	ldhu	r5,0(r5)
    4f00:	194b883a 	add	r5,r3,r5
    4f04:	29c0008d 	sth	r7,2(r5)
    4f08:	217ffe8b 	ldhu	r5,-6(r4)
    4f0c:	194b883a 	add	r5,r3,r5
    4f10:	11400b26 	beq	r2,r5,4f40 <mem_free+0xe0>
    4f14:	29800103 	ldbu	r6,4(r5)
    4f18:	3000091e 	bne	r6,zero,4f40 <mem_free+0xe0>
    4f1c:	d1a03317 	ldw	r6,-32564(gp)
    4f20:	1180011e 	bne	r2,r6,4f28 <mem_free+0xc8>
    4f24:	d1603315 	stw	r5,-32564(gp)
    4f28:	21bffe0b 	ldhu	r6,-8(r4)
    4f2c:	28c5c83a 	sub	r2,r5,r3
    4f30:	2980000d 	sth	r6,0(r5)
    4f34:	213ffe0b 	ldhu	r4,-8(r4)
    4f38:	1907883a 	add	r3,r3,r4
    4f3c:	1880008d 	sth	r2,2(r3)
    4f40:	dfc00017 	ldw	ra,0(sp)
    4f44:	dec00104 	addi	sp,sp,4
    4f48:	f800283a 	ret
    4f4c:	010000b4 	movhi	r4,2
    4f50:	21163004 	addi	r4,r4,22720
    4f54:	014000b4 	movhi	r5,2
    4f58:	29564d04 	addi	r5,r5,22836
    4f5c:	018050c4 	movi	r6,323
    4f60:	01c000b4 	movhi	r7,2
    4f64:	39d64304 	addi	r7,r7,22796
    4f68:	001b8b40 	call	1b8b4 <printf>
    4f6c:	003fff06 	br	4f6c <mem_free+0x10c>
    4f70:	010000b4 	movhi	r4,2
    4f74:	21163004 	addi	r4,r4,22720
    4f78:	014000b4 	movhi	r5,2
    4f7c:	29563a04 	addi	r5,r5,22760
    4f80:	01805004 	movi	r6,320
    4f84:	01c000b4 	movhi	r7,2
    4f88:	39d64304 	addi	r7,r7,22796
    4f8c:	001b8b40 	call	1b8b4 <printf>
    4f90:	003fff06 	br	4f90 <mem_free+0x130>
    4f94:	010000b4 	movhi	r4,2
    4f98:	21163004 	addi	r4,r4,22720
    4f9c:	014000b4 	movhi	r5,2
    4fa0:	29565304 	addi	r5,r5,22860
    4fa4:	018054c4 	movi	r6,339
    4fa8:	01c000b4 	movhi	r7,2
    4fac:	39d64304 	addi	r7,r7,22796
    4fb0:	001b8b40 	call	1b8b4 <printf>
    4fb4:	003fff06 	br	4fb4 <mem_free+0x154>
    4fb8:	010000b4 	movhi	r4,2
    4fbc:	21163004 	addi	r4,r4,22720
    4fc0:	014000b4 	movhi	r5,2
    4fc4:	29566504 	addi	r5,r5,22932
    4fc8:	01803d84 	movi	r6,246
    4fcc:	01c000b4 	movhi	r7,2
    4fd0:	39d64304 	addi	r7,r7,22796
    4fd4:	001b8b40 	call	1b8b4 <printf>
    4fd8:	003fff06 	br	4fd8 <mem_free+0x178>
    4fdc:	010000b4 	movhi	r4,2
    4fe0:	21163004 	addi	r4,r4,22720
    4fe4:	014000b4 	movhi	r5,2
    4fe8:	29565e04 	addi	r5,r5,22904
    4fec:	01803c84 	movi	r6,242
    4ff0:	01c000b4 	movhi	r7,2
    4ff4:	39d64304 	addi	r7,r7,22796
    4ff8:	001b8b40 	call	1b8b4 <printf>
    4ffc:	003fff06 	br	4ffc <mem_free+0x19c>
    5000:	010000b4 	movhi	r4,2
    5004:	21163004 	addi	r4,r4,22720
    5008:	014000b4 	movhi	r5,2
    500c:	29565804 	addi	r5,r5,22880
    5010:	01803c44 	movi	r6,241
    5014:	01c000b4 	movhi	r7,2
    5018:	39d64304 	addi	r7,r7,22796
    501c:	001b8b40 	call	1b8b4 <printf>
    5020:	003fff06 	br	5020 <mem_free+0x1c0>
    5024:	0001883a 	nop
    5028:	0001883a 	nop
    502c:	0001883a 	nop
    5030:	0001883a 	nop
    5034:	0001883a 	nop
    5038:	0001883a 	nop
    503c:	0001883a 	nop

00005040 <mem_trim>:
    5040:	00bfff04 	movi	r2,-4
    5044:	294000c4 	addi	r5,r5,3
    5048:	288a703a 	and	r5,r5,r2
    504c:	deffff04 	addi	sp,sp,-4
    5050:	dfc00015 	stw	ra,0(sp)
    5054:	29bfffcc 	andi	r6,r5,65535
    5058:	00c002c4 	movi	r3,11
    505c:	2005883a 	mov	r2,r4
    5060:	19802c2e 	bgeu	r3,r6,5114 <mem_trim+0xd4>
    5064:	00c19004 	movi	r3,1600
    5068:	19803736 	bltu	r3,r6,5148 <mem_trim+0x108>
    506c:	d0e03117 	ldw	r3,-32572(gp)
    5070:	10c02c36 	bltu	r2,r3,5124 <mem_trim+0xe4>
    5074:	d1203217 	ldw	r4,-32568(gp)
    5078:	11002a2e 	bgeu	r2,r4,5124 <mem_trim+0xe4>
    507c:	123ffe0b 	ldhu	r8,-8(r2)
    5080:	113ffe04 	addi	r4,r2,-8
    5084:	20c9c83a 	sub	r4,r4,r3
    5088:	41fffe04 	addi	r7,r8,-8
    508c:	390fc83a 	sub	r7,r7,r4
    5090:	3a7fffcc 	andi	r9,r7,65535
    5094:	2017883a 	mov	r11,r4
    5098:	49803d36 	bltu	r9,r6,5190 <mem_trim+0x150>
    509c:	32402b26 	beq	r6,r9,514c <mem_trim+0x10c>
    50a0:	42bfffcc 	andi	r10,r8,65535
    50a4:	1a95883a 	add	r10,r3,r10
    50a8:	53000103 	ldbu	r12,4(r10)
    50ac:	60002e1e 	bne	r12,zero,5168 <mem_trim+0x128>
    50b0:	21000204 	addi	r4,r4,8
    50b4:	214d883a 	add	r6,r4,r5
    50b8:	d1203317 	ldw	r4,-32564(gp)
    50bc:	5200000b 	ldhu	r8,0(r10)
    50c0:	22802526 	beq	r4,r10,5158 <mem_trim+0x118>
    50c4:	313fffcc 	andi	r4,r6,65535
    50c8:	1909883a 	add	r4,r3,r4
    50cc:	2200000d 	sth	r8,0(r4)
    50d0:	11bffe0d 	sth	r6,-8(r2)
    50d4:	2200000b 	ldhu	r8,0(r4)
    50d8:	20000105 	stb	zero,4(r4)
    50dc:	22c0008d 	sth	r11,2(r4)
    50e0:	01019004 	movi	r4,1600
    50e4:	41000226 	beq	r8,r4,50f0 <mem_trim+0xb0>
    50e8:	1a07883a 	add	r3,r3,r8
    50ec:	1980008d 	sth	r6,2(r3)
    50f0:	00c000f4 	movhi	r3,3
    50f4:	18dd1204 	addi	r3,r3,29768
    50f8:	19002a8b 	ldhu	r4,170(r3)
    50fc:	21cfc83a 	sub	r7,r4,r7
    5100:	394b883a 	add	r5,r7,r5
    5104:	19402a8d 	sth	r5,170(r3)
    5108:	dfc00017 	ldw	ra,0(sp)
    510c:	dec00104 	addi	sp,sp,4
    5110:	f800283a 	ret
    5114:	d0e03117 	ldw	r3,-32572(gp)
    5118:	01400304 	movi	r5,12
    511c:	01800304 	movi	r6,12
    5120:	10ffd42e 	bgeu	r2,r3,5074 <mem_trim+0x34>
    5124:	010000b4 	movhi	r4,2
    5128:	21163004 	addi	r4,r4,22720
    512c:	014000b4 	movhi	r5,2
    5130:	29567004 	addi	r5,r5,22976
    5134:	018061c4 	movi	r6,391
    5138:	01c000b4 	movhi	r7,2
    513c:	39d64304 	addi	r7,r7,22796
    5140:	001b8b40 	call	1b8b4 <printf>
    5144:	003fff06 	br	5144 <mem_trim+0x104>
    5148:	0005883a 	mov	r2,zero
    514c:	dfc00017 	ldw	ra,0(sp)
    5150:	dec00104 	addi	sp,sp,4
    5154:	f800283a 	ret
    5158:	313fffcc 	andi	r4,r6,65535
    515c:	1909883a 	add	r4,r3,r4
    5160:	d1203315 	stw	r4,-32564(gp)
    5164:	003fd906 	br	50cc <mem_trim+0x8c>
    5168:	31800504 	addi	r6,r6,20
    516c:	49bff736 	bltu	r9,r6,514c <mem_trim+0x10c>
    5170:	21000204 	addi	r4,r4,8
    5174:	214d883a 	add	r6,r4,r5
    5178:	d2603317 	ldw	r9,-32564(gp)
    517c:	313fffcc 	andi	r4,r6,65535
    5180:	1909883a 	add	r4,r3,r4
    5184:	227fd12e 	bgeu	r4,r9,50cc <mem_trim+0x8c>
    5188:	d1203315 	stw	r4,-32564(gp)
    518c:	003fcf06 	br	50cc <mem_trim+0x8c>
    5190:	010000b4 	movhi	r4,2
    5194:	21163004 	addi	r4,r4,22720
    5198:	014000b4 	movhi	r5,2
    519c:	29567604 	addi	r5,r5,23000
    51a0:	01806604 	movi	r6,408
    51a4:	01c000b4 	movhi	r7,2
    51a8:	39d64304 	addi	r7,r7,22796
    51ac:	001b8b40 	call	1b8b4 <printf>
    51b0:	003fff06 	br	51b0 <mem_trim+0x170>
    51b4:	0001883a 	nop
    51b8:	0001883a 	nop
    51bc:	0001883a 	nop

000051c0 <mem_malloc>:
    51c0:	deffff04 	addi	sp,sp,-4
    51c4:	dfc00015 	stw	ra,0(sp)
    51c8:	20bfffcc 	andi	r2,r4,65535
    51cc:	10006726 	beq	r2,zero,536c <mem_malloc+0x1ac>
    51d0:	00bfff04 	movi	r2,-4
    51d4:	210000c4 	addi	r4,r4,3
    51d8:	2096703a 	and	r11,r4,r2
    51dc:	58bfffcc 	andi	r2,r11,65535
    51e0:	00c002c4 	movi	r3,11
    51e4:	1880222e 	bgeu	r3,r2,5270 <mem_malloc+0xb0>
    51e8:	01c19004 	movi	r7,1600
    51ec:	38805f36 	bltu	r7,r2,536c <mem_malloc+0x1ac>
    51f0:	388fc83a 	sub	r7,r7,r2
    51f4:	d2603317 	ldw	r9,-32564(gp)
    51f8:	d1a03117 	ldw	r6,-32572(gp)
    51fc:	4989c83a 	sub	r4,r9,r6
    5200:	20bfffcc 	andi	r2,r4,65535
    5204:	11c0110e 	bge	r2,r7,524c <mem_malloc+0x8c>
    5208:	20ffffcc 	andi	r3,r4,65535
    520c:	5abfffcc 	andi	r10,r11,65535
    5210:	00000806 	br	5234 <mem_malloc+0x74>
    5214:	1140000b 	ldhu	r5,0(r2)
    5218:	2a3fffcc 	andi	r8,r5,65535
    521c:	423ffe04 	addi	r8,r8,-8
    5220:	40c7c83a 	sub	r3,r8,r3
    5224:	1a80152e 	bgeu	r3,r10,527c <mem_malloc+0xbc>
    5228:	2809883a 	mov	r4,r5
    522c:	20ffffcc 	andi	r3,r4,65535
    5230:	19c0060e 	bge	r3,r7,524c <mem_malloc+0x8c>
    5234:	30c5883a 	add	r2,r6,r3
    5238:	11400103 	ldbu	r5,4(r2)
    523c:	283ff526 	beq	r5,zero,5214 <mem_malloc+0x54>
    5240:	1100000b 	ldhu	r4,0(r2)
    5244:	20ffffcc 	andi	r3,r4,65535
    5248:	19fffa16 	blt	r3,r7,5234 <mem_malloc+0x74>
    524c:	00c000f4 	movhi	r3,3
    5250:	18dd1204 	addi	r3,r3,29768
    5254:	19002b8b 	ldhu	r4,174(r3)
    5258:	0005883a 	mov	r2,zero
    525c:	21000044 	addi	r4,r4,1
    5260:	19002b8d 	sth	r4,174(r3)
    5264:	dfc00017 	ldw	ra,0(sp)
    5268:	dec00104 	addi	sp,sp,4
    526c:	f800283a 	ret
    5270:	01c18d04 	movi	r7,1588
    5274:	02c00304 	movi	r11,12
    5278:	003fde06 	br	51f4 <mem_malloc+0x34>
    527c:	51c00504 	addi	r7,r10,20
    5280:	19c02336 	bltu	r3,r7,5310 <mem_malloc+0x150>
    5284:	59c00204 	addi	r7,r11,8
    5288:	390f883a 	add	r7,r7,r4
    528c:	38ffffcc 	andi	r3,r7,65535
    5290:	30c7883a 	add	r3,r6,r3
    5294:	1940000d 	sth	r5,0(r3)
    5298:	11c0000d 	sth	r7,0(r2)
    529c:	1940000b 	ldhu	r5,0(r3)
    52a0:	18000105 	stb	zero,4(r3)
    52a4:	1900008d 	sth	r4,2(r3)
    52a8:	00c00044 	movi	r3,1
    52ac:	10c00105 	stb	r3,4(r2)
    52b0:	00c19004 	movi	r3,1600
    52b4:	28c00226 	beq	r5,r3,52c0 <mem_malloc+0x100>
    52b8:	314b883a 	add	r5,r6,r5
    52bc:	29c0008d 	sth	r7,2(r5)
    52c0:	00c000f4 	movhi	r3,3
    52c4:	18dd1204 	addi	r3,r3,29768
    52c8:	19002a8b 	ldhu	r4,170(r3)
    52cc:	19402b0b 	ldhu	r5,172(r3)
    52d0:	21000204 	addi	r4,r4,8
    52d4:	22d7883a 	add	r11,r4,r11
    52d8:	1ac02a8d 	sth	r11,170(r3)
    52dc:	593fffcc 	andi	r4,r11,65535
    52e0:	29002f36 	bltu	r5,r4,53a0 <mem_malloc+0x1e0>
    52e4:	48801826 	beq	r9,r2,5348 <mem_malloc+0x188>
    52e8:	d0e03217 	ldw	r3,-32568(gp)
    52ec:	51000204 	addi	r4,r10,8
    52f0:	2089883a 	add	r4,r4,r2
    52f4:	19002c36 	bltu	r3,r4,53a8 <mem_malloc+0x1e8>
    52f8:	10c000cc 	andi	r3,r2,3
    52fc:	18001f1e 	bne	r3,zero,537c <mem_malloc+0x1bc>
    5300:	10800204 	addi	r2,r2,8
    5304:	dfc00017 	ldw	ra,0(sp)
    5308:	dec00104 	addi	sp,sp,4
    530c:	f800283a 	ret
    5310:	00c00044 	movi	r3,1
    5314:	10c00105 	stb	r3,4(r2)
    5318:	00c000f4 	movhi	r3,3
    531c:	18dd1204 	addi	r3,r3,29768
    5320:	1a002a8b 	ldhu	r8,170(r3)
    5324:	1189c83a 	sub	r4,r2,r6
    5328:	19c02b0b 	ldhu	r7,172(r3)
    532c:	2a0b883a 	add	r5,r5,r8
    5330:	2909c83a 	sub	r4,r5,r4
    5334:	19002a8d 	sth	r4,170(r3)
    5338:	217fffcc 	andi	r5,r4,65535
    533c:	397fe92e 	bgeu	r7,r5,52e4 <mem_malloc+0x124>
    5340:	19002b0d 	sth	r4,172(r3)
    5344:	48bfe81e 	bne	r9,r2,52e8 <mem_malloc+0x128>
    5348:	48c00103 	ldbu	r3,4(r9)
    534c:	18001f26 	beq	r3,zero,53cc <mem_malloc+0x20c>
    5350:	d0e03217 	ldw	r3,-32568(gp)
    5354:	48c01e26 	beq	r9,r3,53d0 <mem_malloc+0x210>
    5358:	4a40000b 	ldhu	r9,0(r9)
    535c:	3253883a 	add	r9,r6,r9
    5360:	49000103 	ldbu	r4,4(r9)
    5364:	203ffb1e 	bne	r4,zero,5354 <mem_malloc+0x194>
    5368:	00001906 	br	53d0 <mem_malloc+0x210>
    536c:	0005883a 	mov	r2,zero
    5370:	dfc00017 	ldw	ra,0(sp)
    5374:	dec00104 	addi	sp,sp,4
    5378:	f800283a 	ret
    537c:	010000b4 	movhi	r4,2
    5380:	21163004 	addi	r4,r4,22720
    5384:	014000b4 	movhi	r5,2
    5388:	29568a04 	addi	r5,r5,23080
    538c:	01809a44 	movi	r6,617
    5390:	01c000b4 	movhi	r7,2
    5394:	39d64304 	addi	r7,r7,22796
    5398:	001b8b40 	call	1b8b4 <printf>
    539c:	003fff06 	br	539c <mem_malloc+0x1dc>
    53a0:	1ac02b0d 	sth	r11,172(r3)
    53a4:	003fcf06 	br	52e4 <mem_malloc+0x124>
    53a8:	010000b4 	movhi	r4,2
    53ac:	21163004 	addi	r4,r4,22720
    53b0:	014000b4 	movhi	r5,2
    53b4:	29567e04 	addi	r5,r5,23032
    53b8:	018099c4 	movi	r6,615
    53bc:	01c000b4 	movhi	r7,2
    53c0:	39d64304 	addi	r7,r7,22796
    53c4:	001b8b40 	call	1b8b4 <printf>
    53c8:	003fff06 	br	53c8 <mem_malloc+0x208>
    53cc:	d0e03217 	ldw	r3,-32568(gp)
    53d0:	d2603315 	stw	r9,-32564(gp)
    53d4:	003fc506 	br	52ec <mem_malloc+0x12c>
    53d8:	0001883a 	nop
    53dc:	0001883a 	nop

000053e0 <mem_calloc>:
    53e0:	2905383a 	mul	r2,r5,r4
    53e4:	defffc04 	addi	sp,sp,-16
    53e8:	dc800215 	stw	r18,8(sp)
    53ec:	2025883a 	mov	r18,r4
    53f0:	113fffcc 	andi	r4,r2,65535
    53f4:	dc400115 	stw	r17,4(sp)
    53f8:	dc000015 	stw	r16,0(sp)
    53fc:	dfc00315 	stw	ra,12(sp)
    5400:	2823883a 	mov	r17,r5
    5404:	00051c00 	call	51c0 <mem_malloc>
    5408:	1021883a 	mov	r16,r2
    540c:	10000626 	beq	r2,zero,5428 <mem_calloc+0x48>
    5410:	91bfffcc 	andi	r6,r18,65535
    5414:	8c7fffcc 	andi	r17,r17,65535
    5418:	344d383a 	mul	r6,r6,r17
    541c:	1009883a 	mov	r4,r2
    5420:	000b883a 	mov	r5,zero
    5424:	001b7ac0 	call	1b7ac <memset>
    5428:	8005883a 	mov	r2,r16
    542c:	dfc00317 	ldw	ra,12(sp)
    5430:	dc800217 	ldw	r18,8(sp)
    5434:	dc400117 	ldw	r17,4(sp)
    5438:	dc000017 	ldw	r16,0(sp)
    543c:	dec00404 	addi	sp,sp,16
    5440:	f800283a 	ret
	...

00005460 <memp_init>:
    5460:	008000f4 	movhi	r2,3
    5464:	109d3f04 	addi	r2,r2,29948
    5468:	034000b4 	movhi	r13,2
    546c:	6b56ba04 	addi	r13,r13,23272
    5470:	10c00084 	addi	r3,r2,2
    5474:	6809883a 	mov	r4,r13
    5478:	11801684 	addi	r6,r2,90
    547c:	2140000b 	ldhu	r5,0(r4)
    5480:	1000000d 	sth	zero,0(r2)
    5484:	1800000d 	sth	zero,0(r3)
    5488:	1800008d 	sth	zero,2(r3)
    548c:	117fff8d 	sth	r5,-2(r2)
    5490:	10800284 	addi	r2,r2,10
    5494:	18c00284 	addi	r3,r3,10
    5498:	21000084 	addi	r4,r4,2
    549c:	11bff71e 	bne	r2,r6,547c <memp_init+0x1c>
    54a0:	00bfff04 	movi	r2,-4
    54a4:	02c000f4 	movhi	r11,3
    54a8:	5ae995c4 	addi	r11,r11,-22953
    54ac:	5896703a 	and	r11,r11,r2
    54b0:	028000f4 	movhi	r10,3
    54b4:	529d0904 	addi	r10,r10,29732
    54b8:	0013883a 	mov	r9,zero
    54bc:	03c000b4 	movhi	r15,2
    54c0:	7bd6be84 	addi	r15,r15,23290
    54c4:	03800484 	movi	r14,18
    54c8:	6a45883a 	add	r2,r13,r9
    54cc:	1300000b 	ldhu	r12,0(r2)
    54d0:	50000015 	stw	zero,0(r10)
    54d4:	623fffcc 	andi	r8,r12,65535
    54d8:	40001526 	beq	r8,zero,5530 <memp_init+0xd0>
    54dc:	4bc5883a 	add	r2,r9,r15
    54e0:	11c0000b 	ldhu	r7,0(r2)
    54e4:	0009883a 	mov	r4,zero
    54e8:	5805883a 	mov	r2,r11
    54ec:	0007883a 	mov	r3,zero
    54f0:	00000106 	br	54f8 <memp_init+0x98>
    54f4:	3005883a 	mov	r2,r6
    54f8:	18c00044 	addi	r3,r3,1
    54fc:	11000015 	stw	r4,0(r2)
    5500:	197fffcc 	andi	r5,r3,65535
    5504:	11cd883a 	add	r6,r2,r7
    5508:	1009883a 	mov	r4,r2
    550c:	2a3ff91e 	bne	r5,r8,54f4 <memp_init+0x94>
    5510:	633fffc4 	addi	r12,r12,-1
    5514:	633fffcc 	andi	r12,r12,65535
    5518:	60800044 	addi	r2,r12,1
    551c:	61d9383a 	mul	r12,r12,r7
    5520:	11cf383a 	mul	r7,r2,r7
    5524:	5b19883a 	add	r12,r11,r12
    5528:	53000015 	stw	r12,0(r10)
    552c:	59d7883a 	add	r11,r11,r7
    5530:	4a400084 	addi	r9,r9,2
    5534:	52800104 	addi	r10,r10,4
    5538:	4bbfe31e 	bne	r9,r14,54c8 <memp_init+0x68>
    553c:	f800283a 	ret

00005540 <memp_malloc>:
    5540:	deffff04 	addi	sp,sp,-4
    5544:	dfc00015 	stw	ra,0(sp)
    5548:	00800204 	movi	r2,8
    554c:	11001b36 	bltu	r2,r4,55bc <memp_malloc+0x7c>
    5550:	210d883a 	add	r6,r4,r4
    5554:	008000f4 	movhi	r2,3
    5558:	109d0904 	addi	r2,r2,29732
    555c:	318d883a 	add	r6,r6,r6
    5560:	118d883a 	add	r6,r2,r6
    5564:	30800017 	ldw	r2,0(r6)
    5568:	210002a4 	muli	r4,r4,10
    556c:	10002526 	beq	r2,zero,5604 <memp_malloc+0xc4>
    5570:	00c000f4 	movhi	r3,3
    5574:	18dd1204 	addi	r3,r3,29768
    5578:	1909883a 	add	r4,r3,r4
    557c:	21402d04 	addi	r5,r4,180
    5580:	28c0000b 	ldhu	r3,0(r5)
    5584:	12000017 	ldw	r8,0(r2)
    5588:	21002d84 	addi	r4,r4,182
    558c:	21c0000b 	ldhu	r7,0(r4)
    5590:	18c00044 	addi	r3,r3,1
    5594:	28c0000d 	sth	r3,0(r5)
    5598:	32000015 	stw	r8,0(r6)
    559c:	197fffcc 	andi	r5,r3,65535
    55a0:	3940012e 	bgeu	r7,r5,55a8 <memp_malloc+0x68>
    55a4:	20c0000d 	sth	r3,0(r4)
    55a8:	10c000cc 	andi	r3,r2,3
    55ac:	18000c1e 	bne	r3,zero,55e0 <memp_malloc+0xa0>
    55b0:	dfc00017 	ldw	ra,0(sp)
    55b4:	dec00104 	addi	sp,sp,4
    55b8:	f800283a 	ret
    55bc:	010000b4 	movhi	r4,2
    55c0:	21163004 	addi	r4,r4,22720
    55c4:	014000b4 	movhi	r5,2
    55c8:	29569604 	addi	r5,r5,23128
    55cc:	01806384 	movi	r6,398
    55d0:	01c000b4 	movhi	r7,2
    55d4:	39d69e04 	addi	r7,r7,23160
    55d8:	001b8b40 	call	1b8b4 <printf>
    55dc:	003fff06 	br	55dc <memp_malloc+0x9c>
    55e0:	010000b4 	movhi	r4,2
    55e4:	21163004 	addi	r4,r4,22720
    55e8:	014000b4 	movhi	r5,2
    55ec:	2956a904 	addi	r5,r5,23204
    55f0:	01806804 	movi	r6,416
    55f4:	01c000b4 	movhi	r7,2
    55f8:	39d69e04 	addi	r7,r7,23160
    55fc:	001b8b40 	call	1b8b4 <printf>
    5600:	003fff06 	br	5600 <memp_malloc+0xc0>
    5604:	00c000f4 	movhi	r3,3
    5608:	18dd4004 	addi	r3,r3,29952
    560c:	20c7883a 	add	r3,r4,r3
    5610:	1900000b 	ldhu	r4,0(r3)
    5614:	21000044 	addi	r4,r4,1
    5618:	1900000d 	sth	r4,0(r3)
    561c:	dfc00017 	ldw	ra,0(sp)
    5620:	dec00104 	addi	sp,sp,4
    5624:	f800283a 	ret
    5628:	0001883a 	nop
    562c:	0001883a 	nop
    5630:	0001883a 	nop
    5634:	0001883a 	nop
    5638:	0001883a 	nop
    563c:	0001883a 	nop

00005640 <memp_free>:
    5640:	deffff04 	addi	sp,sp,-4
    5644:	dfc00015 	stw	ra,0(sp)
    5648:	28001126 	beq	r5,zero,5690 <memp_free+0x50>
    564c:	288000cc 	andi	r2,r5,3
    5650:	1000121e 	bne	r2,zero,569c <memp_free+0x5c>
    5654:	20c002a4 	muli	r3,r4,10
    5658:	008000f4 	movhi	r2,3
    565c:	109d3f04 	addi	r2,r2,29948
    5660:	2109883a 	add	r4,r4,r4
    5664:	1887883a 	add	r3,r3,r2
    5668:	1980000b 	ldhu	r6,0(r3)
    566c:	2109883a 	add	r4,r4,r4
    5670:	008000f4 	movhi	r2,3
    5674:	109d0904 	addi	r2,r2,29732
    5678:	1105883a 	add	r2,r2,r4
    567c:	11000017 	ldw	r4,0(r2)
    5680:	31bfffc4 	addi	r6,r6,-1
    5684:	1980000d 	sth	r6,0(r3)
    5688:	29000015 	stw	r4,0(r5)
    568c:	11400015 	stw	r5,0(r2)
    5690:	dfc00017 	ldw	ra,0(sp)
    5694:	dec00104 	addi	sp,sp,4
    5698:	f800283a 	ret
    569c:	010000b4 	movhi	r4,2
    56a0:	21163004 	addi	r4,r4,22720
    56a4:	014000b4 	movhi	r5,2
    56a8:	2956b204 	addi	r5,r5,23240
    56ac:	01806f04 	movi	r6,444
    56b0:	01c000b4 	movhi	r7,2
    56b4:	39d69e04 	addi	r7,r7,23160
    56b8:	001b8b40 	call	1b8b4 <printf>
    56bc:	003fff06 	br	56bc <memp_free+0x7c>

000056c0 <netif_init>:
    56c0:	f800283a 	ret
    56c4:	0001883a 	nop
    56c8:	0001883a 	nop
    56cc:	0001883a 	nop
    56d0:	0001883a 	nop
    56d4:	0001883a 	nop
    56d8:	0001883a 	nop
    56dc:	0001883a 	nop

000056e0 <netif_find>:
    56e0:	20001226 	beq	r4,zero,572c <netif_find+0x4c>
    56e4:	21400083 	ldbu	r5,2(r4)
    56e8:	d0a03517 	ldw	r2,-32556(gp)
    56ec:	297ff404 	addi	r5,r5,-48
    56f0:	10000c26 	beq	r2,zero,5724 <netif_find+0x44>
    56f4:	29403fcc 	andi	r5,r5,255
    56f8:	00000206 	br	5704 <netif_find+0x24>
    56fc:	10800017 	ldw	r2,0(r2)
    5700:	10000926 	beq	r2,zero,5728 <netif_find+0x48>
    5704:	10c00c03 	ldbu	r3,48(r2)
    5708:	197ffc1e 	bne	r3,r5,56fc <netif_find+0x1c>
    570c:	10c00b87 	ldb	r3,46(r2)
    5710:	21800007 	ldb	r6,0(r4)
    5714:	30fff91e 	bne	r6,r3,56fc <netif_find+0x1c>
    5718:	10c00bc7 	ldb	r3,47(r2)
    571c:	21800047 	ldb	r6,1(r4)
    5720:	30fff61e 	bne	r6,r3,56fc <netif_find+0x1c>
    5724:	f800283a 	ret
    5728:	f800283a 	ret
    572c:	0005883a 	mov	r2,zero
    5730:	f800283a 	ret
    5734:	0001883a 	nop
    5738:	0001883a 	nop
    573c:	0001883a 	nop

00005740 <netif_set_ipaddr>:
    5740:	defffc04 	addi	sp,sp,-16
    5744:	dc400115 	stw	r17,4(sp)
    5748:	dc000015 	stw	r16,0(sp)
    574c:	dfc00315 	stw	ra,12(sp)
    5750:	dc800215 	stw	r18,8(sp)
    5754:	2823883a 	mov	r17,r5
    5758:	2021883a 	mov	r16,r4
    575c:	28002926 	beq	r5,zero,5804 <netif_set_ipaddr+0xc4>
    5760:	29800017 	ldw	r6,0(r5)
    5764:	20c00117 	ldw	r3,4(r4)
    5768:	30c01f26 	beq	r6,r3,57e8 <netif_set_ipaddr+0xa8>
    576c:	008000f4 	movhi	r2,3
    5770:	10a7af04 	addi	r2,r2,-24900
    5774:	11000017 	ldw	r4,0(r2)
    5778:	20000c26 	beq	r4,zero,57ac <netif_set_ipaddr+0x6c>
    577c:	21800017 	ldw	r6,0(r4)
    5780:	30c00526 	beq	r6,r3,5798 <netif_set_ipaddr+0x58>
    5784:	21000317 	ldw	r4,12(r4)
    5788:	20000726 	beq	r4,zero,57a8 <netif_set_ipaddr+0x68>
    578c:	80c00117 	ldw	r3,4(r16)
    5790:	21800017 	ldw	r6,0(r4)
    5794:	30fffb1e 	bne	r6,r3,5784 <netif_set_ipaddr+0x44>
    5798:	24800317 	ldw	r18,12(r4)
    579c:	00082800 	call	8280 <tcp_abort>
    57a0:	9009883a 	mov	r4,r18
    57a4:	203ff91e 	bne	r4,zero,578c <netif_set_ipaddr+0x4c>
    57a8:	89800017 	ldw	r6,0(r17)
    57ac:	008000f4 	movhi	r2,3
    57b0:	10a7b004 	addi	r2,r2,-24896
    57b4:	10800017 	ldw	r2,0(r2)
    57b8:	1000031e 	bne	r2,zero,57c8 <netif_set_ipaddr+0x88>
    57bc:	00000a06 	br	57e8 <netif_set_ipaddr+0xa8>
    57c0:	10800317 	ldw	r2,12(r2)
    57c4:	10000826 	beq	r2,zero,57e8 <netif_set_ipaddr+0xa8>
    57c8:	10c00017 	ldw	r3,0(r2)
    57cc:	183ffc26 	beq	r3,zero,57c0 <netif_set_ipaddr+0x80>
    57d0:	81000117 	ldw	r4,4(r16)
    57d4:	193ffa1e 	bne	r3,r4,57c0 <netif_set_ipaddr+0x80>
    57d8:	11800015 	stw	r6,0(r2)
    57dc:	10800317 	ldw	r2,12(r2)
    57e0:	89800017 	ldw	r6,0(r17)
    57e4:	103ff81e 	bne	r2,zero,57c8 <netif_set_ipaddr+0x88>
    57e8:	81800115 	stw	r6,4(r16)
    57ec:	dfc00317 	ldw	ra,12(sp)
    57f0:	dc800217 	ldw	r18,8(sp)
    57f4:	dc400117 	ldw	r17,4(sp)
    57f8:	dc000017 	ldw	r16,0(sp)
    57fc:	dec00404 	addi	sp,sp,16
    5800:	f800283a 	ret
    5804:	000d883a 	mov	r6,zero
    5808:	81800115 	stw	r6,4(r16)
    580c:	dfc00317 	ldw	ra,12(sp)
    5810:	dc800217 	ldw	r18,8(sp)
    5814:	dc400117 	ldw	r17,4(sp)
    5818:	dc000017 	ldw	r16,0(sp)
    581c:	dec00404 	addi	sp,sp,16
    5820:	f800283a 	ret
    5824:	0001883a 	nop
    5828:	0001883a 	nop
    582c:	0001883a 	nop
    5830:	0001883a 	nop
    5834:	0001883a 	nop
    5838:	0001883a 	nop
    583c:	0001883a 	nop

00005840 <netif_set_addr>:
    5840:	defffc04 	addi	sp,sp,-16
    5844:	dc800215 	stw	r18,8(sp)
    5848:	3025883a 	mov	r18,r6
    584c:	dc400115 	stw	r17,4(sp)
    5850:	dc000015 	stw	r16,0(sp)
    5854:	dfc00315 	stw	ra,12(sp)
    5858:	2021883a 	mov	r16,r4
    585c:	3823883a 	mov	r17,r7
    5860:	00057400 	call	5740 <netif_set_ipaddr>
    5864:	90000b26 	beq	r18,zero,5894 <netif_set_addr+0x54>
    5868:	90800017 	ldw	r2,0(r18)
    586c:	80800215 	stw	r2,8(r16)
    5870:	88000b26 	beq	r17,zero,58a0 <netif_set_addr+0x60>
    5874:	88800017 	ldw	r2,0(r17)
    5878:	80800315 	stw	r2,12(r16)
    587c:	dfc00317 	ldw	ra,12(sp)
    5880:	dc800217 	ldw	r18,8(sp)
    5884:	dc400117 	ldw	r17,4(sp)
    5888:	dc000017 	ldw	r16,0(sp)
    588c:	dec00404 	addi	sp,sp,16
    5890:	f800283a 	ret
    5894:	0005883a 	mov	r2,zero
    5898:	80800215 	stw	r2,8(r16)
    589c:	883ff51e 	bne	r17,zero,5874 <netif_set_addr+0x34>
    58a0:	0005883a 	mov	r2,zero
    58a4:	80800315 	stw	r2,12(r16)
    58a8:	dfc00317 	ldw	ra,12(sp)
    58ac:	dc800217 	ldw	r18,8(sp)
    58b0:	dc400117 	ldw	r17,4(sp)
    58b4:	dc000017 	ldw	r16,0(sp)
    58b8:	dec00404 	addi	sp,sp,16
    58bc:	f800283a 	ret

000058c0 <netif_add>:
    58c0:	defffd04 	addi	sp,sp,-12
    58c4:	dc400115 	stw	r17,4(sp)
    58c8:	dc400417 	ldw	r17,16(sp)
    58cc:	dc000015 	stw	r16,0(sp)
    58d0:	dfc00215 	stw	ra,8(sp)
    58d4:	2021883a 	mov	r16,r4
    58d8:	88001d26 	beq	r17,zero,5950 <netif_add+0x90>
    58dc:	d0a03603 	ldbu	r2,-32552(gp)
    58e0:	da000317 	ldw	r8,12(sp)
    58e4:	20000115 	stw	zero,4(r4)
    58e8:	10c00044 	addi	r3,r2,1
    58ec:	20800c05 	stb	r2,48(r4)
    58f0:	d8800517 	ldw	r2,20(sp)
    58f4:	22000715 	stw	r8,28(r4)
    58f8:	20000215 	stw	zero,8(r4)
    58fc:	20800415 	stw	r2,16(r4)
    5900:	20000315 	stw	zero,12(r4)
    5904:	20000b45 	stb	zero,45(r4)
    5908:	20000815 	stw	zero,32(r4)
    590c:	d0e03605 	stb	r3,-32552(gp)
    5910:	00058400 	call	5840 <netif_set_addr>
    5914:	8009883a 	mov	r4,r16
    5918:	883ee83a 	callr	r17
    591c:	10803fcc 	andi	r2,r2,255
    5920:	1080201c 	xori	r2,r2,128
    5924:	10bfe004 	addi	r2,r2,-128
    5928:	1000121e 	bne	r2,zero,5974 <netif_add+0xb4>
    592c:	d0a03517 	ldw	r2,-32556(gp)
    5930:	80800015 	stw	r2,0(r16)
    5934:	8005883a 	mov	r2,r16
    5938:	d4203515 	stw	r16,-32556(gp)
    593c:	dfc00217 	ldw	ra,8(sp)
    5940:	dc400117 	ldw	r17,4(sp)
    5944:	dc000017 	ldw	r16,0(sp)
    5948:	dec00304 	addi	sp,sp,12
    594c:	f800283a 	ret
    5950:	010000b4 	movhi	r4,2
    5954:	21163004 	addi	r4,r4,22720
    5958:	014000b4 	movhi	r5,2
    595c:	2956c304 	addi	r5,r5,23308
    5960:	018023c4 	movi	r6,143
    5964:	01c000b4 	movhi	r7,2
    5968:	39d6c904 	addi	r7,r7,23332
    596c:	001b8b40 	call	1b8b4 <printf>
    5970:	003fff06 	br	5970 <netif_add+0xb0>
    5974:	0021883a 	mov	r16,zero
    5978:	8005883a 	mov	r2,r16
    597c:	dfc00217 	ldw	ra,8(sp)
    5980:	dc400117 	ldw	r17,4(sp)
    5984:	dc000017 	ldw	r16,0(sp)
    5988:	dec00304 	addi	sp,sp,12
    598c:	f800283a 	ret
    5990:	0001883a 	nop
    5994:	0001883a 	nop
    5998:	0001883a 	nop
    599c:	0001883a 	nop

000059a0 <netif_set_gw>:
    59a0:	28000326 	beq	r5,zero,59b0 <netif_set_gw+0x10>
    59a4:	28800017 	ldw	r2,0(r5)
    59a8:	20800315 	stw	r2,12(r4)
    59ac:	f800283a 	ret
    59b0:	0005883a 	mov	r2,zero
    59b4:	20800315 	stw	r2,12(r4)
    59b8:	f800283a 	ret
    59bc:	0001883a 	nop

000059c0 <netif_set_netmask>:
    59c0:	28000326 	beq	r5,zero,59d0 <netif_set_netmask+0x10>
    59c4:	28800017 	ldw	r2,0(r5)
    59c8:	20800215 	stw	r2,8(r4)
    59cc:	f800283a 	ret
    59d0:	0005883a 	mov	r2,zero
    59d4:	20800215 	stw	r2,8(r4)
    59d8:	f800283a 	ret
    59dc:	0001883a 	nop

000059e0 <netif_set_default>:
    59e0:	d1203415 	stw	r4,-32560(gp)
    59e4:	f800283a 	ret
    59e8:	0001883a 	nop
    59ec:	0001883a 	nop
    59f0:	0001883a 	nop
    59f4:	0001883a 	nop
    59f8:	0001883a 	nop
    59fc:	0001883a 	nop

00005a00 <netif_set_up>:
    5a00:	20800b43 	ldbu	r2,45(r4)
    5a04:	10c0004c 	andi	r3,r2,1
    5a08:	1800051e 	bne	r3,zero,5a20 <netif_set_up+0x20>
    5a0c:	10c00054 	ori	r3,r2,1
    5a10:	20c00b45 	stb	r3,45(r4)
    5a14:	10800c0c 	andi	r2,r2,48
    5a18:	00c00c04 	movi	r3,48
    5a1c:	10c00126 	beq	r2,r3,5a24 <netif_set_up+0x24>
    5a20:	f800283a 	ret
    5a24:	21400104 	addi	r5,r4,4
    5a28:	00124c01 	jmpi	124c0 <etharp_request>
    5a2c:	0001883a 	nop
    5a30:	0001883a 	nop
    5a34:	0001883a 	nop
    5a38:	0001883a 	nop
    5a3c:	0001883a 	nop

00005a40 <netif_set_down>:
    5a40:	20800b43 	ldbu	r2,45(r4)
    5a44:	1140004c 	andi	r5,r2,1
    5a48:	28000526 	beq	r5,zero,5a60 <netif_set_down+0x20>
    5a4c:	11403f8c 	andi	r5,r2,254
    5a50:	1080080c 	andi	r2,r2,32
    5a54:	21400b45 	stb	r5,45(r4)
    5a58:	10803fcc 	andi	r2,r2,255
    5a5c:	1000011e 	bne	r2,zero,5a64 <netif_set_down+0x24>
    5a60:	f800283a 	ret
    5a64:	00123801 	jmpi	12380 <etharp_cleanup_netif>
    5a68:	0001883a 	nop
    5a6c:	0001883a 	nop
    5a70:	0001883a 	nop
    5a74:	0001883a 	nop
    5a78:	0001883a 	nop
    5a7c:	0001883a 	nop

00005a80 <netif_remove>:
    5a80:	defffe04 	addi	sp,sp,-8
    5a84:	dc000015 	stw	r16,0(sp)
    5a88:	dfc00115 	stw	ra,4(sp)
    5a8c:	2021883a 	mov	r16,r4
    5a90:	20000d26 	beq	r4,zero,5ac8 <netif_remove+0x48>
    5a94:	20800b43 	ldbu	r2,45(r4)
    5a98:	1080004c 	andi	r2,r2,1
    5a9c:	1000181e 	bne	r2,zero,5b00 <netif_remove+0x80>
    5aa0:	d0e03517 	ldw	r3,-32556(gp)
    5aa4:	1c001926 	beq	r3,r16,5b0c <netif_remove+0x8c>
    5aa8:	18000726 	beq	r3,zero,5ac8 <netif_remove+0x48>
    5aac:	18800017 	ldw	r2,0(r3)
    5ab0:	14000926 	beq	r2,r16,5ad8 <netif_remove+0x58>
    5ab4:	10000426 	beq	r2,zero,5ac8 <netif_remove+0x48>
    5ab8:	10c00017 	ldw	r3,0(r2)
    5abc:	1c000726 	beq	r3,r16,5adc <netif_remove+0x5c>
    5ac0:	1805883a 	mov	r2,r3
    5ac4:	103ffc1e 	bne	r2,zero,5ab8 <netif_remove+0x38>
    5ac8:	dfc00117 	ldw	ra,4(sp)
    5acc:	dc000017 	ldw	r16,0(sp)
    5ad0:	dec00204 	addi	sp,sp,8
    5ad4:	f800283a 	ret
    5ad8:	1805883a 	mov	r2,r3
    5adc:	80c00017 	ldw	r3,0(r16)
    5ae0:	10c00015 	stw	r3,0(r2)
    5ae4:	d0a03417 	ldw	r2,-32560(gp)
    5ae8:	143ff71e 	bne	r2,r16,5ac8 <netif_remove+0x48>
    5aec:	d0203415 	stw	zero,-32560(gp)
    5af0:	dfc00117 	ldw	ra,4(sp)
    5af4:	dc000017 	ldw	r16,0(sp)
    5af8:	dec00204 	addi	sp,sp,8
    5afc:	f800283a 	ret
    5b00:	0005a400 	call	5a40 <netif_set_down>
    5b04:	d0e03517 	ldw	r3,-32556(gp)
    5b08:	1c3fe71e 	bne	r3,r16,5aa8 <netif_remove+0x28>
    5b0c:	80800017 	ldw	r2,0(r16)
    5b10:	d0a03515 	stw	r2,-32556(gp)
    5b14:	003ff306 	br	5ae4 <netif_remove+0x64>
    5b18:	0001883a 	nop
    5b1c:	0001883a 	nop

00005b20 <netif_set_link_up>:
    5b20:	defffe04 	addi	sp,sp,-8
    5b24:	dc000015 	stw	r16,0(sp)
    5b28:	dfc00115 	stw	ra,4(sp)
    5b2c:	20800b43 	ldbu	r2,45(r4)
    5b30:	2021883a 	mov	r16,r4
    5b34:	10c0040c 	andi	r3,r2,16
    5b38:	18c03fcc 	andi	r3,r3,255
    5b3c:	1800091e 	bne	r3,zero,5b64 <netif_set_link_up+0x44>
    5b40:	20c00817 	ldw	r3,32(r4)
    5b44:	10800414 	ori	r2,r2,16
    5b48:	20800b45 	stb	r2,45(r4)
    5b4c:	18000226 	beq	r3,zero,5b58 <netif_set_link_up+0x38>
    5b50:	000f0e00 	call	f0e0 <dhcp_network_changed>
    5b54:	80800b43 	ldbu	r2,45(r16)
    5b58:	1080084c 	andi	r2,r2,33
    5b5c:	00c00844 	movi	r3,33
    5b60:	10c00426 	beq	r2,r3,5b74 <netif_set_link_up+0x54>
    5b64:	dfc00117 	ldw	ra,4(sp)
    5b68:	dc000017 	ldw	r16,0(sp)
    5b6c:	dec00204 	addi	sp,sp,8
    5b70:	f800283a 	ret
    5b74:	8009883a 	mov	r4,r16
    5b78:	81400104 	addi	r5,r16,4
    5b7c:	dfc00117 	ldw	ra,4(sp)
    5b80:	dc000017 	ldw	r16,0(sp)
    5b84:	dec00204 	addi	sp,sp,8
    5b88:	00124c01 	jmpi	124c0 <etharp_request>
    5b8c:	0001883a 	nop
    5b90:	0001883a 	nop
    5b94:	0001883a 	nop
    5b98:	0001883a 	nop
    5b9c:	0001883a 	nop

00005ba0 <netif_set_link_down>:
    5ba0:	20800b43 	ldbu	r2,45(r4)
    5ba4:	10c0040c 	andi	r3,r2,16
    5ba8:	18c03fcc 	andi	r3,r3,255
    5bac:	18000226 	beq	r3,zero,5bb8 <netif_set_link_down+0x18>
    5bb0:	10803bcc 	andi	r2,r2,239
    5bb4:	20800b45 	stb	r2,45(r4)
    5bb8:	f800283a 	ret
    5bbc:	00000000 	call	0 <__alt_mem_ext_flash>

00005bc0 <pbuf_free_ooseq>:
    5bc0:	defffe04 	addi	sp,sp,-8
    5bc4:	008000f4 	movhi	r2,3
    5bc8:	10a7af04 	addi	r2,r2,-24900
    5bcc:	dc000015 	stw	r16,0(sp)
    5bd0:	14000017 	ldw	r16,0(r2)
    5bd4:	dfc00115 	stw	ra,4(sp)
    5bd8:	d0203705 	stb	zero,-32548(gp)
    5bdc:	8000031e 	bne	r16,zero,5bec <pbuf_free_ooseq+0x2c>
    5be0:	00000606 	br	5bfc <pbuf_free_ooseq+0x3c>
    5be4:	84000317 	ldw	r16,12(r16)
    5be8:	80000426 	beq	r16,zero,5bfc <pbuf_free_ooseq+0x3c>
    5bec:	81001e17 	ldw	r4,120(r16)
    5bf0:	203ffc26 	beq	r4,zero,5be4 <pbuf_free_ooseq+0x24>
    5bf4:	00076c00 	call	76c0 <tcp_segs_free>
    5bf8:	80001e15 	stw	zero,120(r16)
    5bfc:	dfc00117 	ldw	ra,4(sp)
    5c00:	dc000017 	ldw	r16,0(sp)
    5c04:	dec00204 	addi	sp,sp,8
    5c08:	f800283a 	ret
    5c0c:	0001883a 	nop
    5c10:	0001883a 	nop
    5c14:	0001883a 	nop
    5c18:	0001883a 	nop
    5c1c:	0001883a 	nop

00005c20 <pbuf_header>:
    5c20:	deffff04 	addi	sp,sp,-4
    5c24:	dfc00015 	stw	ra,0(sp)
    5c28:	2807883a 	mov	r3,r5
    5c2c:	20003f26 	beq	r4,zero,5d2c <pbuf_header+0x10c>
    5c30:	18ffffcc 	andi	r3,r3,65535
    5c34:	18e0001c 	xori	r3,r3,32768
    5c38:	18e00004 	addi	r3,r3,-32768
    5c3c:	18002226 	beq	r3,zero,5cc8 <pbuf_header+0xa8>
    5c40:	18001416 	blt	r3,zero,5c94 <pbuf_header+0x74>
    5c44:	280d883a 	mov	r6,r5
    5c48:	20800303 	ldbu	r2,12(r4)
    5c4c:	21c00117 	ldw	r7,4(r4)
    5c50:	123fffcc 	andi	r8,r2,65535
    5c54:	40002026 	beq	r8,zero,5cd8 <pbuf_header+0xb8>
    5c58:	024000c4 	movi	r9,3
    5c5c:	42401e26 	beq	r8,r9,5cd8 <pbuf_header+0xb8>
    5c60:	10bfffc4 	addi	r2,r2,-1
    5c64:	123fffcc 	andi	r8,r2,65535
    5c68:	00800044 	movi	r2,1
    5c6c:	1200282e 	bgeu	r2,r8,5d10 <pbuf_header+0xf0>
    5c70:	010000b4 	movhi	r4,2
    5c74:	21163004 	addi	r4,r4,22720
    5c78:	014000b4 	movhi	r5,2
    5c7c:	2956e704 	addi	r5,r5,23452
    5c80:	01808ec4 	movi	r6,571
    5c84:	01c000b4 	movhi	r7,2
    5c88:	39d6d404 	addi	r7,r7,23376
    5c8c:	001b8b40 	call	1b8b4 <printf>
    5c90:	003fff06 	br	5c90 <pbuf_header+0x70>
    5c94:	21c0028b 	ldhu	r7,10(r4)
    5c98:	014dc83a 	sub	r6,zero,r5
    5c9c:	30bfffcc 	andi	r2,r6,65535
    5ca0:	38bfe92e 	bgeu	r7,r2,5c48 <pbuf_header+0x28>
    5ca4:	010000b4 	movhi	r4,2
    5ca8:	21163004 	addi	r4,r4,22720
    5cac:	014000b4 	movhi	r5,2
    5cb0:	2956df04 	addi	r5,r5,23420
    5cb4:	01808344 	movi	r6,525
    5cb8:	01c000b4 	movhi	r7,2
    5cbc:	39d6d404 	addi	r7,r7,23376
    5cc0:	001b8b40 	call	1b8b4 <printf>
    5cc4:	003fff06 	br	5cc4 <pbuf_header+0xa4>
    5cc8:	0005883a 	mov	r2,zero
    5ccc:	dfc00017 	ldw	ra,0(sp)
    5cd0:	dec00104 	addi	sp,sp,4
    5cd4:	f800283a 	ret
    5cd8:	38c7c83a 	sub	r3,r7,r3
    5cdc:	20800404 	addi	r2,r4,16
    5ce0:	18801b36 	bltu	r3,r2,5d50 <pbuf_header+0x130>
    5ce4:	20c00115 	stw	r3,4(r4)
    5ce8:	20c0028b 	ldhu	r3,10(r4)
    5cec:	2180020b 	ldhu	r6,8(r4)
    5cf0:	0005883a 	mov	r2,zero
    5cf4:	28c7883a 	add	r3,r5,r3
    5cf8:	298b883a 	add	r5,r5,r6
    5cfc:	20c0028d 	sth	r3,10(r4)
    5d00:	2140020d 	sth	r5,8(r4)
    5d04:	dfc00017 	ldw	ra,0(sp)
    5d08:	dec00104 	addi	sp,sp,4
    5d0c:	f800283a 	ret
    5d10:	183fee0e 	bge	r3,zero,5ccc <pbuf_header+0xac>
    5d14:	2200028b 	ldhu	r8,10(r4)
    5d18:	31bfffcc 	andi	r6,r6,65535
    5d1c:	41bfeb36 	bltu	r8,r6,5ccc <pbuf_header+0xac>
    5d20:	38c7c83a 	sub	r3,r7,r3
    5d24:	20c00115 	stw	r3,4(r4)
    5d28:	003fef06 	br	5ce8 <pbuf_header+0xc8>
    5d2c:	010000b4 	movhi	r4,2
    5d30:	21163004 	addi	r4,r4,22720
    5d34:	014000b4 	movhi	r5,2
    5d38:	295b3004 	addi	r5,r5,27840
    5d3c:	01808144 	movi	r6,517
    5d40:	01c000b4 	movhi	r7,2
    5d44:	39d6d404 	addi	r7,r7,23376
    5d48:	001b8b40 	call	1b8b4 <printf>
    5d4c:	003fff06 	br	5d4c <pbuf_header+0x12c>
    5d50:	00800044 	movi	r2,1
    5d54:	dfc00017 	ldw	ra,0(sp)
    5d58:	dec00104 	addi	sp,sp,4
    5d5c:	f800283a 	ret

00005d60 <pbuf_free>:
    5d60:	defffb04 	addi	sp,sp,-20
    5d64:	dfc00415 	stw	ra,16(sp)
    5d68:	dcc00315 	stw	r19,12(sp)
    5d6c:	dc800215 	stw	r18,8(sp)
    5d70:	dc400115 	stw	r17,4(sp)
    5d74:	dc000015 	stw	r16,0(sp)
    5d78:	200b883a 	mov	r5,r4
    5d7c:	20003e26 	beq	r4,zero,5e78 <pbuf_free+0x118>
    5d80:	20c00303 	ldbu	r3,12(r4)
    5d84:	008000c4 	movi	r2,3
    5d88:	10c02c36 	bltu	r2,r3,5e3c <pbuf_free+0xdc>
    5d8c:	2900038b 	ldhu	r4,14(r5)
    5d90:	1025883a 	mov	r18,r2
    5d94:	0021883a 	mov	r16,zero
    5d98:	20ffffc4 	addi	r3,r4,-1
    5d9c:	213fffcc 	andi	r4,r4,65535
    5da0:	04400044 	movi	r17,1
    5da4:	18bfffcc 	andi	r2,r3,65535
    5da8:	20001b26 	beq	r4,zero,5e18 <pbuf_free+0xb8>
    5dac:	28c0038d 	sth	r3,14(r5)
    5db0:	10000826 	beq	r2,zero,5dd4 <pbuf_free+0x74>
    5db4:	8005883a 	mov	r2,r16
    5db8:	dfc00417 	ldw	ra,16(sp)
    5dbc:	dcc00317 	ldw	r19,12(sp)
    5dc0:	dc800217 	ldw	r18,8(sp)
    5dc4:	dc400117 	ldw	r17,4(sp)
    5dc8:	dc000017 	ldw	r16,0(sp)
    5dcc:	dec00504 	addi	sp,sp,20
    5dd0:	f800283a 	ret
    5dd4:	28c00303 	ldbu	r3,12(r5)
    5dd8:	2809883a 	mov	r4,r5
    5ddc:	2cc00017 	ldw	r19,0(r5)
    5de0:	18bfffc4 	addi	r2,r3,-1
    5de4:	18ffffcc 	andi	r3,r3,65535
    5de8:	10bfffcc 	andi	r2,r2,65535
    5dec:	1c801f26 	beq	r3,r18,5e6c <pbuf_free+0x10c>
    5df0:	88801b2e 	bgeu	r17,r2,5e60 <pbuf_free+0x100>
    5df4:	0004e600 	call	4e60 <mem_free>
    5df8:	980b883a 	mov	r5,r19
    5dfc:	84000044 	addi	r16,r16,1
    5e00:	983fec26 	beq	r19,zero,5db4 <pbuf_free+0x54>
    5e04:	2900038b 	ldhu	r4,14(r5)
    5e08:	20ffffc4 	addi	r3,r4,-1
    5e0c:	213fffcc 	andi	r4,r4,65535
    5e10:	18bfffcc 	andi	r2,r3,65535
    5e14:	203fe51e 	bne	r4,zero,5dac <pbuf_free+0x4c>
    5e18:	010000b4 	movhi	r4,2
    5e1c:	21163004 	addi	r4,r4,22720
    5e20:	014000b4 	movhi	r5,2
    5e24:	2956f104 	addi	r5,r5,23492
    5e28:	0180a284 	movi	r6,650
    5e2c:	01c000b4 	movhi	r7,2
    5e30:	39d6d404 	addi	r7,r7,23376
    5e34:	001b8b40 	call	1b8b4 <printf>
    5e38:	003fff06 	br	5e38 <pbuf_free+0xd8>
    5e3c:	010000b4 	movhi	r4,2
    5e40:	21163004 	addi	r4,r4,22720
    5e44:	014000b4 	movhi	r5,2
    5e48:	2956eb04 	addi	r5,r5,23468
    5e4c:	01809f44 	movi	r6,637
    5e50:	01c000b4 	movhi	r7,2
    5e54:	39d6d404 	addi	r7,r7,23376
    5e58:	001b8b40 	call	1b8b4 <printf>
    5e5c:	003fff06 	br	5e5c <pbuf_free+0xfc>
    5e60:	010001c4 	movi	r4,7
    5e64:	00056400 	call	5640 <memp_free>
    5e68:	003fe306 	br	5df8 <pbuf_free+0x98>
    5e6c:	01000204 	movi	r4,8
    5e70:	00056400 	call	5640 <memp_free>
    5e74:	003fe006 	br	5df8 <pbuf_free+0x98>
    5e78:	010000b4 	movhi	r4,2
    5e7c:	21163004 	addi	r4,r4,22720
    5e80:	014000b4 	movhi	r5,2
    5e84:	295b3004 	addi	r5,r5,27840
    5e88:	01809c44 	movi	r6,625
    5e8c:	01c000b4 	movhi	r7,2
    5e90:	39d6d404 	addi	r7,r7,23376
    5e94:	001b8b40 	call	1b8b4 <printf>
    5e98:	003fff06 	br	5e98 <pbuf_free+0x138>
    5e9c:	0001883a 	nop

00005ea0 <pbuf_realloc>:
    5ea0:	defffd04 	addi	sp,sp,-12
    5ea4:	dfc00215 	stw	ra,8(sp)
    5ea8:	dc400115 	stw	r17,4(sp)
    5eac:	dc000015 	stw	r16,0(sp)
    5eb0:	20003d26 	beq	r4,zero,5fa8 <pbuf_realloc+0x108>
    5eb4:	20800303 	ldbu	r2,12(r4)
    5eb8:	00c000c4 	movi	r3,3
    5ebc:	1880092e 	bgeu	r3,r2,5ee4 <pbuf_realloc+0x44>
    5ec0:	010000b4 	movhi	r4,2
    5ec4:	21163004 	addi	r4,r4,22720
    5ec8:	014000b4 	movhi	r5,2
    5ecc:	2956fd04 	addi	r5,r5,23540
    5ed0:	01806e04 	movi	r6,440
    5ed4:	01c000b4 	movhi	r7,2
    5ed8:	39d6d404 	addi	r7,r7,23376
    5edc:	001b8b40 	call	1b8b4 <printf>
    5ee0:	003fff06 	br	5ee0 <pbuf_realloc+0x40>
    5ee4:	2080020b 	ldhu	r2,8(r4)
    5ee8:	29bfffcc 	andi	r6,r5,65535
    5eec:	3080292e 	bgeu	r6,r2,5f94 <pbuf_realloc+0xf4>
    5ef0:	2823883a 	mov	r17,r5
    5ef4:	308dc83a 	sub	r6,r6,r2
    5ef8:	2021883a 	mov	r16,r4
    5efc:	017fff94 	movui	r5,65534
    5f00:	8100028b 	ldhu	r4,10(r16)
    5f04:	88ffffcc 	andi	r3,r17,65535
    5f08:	20bfffcc 	andi	r2,r4,65535
    5f0c:	10c0102e 	bgeu	r2,r3,5f50 <pbuf_realloc+0xb0>
    5f10:	8923c83a 	sub	r17,r17,r4
    5f14:	29802d16 	blt	r5,r6,5fcc <pbuf_realloc+0x12c>
    5f18:	8080020b 	ldhu	r2,8(r16)
    5f1c:	3085883a 	add	r2,r6,r2
    5f20:	8080020d 	sth	r2,8(r16)
    5f24:	84000017 	ldw	r16,0(r16)
    5f28:	803ff51e 	bne	r16,zero,5f00 <pbuf_realloc+0x60>
    5f2c:	010000b4 	movhi	r4,2
    5f30:	21163004 	addi	r4,r4,22720
    5f34:	014000b4 	movhi	r5,2
    5f38:	29570904 	addi	r5,r5,23588
    5f3c:	01807404 	movi	r6,464
    5f40:	01c000b4 	movhi	r7,2
    5f44:	39d6d404 	addi	r7,r7,23376
    5f48:	001b8b40 	call	1b8b4 <printf>
    5f4c:	003fff06 	br	5f4c <pbuf_realloc+0xac>
    5f50:	81000303 	ldbu	r4,12(r16)
    5f54:	2000091e 	bne	r4,zero,5f7c <pbuf_realloc+0xdc>
    5f58:	18800826 	beq	r3,r2,5f7c <pbuf_realloc+0xdc>
    5f5c:	81400117 	ldw	r5,4(r16)
    5f60:	8009883a 	mov	r4,r16
    5f64:	2c0bc83a 	sub	r5,r5,r16
    5f68:	2c4b883a 	add	r5,r5,r17
    5f6c:	297fffcc 	andi	r5,r5,65535
    5f70:	00050400 	call	5040 <mem_trim>
    5f74:	1021883a 	mov	r16,r2
    5f78:	10001d26 	beq	r2,zero,5ff0 <pbuf_realloc+0x150>
    5f7c:	81000017 	ldw	r4,0(r16)
    5f80:	8440028d 	sth	r17,10(r16)
    5f84:	8440020d 	sth	r17,8(r16)
    5f88:	20000126 	beq	r4,zero,5f90 <pbuf_realloc+0xf0>
    5f8c:	0005d600 	call	5d60 <pbuf_free>
    5f90:	80000015 	stw	zero,0(r16)
    5f94:	dfc00217 	ldw	ra,8(sp)
    5f98:	dc400117 	ldw	r17,4(sp)
    5f9c:	dc000017 	ldw	r16,0(sp)
    5fa0:	dec00304 	addi	sp,sp,12
    5fa4:	f800283a 	ret
    5fa8:	010000b4 	movhi	r4,2
    5fac:	21163004 	addi	r4,r4,22720
    5fb0:	014000b4 	movhi	r5,2
    5fb4:	2956f704 	addi	r5,r5,23516
    5fb8:	01806d04 	movi	r6,436
    5fbc:	01c000b4 	movhi	r7,2
    5fc0:	39d6d404 	addi	r7,r7,23376
    5fc4:	001b8b40 	call	1b8b4 <printf>
    5fc8:	003fff06 	br	5fc8 <pbuf_realloc+0x128>
    5fcc:	010000b4 	movhi	r4,2
    5fd0:	21163004 	addi	r4,r4,22720
    5fd4:	014000b4 	movhi	r5,2
    5fd8:	29570404 	addi	r5,r5,23568
    5fdc:	01807304 	movi	r6,460
    5fe0:	01c000b4 	movhi	r7,2
    5fe4:	39d6d404 	addi	r7,r7,23376
    5fe8:	001b8b40 	call	1b8b4 <printf>
    5fec:	003fff06 	br	5fec <pbuf_realloc+0x14c>
    5ff0:	010000b4 	movhi	r4,2
    5ff4:	21163004 	addi	r4,r4,22720
    5ff8:	014000b4 	movhi	r5,2
    5ffc:	29570f04 	addi	r5,r5,23612
    6000:	01807684 	movi	r6,474
    6004:	01c000b4 	movhi	r7,2
    6008:	39d6d404 	addi	r7,r7,23376
    600c:	001b8b40 	call	1b8b4 <printf>
    6010:	003fff06 	br	6010 <pbuf_realloc+0x170>
    6014:	0001883a 	nop
    6018:	0001883a 	nop
    601c:	0001883a 	nop

00006020 <pbuf_alloc>:
    6020:	defff704 	addi	sp,sp,-36
    6024:	dcc00315 	stw	r19,12(sp)
    6028:	dc400115 	stw	r17,4(sp)
    602c:	dfc00815 	stw	ra,32(sp)
    6030:	ddc00715 	stw	r23,28(sp)
    6034:	dd800615 	stw	r22,24(sp)
    6038:	dd400515 	stw	r21,20(sp)
    603c:	dd000415 	stw	r20,16(sp)
    6040:	dc800215 	stw	r18,8(sp)
    6044:	dc000015 	stw	r16,0(sp)
    6048:	00800044 	movi	r2,1
    604c:	3027883a 	mov	r19,r6
    6050:	2823883a 	mov	r17,r5
    6054:	2080a126 	beq	r4,r2,62dc <pbuf_alloc+0x2bc>
    6058:	2000261e 	bne	r4,zero,60f4 <pbuf_alloc+0xd4>
    605c:	04800d84 	movi	r18,54
    6060:	00800084 	movi	r2,2
    6064:	14c03036 	bltu	r2,r19,6128 <pbuf_alloc+0x108>
    6068:	9800921e 	bne	r19,zero,62b4 <pbuf_alloc+0x294>
    606c:	04ffff04 	movi	r19,-4
    6070:	288000c4 	addi	r2,r5,3
    6074:	910004c4 	addi	r4,r18,19
    6078:	14c4703a 	and	r2,r2,r19
    607c:	24c8703a 	and	r4,r4,r19
    6080:	2089883a 	add	r4,r4,r2
    6084:	213fffcc 	andi	r4,r4,65535
    6088:	00051c00 	call	51c0 <mem_malloc>
    608c:	1021883a 	mov	r16,r2
    6090:	1000a226 	beq	r2,zero,631c <pbuf_alloc+0x2fc>
    6094:	90bfffcc 	andi	r2,r18,65535
    6098:	8085883a 	add	r2,r16,r2
    609c:	108004c4 	addi	r2,r2,19
    60a0:	14e6703a 	and	r19,r2,r19
    60a4:	84c00115 	stw	r19,4(r16)
    60a8:	8440020d 	sth	r17,8(r16)
    60ac:	8440028d 	sth	r17,10(r16)
    60b0:	80000015 	stw	zero,0(r16)
    60b4:	80000305 	stb	zero,12(r16)
    60b8:	00800044 	movi	r2,1
    60bc:	8080038d 	sth	r2,14(r16)
    60c0:	80000345 	stb	zero,13(r16)
    60c4:	8005883a 	mov	r2,r16
    60c8:	dfc00817 	ldw	ra,32(sp)
    60cc:	ddc00717 	ldw	r23,28(sp)
    60d0:	dd800617 	ldw	r22,24(sp)
    60d4:	dd400517 	ldw	r21,20(sp)
    60d8:	dd000417 	ldw	r20,16(sp)
    60dc:	dcc00317 	ldw	r19,12(sp)
    60e0:	dc800217 	ldw	r18,8(sp)
    60e4:	dc400117 	ldw	r17,4(sp)
    60e8:	dc000017 	ldw	r16,0(sp)
    60ec:	dec00904 	addi	sp,sp,36
    60f0:	f800283a 	ret
    60f4:	00800084 	movi	r2,2
    60f8:	20806c26 	beq	r4,r2,62ac <pbuf_alloc+0x28c>
    60fc:	008000c4 	movi	r2,3
    6100:	20807826 	beq	r4,r2,62e4 <pbuf_alloc+0x2c4>
    6104:	010000b4 	movhi	r4,2
    6108:	21163004 	addi	r4,r4,22720
    610c:	014000b4 	movhi	r5,2
    6110:	29571604 	addi	r5,r5,23640
    6114:	01803a04 	movi	r6,232
    6118:	01c000b4 	movhi	r7,2
    611c:	39d6d404 	addi	r7,r7,23376
    6120:	001b8b40 	call	1b8b4 <printf>
    6124:	003fff06 	br	6124 <pbuf_alloc+0x104>
    6128:	008000c4 	movi	r2,3
    612c:	98800926 	beq	r19,r2,6154 <pbuf_alloc+0x134>
    6130:	010000b4 	movhi	r4,2
    6134:	21163004 	addi	r4,r4,22720
    6138:	014000b4 	movhi	r5,2
    613c:	29573b04 	addi	r5,r5,23788
    6140:	01805504 	movi	r6,340
    6144:	01c000b4 	movhi	r7,2
    6148:	39d6d404 	addi	r7,r7,23376
    614c:	001b8b40 	call	1b8b4 <printf>
    6150:	003fff06 	br	6150 <pbuf_alloc+0x130>
    6154:	01000204 	movi	r4,8
    6158:	00055400 	call	5540 <memp_malloc>
    615c:	1021883a 	mov	r16,r2
    6160:	10006226 	beq	r2,zero,62ec <pbuf_alloc+0x2cc>
    6164:	94bfffcc 	andi	r18,r18,65535
    6168:	1487883a 	add	r3,r2,r18
    616c:	18c004c4 	addi	r3,r3,19
    6170:	00bfff04 	movi	r2,-4
    6174:	948000c4 	addi	r18,r18,3
    6178:	1886703a 	and	r3,r3,r2
    617c:	01017b04 	movi	r4,1516
    6180:	9084703a 	and	r2,r18,r2
    6184:	8440020d 	sth	r17,8(r16)
    6188:	84c00305 	stb	r19,12(r16)
    618c:	80000015 	stw	zero,0(r16)
    6190:	80c00115 	stw	r3,4(r16)
    6194:	8c7fffcc 	andi	r17,r17,65535
    6198:	2085c83a 	sub	r2,r4,r2
    619c:	8880010e 	bge	r17,r2,61a4 <pbuf_alloc+0x184>
    61a0:	8805883a 	mov	r2,r17
    61a4:	8080028d 	sth	r2,10(r16)
    61a8:	84c17f04 	addi	r19,r16,1532
    61ac:	1887883a 	add	r3,r3,r2
    61b0:	98c05136 	bltu	r19,r3,62f8 <pbuf_alloc+0x2d8>
    61b4:	00c00044 	movi	r3,1
    61b8:	80c0038d 	sth	r3,14(r16)
    61bc:	88a3c83a 	sub	r17,r17,r2
    61c0:	047fbd0e 	bge	zero,r17,60b8 <pbuf_alloc+0x98>
    61c4:	01000204 	movi	r4,8
    61c8:	1829883a 	mov	r20,r3
    61cc:	00055400 	call	5540 <memp_malloc>
    61d0:	8025883a 	mov	r18,r16
    61d4:	05c000c4 	movi	r23,3
    61d8:	05bfffd4 	movui	r22,65535
    61dc:	05417ac4 	movi	r21,1515
    61e0:	88ffffcc 	andi	r3,r17,65535
    61e4:	1000191e 	bne	r2,zero,624c <pbuf_alloc+0x22c>
    61e8:	8009883a 	mov	r4,r16
    61ec:	00800044 	movi	r2,1
    61f0:	0021883a 	mov	r16,zero
    61f4:	d0a03705 	stb	r2,-32548(gp)
    61f8:	0005d600 	call	5d60 <pbuf_free>
    61fc:	003fb106 	br	60c4 <pbuf_alloc+0xa4>
    6200:	8807883a 	mov	r3,r17
    6204:	11000404 	addi	r4,r2,16
    6208:	197fffcc 	andi	r5,r3,65535
    620c:	11000115 	stw	r4,4(r2)
    6210:	10c0028d 	sth	r3,10(r2)
    6214:	210000cc 	andi	r4,r4,3
    6218:	8963c83a 	sub	r17,r17,r5
    621c:	20001a1e 	bne	r4,zero,6288 <pbuf_alloc+0x268>
    6220:	80c0028b 	ldhu	r3,10(r16)
    6224:	81000117 	ldw	r4,4(r16)
    6228:	1025883a 	mov	r18,r2
    622c:	20c7883a 	add	r3,r4,r3
    6230:	98c03c36 	bltu	r19,r3,6324 <pbuf_alloc+0x304>
    6234:	1500038d 	sth	r20,14(r2)
    6238:	047f9f0e 	bge	zero,r17,60b8 <pbuf_alloc+0x98>
    623c:	01000204 	movi	r4,8
    6240:	00055400 	call	5540 <memp_malloc>
    6244:	88ffffcc 	andi	r3,r17,65535
    6248:	103fe726 	beq	r2,zero,61e8 <pbuf_alloc+0x1c8>
    624c:	10000015 	stw	zero,0(r2)
    6250:	90800015 	stw	r2,0(r18)
    6254:	15c00305 	stb	r23,12(r2)
    6258:	10000345 	stb	zero,13(r2)
    625c:	8d803a26 	beq	r17,r22,6348 <pbuf_alloc+0x328>
    6260:	1440020d 	sth	r17,8(r2)
    6264:	a8ffe62e 	bgeu	r21,r3,6200 <pbuf_alloc+0x1e0>
    6268:	00c17b04 	movi	r3,1516
    626c:	11000404 	addi	r4,r2,16
    6270:	197fffcc 	andi	r5,r3,65535
    6274:	11000115 	stw	r4,4(r2)
    6278:	10c0028d 	sth	r3,10(r2)
    627c:	210000cc 	andi	r4,r4,3
    6280:	8963c83a 	sub	r17,r17,r5
    6284:	203fe626 	beq	r4,zero,6220 <pbuf_alloc+0x200>
    6288:	010000b4 	movhi	r4,2
    628c:	21163004 	addi	r4,r4,22720
    6290:	014000b4 	movhi	r5,2
    6294:	29572f04 	addi	r5,r5,23740
    6298:	01804904 	movi	r6,292
    629c:	01c000b4 	movhi	r7,2
    62a0:	39d6d404 	addi	r7,r7,23376
    62a4:	001b8b40 	call	1b8b4 <printf>
    62a8:	003fff06 	br	62a8 <pbuf_alloc+0x288>
    62ac:	04800384 	movi	r18,14
    62b0:	003f6b06 	br	6060 <pbuf_alloc+0x40>
    62b4:	010001c4 	movi	r4,7
    62b8:	00055400 	call	5540 <memp_malloc>
    62bc:	1021883a 	mov	r16,r2
    62c0:	10001626 	beq	r2,zero,631c <pbuf_alloc+0x2fc>
    62c4:	10000115 	stw	zero,4(r2)
    62c8:	1440020d 	sth	r17,8(r2)
    62cc:	1440028d 	sth	r17,10(r2)
    62d0:	10000015 	stw	zero,0(r2)
    62d4:	14c00305 	stb	r19,12(r2)
    62d8:	003f7706 	br	60b8 <pbuf_alloc+0x98>
    62dc:	04800884 	movi	r18,34
    62e0:	003f5f06 	br	6060 <pbuf_alloc+0x40>
    62e4:	0025883a 	mov	r18,zero
    62e8:	003f5d06 	br	6060 <pbuf_alloc+0x40>
    62ec:	00800044 	movi	r2,1
    62f0:	d0a03705 	stb	r2,-32548(gp)
    62f4:	003f7306 	br	60c4 <pbuf_alloc+0xa4>
    62f8:	010000b4 	movhi	r4,2
    62fc:	21163004 	addi	r4,r4,22720
    6300:	014000b4 	movhi	r5,2
    6304:	29571d04 	addi	r5,r5,23668
    6308:	01804084 	movi	r6,258
    630c:	01c000b4 	movhi	r7,2
    6310:	39d6d404 	addi	r7,r7,23376
    6314:	001b8b40 	call	1b8b4 <printf>
    6318:	003fff06 	br	6318 <pbuf_alloc+0x2f8>
    631c:	0021883a 	mov	r16,zero
    6320:	003f6806 	br	60c4 <pbuf_alloc+0xa4>
    6324:	010000b4 	movhi	r4,2
    6328:	21163004 	addi	r4,r4,22720
    632c:	014000b4 	movhi	r5,2
    6330:	29571d04 	addi	r5,r5,23668
    6334:	018049c4 	movi	r6,295
    6338:	01c000b4 	movhi	r7,2
    633c:	39d6d404 	addi	r7,r7,23376
    6340:	001b8b40 	call	1b8b4 <printf>
    6344:	003fff06 	br	6344 <pbuf_alloc+0x324>
    6348:	010000b4 	movhi	r4,2
    634c:	21163004 	addi	r4,r4,22720
    6350:	014000b4 	movhi	r5,2
    6354:	29572a04 	addi	r5,r5,23720
    6358:	01804784 	movi	r6,286
    635c:	01c000b4 	movhi	r7,2
    6360:	39d6d404 	addi	r7,r7,23376
    6364:	001b8b40 	call	1b8b4 <printf>
    6368:	003fff06 	br	6368 <pbuf_alloc+0x348>
    636c:	0001883a 	nop
    6370:	0001883a 	nop
    6374:	0001883a 	nop
    6378:	0001883a 	nop
    637c:	0001883a 	nop

00006380 <pbuf_clen>:
    6380:	0005883a 	mov	r2,zero
    6384:	20000426 	beq	r4,zero,6398 <pbuf_clen+0x18>
    6388:	21000017 	ldw	r4,0(r4)
    638c:	10800044 	addi	r2,r2,1
    6390:	203ffd1e 	bne	r4,zero,6388 <pbuf_clen+0x8>
    6394:	f800283a 	ret
    6398:	f800283a 	ret
    639c:	0001883a 	nop

000063a0 <pbuf_ref>:
    63a0:	20000326 	beq	r4,zero,63b0 <pbuf_ref+0x10>
    63a4:	2080038b 	ldhu	r2,14(r4)
    63a8:	10800044 	addi	r2,r2,1
    63ac:	2080038d 	sth	r2,14(r4)
    63b0:	f800283a 	ret
    63b4:	0001883a 	nop
    63b8:	0001883a 	nop
    63bc:	0001883a 	nop

000063c0 <pbuf_cat>:
    63c0:	deffff04 	addi	sp,sp,-4
    63c4:	dfc00015 	stw	ra,0(sp)
    63c8:	20001826 	beq	r4,zero,642c <pbuf_cat+0x6c>
    63cc:	28001726 	beq	r5,zero,642c <pbuf_cat+0x6c>
    63d0:	20800017 	ldw	r2,0(r4)
    63d4:	2007883a 	mov	r3,r4
    63d8:	1000021e 	bne	r2,zero,63e4 <pbuf_cat+0x24>
    63dc:	00002506 	br	6474 <pbuf_cat+0xb4>
    63e0:	2005883a 	mov	r2,r4
    63e4:	1980020b 	ldhu	r6,8(r3)
    63e8:	29c0020b 	ldhu	r7,8(r5)
    63ec:	11000017 	ldw	r4,0(r2)
    63f0:	398d883a 	add	r6,r7,r6
    63f4:	1980020d 	sth	r6,8(r3)
    63f8:	1007883a 	mov	r3,r2
    63fc:	203ff81e 	bne	r4,zero,63e0 <pbuf_cat+0x20>
    6400:	10c0020b 	ldhu	r3,8(r2)
    6404:	1100028b 	ldhu	r4,10(r2)
    6408:	19bfffcc 	andi	r6,r3,65535
    640c:	3100101e 	bne	r6,r4,6450 <pbuf_cat+0x90>
    6410:	2900020b 	ldhu	r4,8(r5)
    6414:	11400015 	stw	r5,0(r2)
    6418:	20c7883a 	add	r3,r4,r3
    641c:	10c0020d 	sth	r3,8(r2)
    6420:	dfc00017 	ldw	ra,0(sp)
    6424:	dec00104 	addi	sp,sp,4
    6428:	f800283a 	ret
    642c:	010000b4 	movhi	r4,2
    6430:	21163004 	addi	r4,r4,22720
    6434:	014000b4 	movhi	r5,2
    6438:	29574204 	addi	r5,r5,23816
    643c:	0180bb84 	movi	r6,750
    6440:	01c000b4 	movhi	r7,2
    6444:	39d6d404 	addi	r7,r7,23376
    6448:	001b8b40 	call	1b8b4 <printf>
    644c:	003fff06 	br	644c <pbuf_cat+0x8c>
    6450:	010000b4 	movhi	r4,2
    6454:	21163004 	addi	r4,r4,22720
    6458:	014000b4 	movhi	r5,2
    645c:	29575004 	addi	r5,r5,23872
    6460:	0180bd84 	movi	r6,758
    6464:	01c000b4 	movhi	r7,2
    6468:	39d6d404 	addi	r7,r7,23376
    646c:	001b8b40 	call	1b8b4 <printf>
    6470:	003fff06 	br	6470 <pbuf_cat+0xb0>
    6474:	2005883a 	mov	r2,r4
    6478:	003fe106 	br	6400 <pbuf_cat+0x40>
    647c:	0001883a 	nop

00006480 <pbuf_chain>:
    6480:	defffe04 	addi	sp,sp,-8
    6484:	dc000015 	stw	r16,0(sp)
    6488:	2821883a 	mov	r16,r5
    648c:	dfc00115 	stw	ra,4(sp)
    6490:	00063c00 	call	63c0 <pbuf_cat>
    6494:	80000326 	beq	r16,zero,64a4 <pbuf_chain+0x24>
    6498:	8080038b 	ldhu	r2,14(r16)
    649c:	10800044 	addi	r2,r2,1
    64a0:	8080038d 	sth	r2,14(r16)
    64a4:	dfc00117 	ldw	ra,4(sp)
    64a8:	dc000017 	ldw	r16,0(sp)
    64ac:	dec00204 	addi	sp,sp,8
    64b0:	f800283a 	ret
    64b4:	0001883a 	nop
    64b8:	0001883a 	nop
    64bc:	0001883a 	nop

000064c0 <pbuf_dechain>:
    64c0:	defffd04 	addi	sp,sp,-12
    64c4:	dc400115 	stw	r17,4(sp)
    64c8:	24400017 	ldw	r17,0(r4)
    64cc:	dc000015 	stw	r16,0(sp)
    64d0:	dfc00215 	stw	ra,8(sp)
    64d4:	2021883a 	mov	r16,r4
    64d8:	20c0020b 	ldhu	r3,8(r4)
    64dc:	2080028b 	ldhu	r2,10(r4)
    64e0:	88000e26 	beq	r17,zero,651c <pbuf_dechain+0x5c>
    64e4:	8940020b 	ldhu	r5,8(r17)
    64e8:	19bfffcc 	andi	r6,r3,65535
    64ec:	113fffcc 	andi	r4,r2,65535
    64f0:	3109c83a 	sub	r4,r6,r4
    64f4:	29001326 	beq	r5,r4,6544 <pbuf_dechain+0x84>
    64f8:	010000b4 	movhi	r4,2
    64fc:	21163004 	addi	r4,r4,22720
    6500:	014000b4 	movhi	r5,2
    6504:	29575c04 	addi	r5,r5,23920
    6508:	0180cb04 	movi	r6,812
    650c:	01c000b4 	movhi	r7,2
    6510:	39d6d404 	addi	r7,r7,23376
    6514:	001b8b40 	call	1b8b4 <printf>
    6518:	003fff06 	br	6518 <pbuf_dechain+0x58>
    651c:	18801426 	beq	r3,r2,6570 <pbuf_dechain+0xb0>
    6520:	010000b4 	movhi	r4,2
    6524:	21163004 	addi	r4,r4,22720
    6528:	014000b4 	movhi	r5,2
    652c:	29576504 	addi	r5,r5,23956
    6530:	0180cf44 	movi	r6,829
    6534:	01c000b4 	movhi	r7,2
    6538:	39d6d404 	addi	r7,r7,23376
    653c:	001b8b40 	call	1b8b4 <printf>
    6540:	003fff06 	br	6540 <pbuf_dechain+0x80>
    6544:	1887c83a 	sub	r3,r3,r2
    6548:	88c0020d 	sth	r3,8(r17)
    654c:	8809883a 	mov	r4,r17
    6550:	80000015 	stw	zero,0(r16)
    6554:	8080020d 	sth	r2,8(r16)
    6558:	0005d600 	call	5d60 <pbuf_free>
    655c:	8100020b 	ldhu	r4,8(r16)
    6560:	80c0028b 	ldhu	r3,10(r16)
    6564:	20ffee1e 	bne	r4,r3,6520 <pbuf_dechain+0x60>
    6568:	10803fcc 	andi	r2,r2,255
    656c:	10000126 	beq	r2,zero,6574 <pbuf_dechain+0xb4>
    6570:	0023883a 	mov	r17,zero
    6574:	8805883a 	mov	r2,r17
    6578:	dfc00217 	ldw	ra,8(sp)
    657c:	dc400117 	ldw	r17,4(sp)
    6580:	dc000017 	ldw	r16,0(sp)
    6584:	dec00304 	addi	sp,sp,12
    6588:	f800283a 	ret
    658c:	0001883a 	nop
    6590:	0001883a 	nop
    6594:	0001883a 	nop
    6598:	0001883a 	nop
    659c:	0001883a 	nop

000065a0 <pbuf_copy>:
    65a0:	defffa04 	addi	sp,sp,-24
    65a4:	dc400115 	stw	r17,4(sp)
    65a8:	dc000015 	stw	r16,0(sp)
    65ac:	dfc00515 	stw	ra,20(sp)
    65b0:	dd000415 	stw	r20,16(sp)
    65b4:	dcc00315 	stw	r19,12(sp)
    65b8:	dc800215 	stw	r18,8(sp)
    65bc:	2023883a 	mov	r17,r4
    65c0:	2821883a 	mov	r16,r5
    65c4:	20000426 	beq	r4,zero,65d8 <pbuf_copy+0x38>
    65c8:	28000326 	beq	r5,zero,65d8 <pbuf_copy+0x38>
    65cc:	20c0020b 	ldhu	r3,8(r4)
    65d0:	2880020b 	ldhu	r2,8(r5)
    65d4:	1880092e 	bgeu	r3,r2,65fc <pbuf_copy+0x5c>
    65d8:	010000b4 	movhi	r4,2
    65dc:	21163004 	addi	r4,r4,22720
    65e0:	014000b4 	movhi	r5,2
    65e4:	29576b04 	addi	r5,r5,23980
    65e8:	0180d744 	movi	r6,861
    65ec:	01c000b4 	movhi	r7,2
    65f0:	39d6d404 	addi	r7,r7,23376
    65f4:	001b8b40 	call	1b8b4 <printf>
    65f8:	003fff06 	br	65f8 <pbuf_copy+0x58>
    65fc:	0027883a 	mov	r19,zero
    6600:	0025883a 	mov	r18,zero
    6604:	8900028b 	ldhu	r4,10(r17)
    6608:	8500028b 	ldhu	r20,10(r16)
    660c:	90bfffcc 	andi	r2,r18,65535
    6610:	21bfffcc 	andi	r6,r4,65535
    6614:	a17fffcc 	andi	r5,r20,65535
    6618:	98ffffcc 	andi	r3,r19,65535
    661c:	308dc83a 	sub	r6,r6,r2
    6620:	28cbc83a 	sub	r5,r5,r3
    6624:	31402b16 	blt	r6,r5,66d4 <pbuf_copy+0x134>
    6628:	a4e9c83a 	sub	r20,r20,r19
    662c:	89000117 	ldw	r4,4(r17)
    6630:	81400117 	ldw	r5,4(r16)
    6634:	a1bfffcc 	andi	r6,r20,65535
    6638:	2089883a 	add	r4,r4,r2
    663c:	28cb883a 	add	r5,r5,r3
    6640:	001b6b40 	call	1b6b4 <memcpy>
    6644:	88c0028b 	ldhu	r3,10(r17)
    6648:	a4a5883a 	add	r18,r20,r18
    664c:	90bfffcc 	andi	r2,r18,65535
    6650:	a4e7883a 	add	r19,r20,r19
    6654:	18802c36 	bltu	r3,r2,6708 <pbuf_copy+0x168>
    6658:	8100028b 	ldhu	r4,10(r16)
    665c:	997fffcc 	andi	r5,r19,65535
    6660:	21403c36 	bltu	r4,r5,6754 <pbuf_copy+0x1b4>
    6664:	29000236 	bltu	r5,r4,6670 <pbuf_copy+0xd0>
    6668:	84000017 	ldw	r16,0(r16)
    666c:	0027883a 	mov	r19,zero
    6670:	10c01426 	beq	r2,r3,66c4 <pbuf_copy+0x124>
    6674:	80000326 	beq	r16,zero,6684 <pbuf_copy+0xe4>
    6678:	80c0028b 	ldhu	r3,10(r16)
    667c:	8080020b 	ldhu	r2,8(r16)
    6680:	18801626 	beq	r3,r2,66dc <pbuf_copy+0x13c>
    6684:	88c0028b 	ldhu	r3,10(r17)
    6688:	8880020b 	ldhu	r2,8(r17)
    668c:	18800226 	beq	r3,r2,6698 <pbuf_copy+0xf8>
    6690:	803fdc1e 	bne	r16,zero,6604 <pbuf_copy+0x64>
    6694:	00002606 	br	6730 <pbuf_copy+0x190>
    6698:	88800017 	ldw	r2,0(r17)
    669c:	103ffc26 	beq	r2,zero,6690 <pbuf_copy+0xf0>
    66a0:	010000b4 	movhi	r4,2
    66a4:	21163004 	addi	r4,r4,22720
    66a8:	014000b4 	movhi	r5,2
    66ac:	29578804 	addi	r5,r5,24096
    66b0:	0180e0c4 	movi	r6,899
    66b4:	01c000b4 	movhi	r7,2
    66b8:	39d6d404 	addi	r7,r7,23376
    66bc:	001b8b40 	call	1b8b4 <printf>
    66c0:	003fff06 	br	66c0 <pbuf_copy+0x120>
    66c4:	8c400017 	ldw	r17,0(r17)
    66c8:	88001826 	beq	r17,zero,672c <pbuf_copy+0x18c>
    66cc:	0025883a 	mov	r18,zero
    66d0:	003fe806 	br	6674 <pbuf_copy+0xd4>
    66d4:	24a9c83a 	sub	r20,r4,r18
    66d8:	003fd406 	br	662c <pbuf_copy+0x8c>
    66dc:	80800017 	ldw	r2,0(r16)
    66e0:	103fe826 	beq	r2,zero,6684 <pbuf_copy+0xe4>
    66e4:	010000b4 	movhi	r4,2
    66e8:	21163004 	addi	r4,r4,22720
    66ec:	014000b4 	movhi	r5,2
    66f0:	29578804 	addi	r5,r5,24096
    66f4:	0180df84 	movi	r6,894
    66f8:	01c000b4 	movhi	r7,2
    66fc:	39d6d404 	addi	r7,r7,23376
    6700:	001b8b40 	call	1b8b4 <printf>
    6704:	003fff06 	br	6704 <pbuf_copy+0x164>
    6708:	010000b4 	movhi	r4,2
    670c:	21163004 	addi	r4,r4,22720
    6710:	014000b4 	movhi	r5,2
    6714:	29577704 	addi	r5,r5,24028
    6718:	0180db44 	movi	r6,877
    671c:	01c000b4 	movhi	r7,2
    6720:	39d6d404 	addi	r7,r7,23376
    6724:	001b8b40 	call	1b8b4 <printf>
    6728:	003fff06 	br	6728 <pbuf_copy+0x188>
    672c:	8000121e 	bne	r16,zero,6778 <pbuf_copy+0x1d8>
    6730:	0005883a 	mov	r2,zero
    6734:	dfc00517 	ldw	ra,20(sp)
    6738:	dd000417 	ldw	r20,16(sp)
    673c:	dcc00317 	ldw	r19,12(sp)
    6740:	dc800217 	ldw	r18,8(sp)
    6744:	dc400117 	ldw	r17,4(sp)
    6748:	dc000017 	ldw	r16,0(sp)
    674c:	dec00604 	addi	sp,sp,24
    6750:	f800283a 	ret
    6754:	010000b4 	movhi	r4,2
    6758:	21163004 	addi	r4,r4,22720
    675c:	014000b4 	movhi	r5,2
    6760:	29577d04 	addi	r5,r5,24052
    6764:	0180db84 	movi	r6,878
    6768:	01c000b4 	movhi	r7,2
    676c:	39d6d404 	addi	r7,r7,23376
    6770:	001b8b40 	call	1b8b4 <printf>
    6774:	003fff06 	br	6774 <pbuf_copy+0x1d4>
    6778:	010000b4 	movhi	r4,2
    677c:	21163004 	addi	r4,r4,22720
    6780:	014000b4 	movhi	r5,2
    6784:	29578404 	addi	r5,r5,24080
    6788:	0180de04 	movi	r6,888
    678c:	01c000b4 	movhi	r7,2
    6790:	39d6d404 	addi	r7,r7,23376
    6794:	001b8b40 	call	1b8b4 <printf>
    6798:	003fff06 	br	6798 <pbuf_copy+0x1f8>
    679c:	0001883a 	nop

000067a0 <pbuf_copy_partial>:
    67a0:	defff904 	addi	sp,sp,-28
    67a4:	dd000415 	stw	r20,16(sp)
    67a8:	dc800215 	stw	r18,8(sp)
    67ac:	dfc00615 	stw	ra,24(sp)
    67b0:	dd400515 	stw	r21,20(sp)
    67b4:	dcc00315 	stw	r19,12(sp)
    67b8:	dc400115 	stw	r17,4(sp)
    67bc:	dc000015 	stw	r16,0(sp)
    67c0:	2829883a 	mov	r20,r5
    67c4:	3025883a 	mov	r18,r6
